libdframeworkdbus.so.2:_Z24registerAreaListMetaTypev
libdframeworkdbus.so.2:_Z24registerDockRectMetaTypev
libdframeworkdbus.so.2:_Z24registerLinkInfoMetaTypev
libdframeworkdbus.so.2:_Z24registerSinkInfoMetaTypev
libdframeworkdbus.so.2:_Z24registerZoneInfoMetaTypev
libdframeworkdbus.so.2:_Z25registerAudioPortMetaTypev
libdframeworkdbus.so.2:_Z25registerIntStringMetaTypev
libdframeworkdbus.so.2:_Z25registerSearchMapMetaTypev
libdframeworkdbus.so.2:_Z26registerLocaleListMetaTypev
libdframeworkdbus.so.2:_Z26registerResolutionMetaTypev
libdframeworkdbus.so.2:_Z26registerScreenRectMetaTypev
libdframeworkdbus.so.2:_Z26registerWindowInfoMetaTypev
libdframeworkdbus.so.2:_Z26registerWindowListMetaTypev
libdframeworkdbus.so.2:_Z27registerDBusToolTipMetaTypev
libdframeworkdbus.so.2:_Z27registerQVariantMapMetaTypev
libdframeworkdbus.so.2:_Z27registerReflectListMetaTypev
libdframeworkdbus.so.2:_Z28registerLinkInfoListMetaTypev
libdframeworkdbus.so.2:_Z28registerPropertyListMetaTypev
libdframeworkdbus.so.2:_Z28registerQVariantListMetaTypev
libdframeworkdbus.so.2:_Z28registerRotationListMetaTypev
libdframeworkdbus.so.2:_Z28registerSinkInfoListMetaTypev
libdframeworkdbus.so.2:_Z29registerAudioPortListMetaTypev
libdframeworkdbus.so.2:_Z29registerBrightnessMapMetaTypev
libdframeworkdbus.so.2:_Z29registerChromeTabListMetaTypev
libdframeworkdbus.so.2:_Z29registerDBusImageListMetaTypev
libdframeworkdbus.so.2:_Z29registerNetworkErrorsMetaTypev
libdframeworkdbus.so.2:_Z29registerWindowInfoMapMetaTypev
libdframeworkdbus.so.2:_Z30registerAppsCGroupInfoMetaTypev
libdframeworkdbus.so.2:_Z30registerMirrorInfoListMetaTypev
libdframeworkdbus.so.2:_Z30registerResolutionListMetaTypev
libdframeworkdbus.so.2:_Z31registerInputDeviceListMetaTypev
libdframeworkdbus.so.2:_Z31registerWacomDeviceListMetaTypev
libdframeworkdbus.so.2:_Z32registerBatteryStateInfoMetaTypev
libdframeworkdbus.so.2:_Z33registerAppUpdateInfoListMetaTypev
libdframeworkdbus.so.2:_Z34registerAppsCGroupInfoListMetaTypev
libdframeworkdbus.so.2:_Z34registerBatteryPresentInfoMetaTypev
libdframeworkdbus.so.2:_Z34registerDBusObjectPathListMetaTypev
libdframeworkdbus.so.2:_Z34registerKeyboardLayoutListMetaTypev
libdframeworkdbus.so.2:_Z36registerNetworkAvailableKeysMetaTypev
libdframeworkdbus.so.2:_Z37registerBatteryPercentageInfoMetaTypev
libdframeworkdbus.so.2:_Z37registerNetworkConnectionDataMetaTypev
libdframeworkdbus.so.2:_ZN10LocaleInfoeqERKS_
libdframeworkdbus.so.2:_ZN10MirrorInfoC1Ev
libdframeworkdbus.so.2:_ZN10MirrorInfoC2Ev
libdframeworkdbus.so.2:_ZN10ResolutionC1Ev
libdframeworkdbus.so.2:_ZN10ResolutionC2Ev
libdframeworkdbus.so.2:_ZN10ScreenRectC1Ev
libdframeworkdbus.so.2:_ZN10ScreenRectC2Ev
libdframeworkdbus.so.2:_ZN10__Accounts10CallQueuedERK7QStringRK5QListI8QVariantE
libdframeworkdbus.so.2:_ZN10__Accounts10allowGuestEv
libdframeworkdbus.so.2:_ZN10__Accounts11UserDeletedERK7QString
libdframeworkdbus.so.2:_ZN10__Accounts11qt_metacallEN11QMetaObject4CallEiPPv
libdframeworkdbus.so.2:_ZN10__Accounts11qt_metacastEPKc
libdframeworkdbus.so.2:_ZN10__Accounts17onPropertyChangedERK7QStringRK8QVariant
libdframeworkdbus.so.2:_ZN10__Accounts21onPendingCallFinishedEP23QDBusPendingCallWatcher
libdframeworkdbus.so.2:_ZN10__Accounts8userListEv
libdframeworkdbus.so.2:_ZN10__Accounts9UserAddedERK7QString
libdframeworkdbus.so.2:_ZN10__Accounts9guestIconEv
libdframeworkdbus.so.2:_ZN10__AccountsC1ERK7QStringS2_RK15QDBusConnectionP7QObject
libdframeworkdbus.so.2:_ZN10__AccountsC2ERK7QStringS2_RK15QDBusConnectionP7QObject
libdframeworkdbus.so.2:_ZN10__AccountsD0Ev
libdframeworkdbus.so.2:_ZN10__AccountsD1Ev
libdframeworkdbus.so.2:_ZN10__AccountsD2Ev
libdframeworkdbus.so.2:_ZN10__Keyboard10CallQueuedERK7QStringRK5QListI8QVariantE
libdframeworkdbus.so.2:_ZN10__Keyboard11cursorBlinkEv
libdframeworkdbus.so.2:_ZN10__Keyboard11qt_metacallEN11QMetaObject4CallEiPPv
libdframeworkdbus.so.2:_ZN10__Keyboard11qt_metacastEPKc
libdframeworkdbus.so.2:_ZN10__Keyboard11repeatDelayEv
libdframeworkdbus.so.2:_ZN10__Keyboard13currentLayoutEv
libdframeworkdbus.so.2:_ZN10__Keyboard13repeatEnabledEv
libdframeworkdbus.so.2:_ZN10__Keyboard14capslockToggleEv
libdframeworkdbus.so.2:_ZN10__Keyboard14repeatIntervalEv
libdframeworkdbus.so.2:_ZN10__Keyboard14setCursorBlinkEi
libdframeworkdbus.so.2:_ZN10__Keyboard14setRepeatDelayEj
libdframeworkdbus.so.2:_ZN10__Keyboard14userLayoutListEv
libdframeworkdbus.so.2:_ZN10__Keyboard14userOptionListEv
libdframeworkdbus.so.2:_ZN10__Keyboard16setCurrentLayoutERK7QString
libdframeworkdbus.so.2:_ZN10__Keyboard16setRepeatEnabledEb
libdframeworkdbus.so.2:_ZN10__Keyboard17onPropertyChangedERK7QStringRK8QVariant
libdframeworkdbus.so.2:_ZN10__Keyboard17setCapslockToggleEb
libdframeworkdbus.so.2:_ZN10__Keyboard17setRepeatIntervalEj
libdframeworkdbus.so.2:_ZN10__Keyboard21onPendingCallFinishedEP23QDBusPendingCallWatcher
libdframeworkdbus.so.2:_ZN10__KeyboardC1ERK7QStringS2_RK15QDBusConnectionP7QObject
libdframeworkdbus.so.2:_ZN10__KeyboardC2ERK7QStringS2_RK15QDBusConnectionP7QObject
libdframeworkdbus.so.2:_ZN10__KeyboardD0Ev
libdframeworkdbus.so.2:_ZN10__KeyboardD1Ev
libdframeworkdbus.so.2:_ZN10__KeyboardD2Ev
libdframeworkdbus.so.2:_ZN10__Launcher10CallQueuedERK7QStringRK5QListI8QVariantE
libdframeworkdbus.so.2:_ZN10__Launcher11qt_metacallEN11QMetaObject4CallEiPPv
libdframeworkdbus.so.2:_ZN10__Launcher11qt_metacastEPKc
libdframeworkdbus.so.2:_ZN10__Launcher14VisibleChangedEb
libdframeworkdbus.so.2:_ZN10__Launcher17onPropertyChangedERK7QStringRK8QVariant
libdframeworkdbus.so.2:_ZN10__Launcher21onPendingCallFinishedEP23QDBusPendingCallWatcher
libdframeworkdbus.so.2:_ZN10__Launcher5ShownEv
libdframeworkdbus.so.2:_ZN10__Launcher6ClosedEv
libdframeworkdbus.so.2:_ZN10__Launcher7visibleEv
libdframeworkdbus.so.2:_ZN10__LauncherC1ERK7QStringS2_RK15QDBusConnectionP7QObject
libdframeworkdbus.so.2:_ZN10__LauncherC2ERK7QStringS2_RK15QDBusConnectionP7QObject
libdframeworkdbus.so.2:_ZN10__LauncherD0Ev
libdframeworkdbus.so.2:_ZN10__LauncherD1Ev
libdframeworkdbus.so.2:_ZN10__LauncherD2Ev
libdframeworkdbus.so.2:_ZN10__Metadata10CallQueuedERK7QStringRK5QListI8QVariantE
libdframeworkdbus.so.2:_ZN10__Metadata11qt_metacallEN11QMetaObject4CallEiPPv
libdframeworkdbus.so.2:_ZN10__Metadata11qt_metacastEPKc
libdframeworkdbus.so.2:_ZN10__Metadata21onPendingCallFinishedEP23QDBusPendingCallWatcher
libdframeworkdbus.so.2:_ZN10__MetadataC1ERK7QStringS2_RK15QDBusConnectionP7QObject
libdframeworkdbus.so.2:_ZN10__MetadataC2ERK7QStringS2_RK15QDBusConnectionP7QObject
libdframeworkdbus.so.2:_ZN10__MetadataD0Ev
libdframeworkdbus.so.2:_ZN10__MetadataD1Ev
libdframeworkdbus.so.2:_ZN10__MetadataD2Ev
libdframeworkdbus.so.2:_ZN10__Miracast10CallQueuedERK7QStringRK5QListI8QVariantE
libdframeworkdbus.so.2:_ZN10__Miracast11qt_metacallEN11QMetaObject4CallEiPPv
libdframeworkdbus.so.2:_ZN10__Miracast11qt_metacastEPKc
libdframeworkdbus.so.2:_ZN10__Miracast21onPendingCallFinishedEP23QDBusPendingCallWatcher
libdframeworkdbus.so.2:_ZN10__Miracast5AddedERK15QDBusObjectPathRK7QString
libdframeworkdbus.so.2:_ZN10__Miracast5EventEhRK15QDBusObjectPath
libdframeworkdbus.so.2:_ZN10__Miracast7RemovedERK15QDBusObjectPathRK7QString
libdframeworkdbus.so.2:_ZN10__MiracastC1ERK7QStringS2_RK15QDBusConnectionP7QObject
libdframeworkdbus.so.2:_ZN10__MiracastC2ERK7QStringS2_RK15QDBusConnectionP7QObject
libdframeworkdbus.so.2:_ZN10__MiracastD0Ev
libdframeworkdbus.so.2:_ZN10__MiracastD1Ev
libdframeworkdbus.so.2:_ZN10__MiracastD2Ev
libdframeworkdbus.so.2:_ZN10__Timedate10CallQueuedERK7QStringRK5QListI8QVariantE
libdframeworkdbus.so.2:_ZN10__Timedate11qt_metacallEN11QMetaObject4CallEiPPv
libdframeworkdbus.so.2:_ZN10__Timedate11qt_metacastEPKc
libdframeworkdbus.so.2:_ZN10__Timedate12setDSTOffsetEi
libdframeworkdbus.so.2:_ZN10__Timedate13userTimezonesEv
libdframeworkdbus.so.2:_ZN10__Timedate15use24HourFormatEv
libdframeworkdbus.so.2:_ZN10__Timedate17onPropertyChangedERK7QStringRK8QVariant
libdframeworkdbus.so.2:_ZN10__Timedate18setUse24HourFormatEb
libdframeworkdbus.so.2:_ZN10__Timedate21onPendingCallFinishedEP23QDBusPendingCallWatcher
libdframeworkdbus.so.2:_ZN10__Timedate3nTPEv
libdframeworkdbus.so.2:_ZN10__Timedate6canNTPEv
libdframeworkdbus.so.2:_ZN10__Timedate8localRTCEv
libdframeworkdbus.so.2:_ZN10__Timedate8timezoneEv
libdframeworkdbus.so.2:_ZN10__Timedate9dSTOffsetEv
libdframeworkdbus.so.2:_ZN10__TimedateC1ERK7QStringS2_RK15QDBusConnectionP7QObject
libdframeworkdbus.so.2:_ZN10__TimedateC2ERK7QStringS2_RK15QDBusConnectionP7QObject
libdframeworkdbus.so.2:_ZN10__TimedateD0Ev
libdframeworkdbus.so.2:_ZN10__TimedateD1Ev
libdframeworkdbus.so.2:_ZN10__TimedateD2Ev
libdframeworkdbus.so.2:_ZN10__TouchPad10CallQueuedERK7QStringRK5QListI8QVariantE
libdframeworkdbus.so.2:_ZN10__TouchPad10deviceListEv
libdframeworkdbus.so.2:_ZN10__TouchPad10edgeScrollEv
libdframeworkdbus.so.2:_ZN10__TouchPad10leftHandedEv
libdframeworkdbus.so.2:_ZN10__TouchPad10palmDetectEv
libdframeworkdbus.so.2:_ZN10__TouchPad10tPadEnableEv
libdframeworkdbus.so.2:_ZN10__TouchPad10vertScrollEv
libdframeworkdbus.so.2:_ZN10__TouchPad11deltaScrollEv
libdframeworkdbus.so.2:_ZN10__TouchPad11doubleClickEv
libdframeworkdbus.so.2:_ZN10__TouchPad11horizScrollEv
libdframeworkdbus.so.2:_ZN10__TouchPad11qt_metacallEN11QMetaObject4CallEiPPv
libdframeworkdbus.so.2:_ZN10__TouchPad11qt_metacastEPKc
libdframeworkdbus.so.2:_ZN10__TouchPad11setPalmMinZEi
libdframeworkdbus.so.2:_ZN10__TouchPad11setTapClickEb
libdframeworkdbus.so.2:_ZN10__TouchPad12palmMinWidthEv
libdframeworkdbus.so.2:_ZN10__TouchPad13dragThresholdEv
libdframeworkdbus.so.2:_ZN10__TouchPad13motionScalingEv
libdframeworkdbus.so.2:_ZN10__TouchPad13naturalScrollEv
libdframeworkdbus.so.2:_ZN10__TouchPad13setEdgeScrollEb
libdframeworkdbus.so.2:_ZN10__TouchPad13setLeftHandedEb
libdframeworkdbus.so.2:_ZN10__TouchPad13setPalmDetectEb
libdframeworkdbus.so.2:_ZN10__TouchPad13setTPadEnableEb
libdframeworkdbus.so.2:_ZN10__TouchPad13setVertScrollEb
libdframeworkdbus.so.2:_ZN10__TouchPad14setDeltaScrollEi
libdframeworkdbus.so.2:_ZN10__TouchPad14setDoubleClickEi
libdframeworkdbus.so.2:_ZN10__TouchPad14setHorizScrollEb
libdframeworkdbus.so.2:_ZN10__TouchPad15disableIfTypingEv
libdframeworkdbus.so.2:_ZN10__TouchPad15motionThresholdEv
libdframeworkdbus.so.2:_ZN10__TouchPad15setPalmMinWidthEi
libdframeworkdbus.so.2:_ZN10__TouchPad16setDragThresholdEi
libdframeworkdbus.so.2:_ZN10__TouchPad16setMotionScalingEd
libdframeworkdbus.so.2:_ZN10__TouchPad16setNaturalScrollEb
libdframeworkdbus.so.2:_ZN10__TouchPad17onPropertyChangedERK7QStringRK8QVariant
libdframeworkdbus.so.2:_ZN10__TouchPad18motionAccelerationEv
libdframeworkdbus.so.2:_ZN10__TouchPad18setDisableIfTypingEb
libdframeworkdbus.so.2:_ZN10__TouchPad18setMotionThresholdEd
libdframeworkdbus.so.2:_ZN10__TouchPad21onPendingCallFinishedEP23QDBusPendingCallWatcher
libdframeworkdbus.so.2:_ZN10__TouchPad21setMotionAccelerationEd
libdframeworkdbus.so.2:_ZN10__TouchPad5existEv
libdframeworkdbus.so.2:_ZN10__TouchPad8palmMinZEv
libdframeworkdbus.so.2:_ZN10__TouchPad8tapClickEv
libdframeworkdbus.so.2:_ZN10__TouchPadC1ERK7QStringS2_RK15QDBusConnectionP7QObject
libdframeworkdbus.so.2:_ZN10__TouchPadC2ERK7QStringS2_RK15QDBusConnectionP7QObject
libdframeworkdbus.so.2:_ZN10__TouchPadD0Ev
libdframeworkdbus.so.2:_ZN10__TouchPadD1Ev
libdframeworkdbus.so.2:_ZN10__TouchPadD2Ev
libdframeworkdbus.so.2:_ZN10__anything10CallQueuedERK7QStringRK5QListI8QVariantE
libdframeworkdbus.so.2:_ZN10__anything11qt_metacallEN11QMetaObject4CallEiPPv
libdframeworkdbus.so.2:_ZN10__anything11qt_metacastEPKc
libdframeworkdbus.so.2:_ZN10__anything11setLogLevelEi
libdframeworkdbus.so.2:_ZN10__anything15addPathFinishedERK7QStringb
libdframeworkdbus.so.2:_ZN10__anything17autoIndexExternalEv
libdframeworkdbus.so.2:_ZN10__anything17autoIndexInternalEv
libdframeworkdbus.so.2:_ZN10__anything17onPropertyChangedERK7QStringRK8QVariant
libdframeworkdbus.so.2:_ZN10__anything20setAutoIndexExternalEb
libdframeworkdbus.so.2:_ZN10__anything20setAutoIndexInternalEb
libdframeworkdbus.so.2:_ZN10__anything21onPendingCallFinishedEP23QDBusPendingCallWatcher
libdframeworkdbus.so.2:_ZN10__anything8logLevelEv
libdframeworkdbus.so.2:_ZN10__anythingC1ERK7QStringS2_RK15QDBusConnectionP7QObject
libdframeworkdbus.so.2:_ZN10__anythingC2ERK7QStringS2_RK15QDBusConnectionP7QObject
libdframeworkdbus.so.2:_ZN10__anythingD0Ev
libdframeworkdbus.so.2:_ZN10__anythingD1Ev
libdframeworkdbus.so.2:_ZN10__anythingD2Ev
libdframeworkdbus.so.2:_ZN10__deepinid10CallQueuedERK7QStringRK5QListI8QVariantE
libdframeworkdbus.so.2:_ZN10__deepinid10hardwareIDEv
libdframeworkdbus.so.2:_ZN10__deepinid11machineNameEv
libdframeworkdbus.so.2:_ZN10__deepinid11qt_metacallEN11QMetaObject4CallEiPPv
libdframeworkdbus.so.2:_ZN10__deepinid11qt_metacastEPKc
libdframeworkdbus.so.2:_ZN10__deepinid17onPropertyChangedERK7QStringRK8QVariant
libdframeworkdbus.so.2:_ZN10__deepinid21onPendingCallFinishedEP23QDBusPendingCallWatcher
libdframeworkdbus.so.2:_ZN10__deepinid8userInfoEv
libdframeworkdbus.so.2:_ZN10__deepinidC1ERK7QStringS2_RK15QDBusConnectionP7QObject
libdframeworkdbus.so.2:_ZN10__deepinidC2ERK7QStringS2_RK15QDBusConnectionP7QObject
libdframeworkdbus.so.2:_ZN10__deepinidD0Ev
libdframeworkdbus.so.2:_ZN10__deepinidD1Ev
libdframeworkdbus.so.2:_ZN10__deepinidD2Ev
libdframeworkdbus.so.2:_ZN11InputDeviceeqERKS_
libdframeworkdbus.so.2:_ZN11WacomDeviceeqERKS_
libdframeworkdbus.so.2:_ZN11__Bluetooth10CallQueuedERK7QStringRK5QListI8QVariantE
libdframeworkdbus.so.2:_ZN11__Bluetooth11DeviceAddedERK7QString
libdframeworkdbus.so.2:_ZN11__Bluetooth11qt_metacallEN11QMetaObject4CallEiPPv
libdframeworkdbus.so.2:_ZN11__Bluetooth11qt_metacastEPKc
libdframeworkdbus.so.2:_ZN11__Bluetooth12AdapterAddedERK7QString
libdframeworkdbus.so.2:_ZN11__Bluetooth13DeviceRemovedERK7QString
libdframeworkdbus.so.2:_ZN11__Bluetooth14AdapterRemovedERK7QString
libdframeworkdbus.so.2:_ZN11__Bluetooth14DisplayPasskeyERK15QDBusObjectPathjj
libdframeworkdbus.so.2:_ZN11__Bluetooth14DisplayPinCodeERK15QDBusObjectPathRK7QString
libdframeworkdbus.so.2:_ZN11__Bluetooth14RequestPasskeyERK15QDBusObjectPath
libdframeworkdbus.so.2:_ZN11__Bluetooth14RequestPinCodeERK15QDBusObjectPath
libdframeworkdbus.so.2:_ZN11__Bluetooth17onPropertyChangedERK7QStringRK8QVariant
libdframeworkdbus.so.2:_ZN11__Bluetooth19RequestConfirmationERK15QDBusObjectPathRK7QString
libdframeworkdbus.so.2:_ZN11__Bluetooth20RequestAuthorizationERK15QDBusObjectPath
libdframeworkdbus.so.2:_ZN11__Bluetooth21onPendingCallFinishedEP23QDBusPendingCallWatcher
libdframeworkdbus.so.2:_ZN11__Bluetooth23DevicePropertiesChangedERK7QString
libdframeworkdbus.so.2:_ZN11__Bluetooth24AdapterPropertiesChangedERK7QString
libdframeworkdbus.so.2:_ZN11__Bluetooth5stateEv
libdframeworkdbus.so.2:_ZN11__Bluetooth9CancelledERK15QDBusObjectPath
libdframeworkdbus.so.2:_ZN11__BluetoothC1ERK7QStringS2_RK15QDBusConnectionP7QObject
libdframeworkdbus.so.2:_ZN11__BluetoothC2ERK7QStringS2_RK15QDBusConnectionP7QObject
libdframeworkdbus.so.2:_ZN11__BluetoothD0Ev
libdframeworkdbus.so.2:_ZN11__BluetoothD1Ev
libdframeworkdbus.so.2:_ZN11__BluetoothD2Ev
libdframeworkdbus.so.2:_ZN11__ImageBlur10CallQueuedERK7QStringRK5QListI8QVariantE
libdframeworkdbus.so.2:_ZN11__ImageBlur11qt_metacallEN11QMetaObject4CallEiPPv
libdframeworkdbus.so.2:_ZN11__ImageBlur11qt_metacastEPKc
libdframeworkdbus.so.2:_ZN11__ImageBlur21onPendingCallFinishedEP23QDBusPendingCallWatcher
libdframeworkdbus.so.2:_ZN11__ImageBlur8BlurDoneERK7QStringS2_b
libdframeworkdbus.so.2:_ZN11__ImageBlurC1ERK7QStringS2_RK15QDBusConnectionP7QObject
libdframeworkdbus.so.2:_ZN11__ImageBlurC2ERK7QStringS2_RK15QDBusConnectionP7QObject
libdframeworkdbus.so.2:_ZN11__ImageBlurD0Ev
libdframeworkdbus.so.2:_ZN11__ImageBlurD1Ev
libdframeworkdbus.so.2:_ZN11__ImageBlurD2Ev
libdframeworkdbus.so.2:_ZN11__SinkInput10CallQueuedERK7QStringRK5QListI8QVariantE
libdframeworkdbus.so.2:_ZN11__SinkInput11qt_metacallEN11QMetaObject4CallEiPPv
libdframeworkdbus.so.2:_ZN11__SinkInput11qt_metacastEPKc
libdframeworkdbus.so.2:_ZN11__SinkInput11supportFadeEv
libdframeworkdbus.so.2:_ZN11__SinkInput14supportBalanceEv
libdframeworkdbus.so.2:_ZN11__SinkInput17onPropertyChangedERK7QStringRK8QVariant
libdframeworkdbus.so.2:_ZN11__SinkInput21onPendingCallFinishedEP23QDBusPendingCallWatcher
libdframeworkdbus.so.2:_ZN11__SinkInput4fadeEv
libdframeworkdbus.so.2:_ZN11__SinkInput4iconEv
libdframeworkdbus.so.2:_ZN11__SinkInput4muteEv
libdframeworkdbus.so.2:_ZN11__SinkInput4nameEv
libdframeworkdbus.so.2:_ZN11__SinkInput6volumeEv
libdframeworkdbus.so.2:_ZN11__SinkInput7balanceEv
libdframeworkdbus.so.2:_ZN11__SinkInputC1ERK7QStringS2_RK15QDBusConnectionP7QObject
libdframeworkdbus.so.2:_ZN11__SinkInputC2ERK7QStringS2_RK15QDBusConnectionP7QObject
libdframeworkdbus.so.2:_ZN11__SinkInputD0Ev
libdframeworkdbus.so.2:_ZN11__SinkInputD1Ev
libdframeworkdbus.so.2:_ZN11__SinkInputD2Ev
libdframeworkdbus.so.2:_ZN11__TabsLimit10CallQueuedERK7QStringRK5QListI8QVariantE
libdframeworkdbus.so.2:_ZN11__TabsLimit11qt_metacallEN11QMetaObject4CallEiPPv
libdframeworkdbus.so.2:_ZN11__TabsLimit11qt_metacastEPKc
libdframeworkdbus.so.2:_ZN11__TabsLimit21onPendingCallFinishedEP23QDBusPendingCallWatcher
libdframeworkdbus.so.2:_ZN11__TabsLimitC1ERK7QStringS2_RK15QDBusConnectionP7QObject
libdframeworkdbus.so.2:_ZN11__TabsLimitC2ERK7QStringS2_RK15QDBusConnectionP7QObject
libdframeworkdbus.so.2:_ZN11__TabsLimitD0Ev
libdframeworkdbus.so.2:_ZN11__TabsLimitD1Ev
libdframeworkdbus.so.2:_ZN11__TabsLimitD2Ev
libdframeworkdbus.so.2:_ZN12__Appearance10CallQueuedERK7QStringRK5QListI8QVariantE
libdframeworkdbus.so.2:_ZN12__Appearance10backgroundEv
libdframeworkdbus.so.2:_ZN12__Appearance10setOpacityEd
libdframeworkdbus.so.2:_ZN12__Appearance11cursorThemeEv
libdframeworkdbus.so.2:_ZN12__Appearance11qt_metacallEN11QMetaObject4CallEiPPv
libdframeworkdbus.so.2:_ZN12__Appearance11qt_metacastEPKc
libdframeworkdbus.so.2:_ZN12__Appearance11setFontSizeEd
libdframeworkdbus.so.2:_ZN12__Appearance11setGtkThemeERK7QString
libdframeworkdbus.so.2:_ZN12__Appearance12setIconThemeERK7QString
libdframeworkdbus.so.2:_ZN12__Appearance12standardFontEv
libdframeworkdbus.so.2:_ZN12__Appearance13monospaceFontEv
libdframeworkdbus.so.2:_ZN12__Appearance13setBackgroundERK7QString
libdframeworkdbus.so.2:_ZN12__Appearance14setCursorThemeERK7QString
libdframeworkdbus.so.2:_ZN12__Appearance15setStandardFontERK7QString
libdframeworkdbus.so.2:_ZN12__Appearance16setMonospaceFontERK7QString
libdframeworkdbus.so.2:_ZN12__Appearance17onPropertyChangedERK7QStringRK8QVariant
libdframeworkdbus.so.2:_ZN12__Appearance21onPendingCallFinishedEP23QDBusPendingCallWatcher
libdframeworkdbus.so.2:_ZN12__Appearance7ChangedERK7QStringS2_
libdframeworkdbus.so.2:_ZN12__Appearance7opacityEv
libdframeworkdbus.so.2:_ZN12__Appearance8fontSizeEv
libdframeworkdbus.so.2:_ZN12__Appearance8gtkThemeEv
libdframeworkdbus.so.2:_ZN12__Appearance9RefreshedERK7QString
libdframeworkdbus.so.2:_ZN12__Appearance9iconThemeEv
libdframeworkdbus.so.2:_ZN12__AppearanceC1ERK7QStringS2_RK15QDBusConnectionP7QObject
libdframeworkdbus.so.2:_ZN12__AppearanceC2ERK7QStringS2_RK15QDBusConnectionP7QObject
libdframeworkdbus.so.2:_ZN12__AppearanceD0Ev
libdframeworkdbus.so.2:_ZN12__AppearanceD1Ev
libdframeworkdbus.so.2:_ZN12__AppearanceD2Ev
libdframeworkdbus.so.2:_ZN12__JobManager10CallQueuedERK7QStringRK5QListI8QVariantE
libdframeworkdbus.so.2:_ZN12__JobManager11qt_metacallEN11QMetaObject4CallEiPPv
libdframeworkdbus.so.2:_ZN12__JobManager11qt_metacastEPKc
libdframeworkdbus.so.2:_ZN12__JobManager14upgradableAppsEv
libdframeworkdbus.so.2:_ZN12__JobManager16systemOnChangingEv
libdframeworkdbus.so.2:_ZN12__JobManager17onPropertyChangedERK7QStringRK8QVariant
libdframeworkdbus.so.2:_ZN12__JobManager19systemArchitecturesEv
libdframeworkdbus.so.2:_ZN12__JobManager21onPendingCallFinishedEP23QDBusPendingCallWatcher
libdframeworkdbus.so.2:_ZN12__JobManager7jobListEv
libdframeworkdbus.so.2:_ZN12__JobManager9autoCleanEv
libdframeworkdbus.so.2:_ZN12__JobManagerC1ERK7QStringS2_RK15QDBusConnectionP7QObject
libdframeworkdbus.so.2:_ZN12__JobManagerC2ERK7QStringS2_RK15QDBusConnectionP7QObject
libdframeworkdbus.so.2:_ZN12__JobManagerD0Ev
libdframeworkdbus.so.2:_ZN12__JobManagerD1Ev
libdframeworkdbus.so.2:_ZN12__JobManagerD2Ev
libdframeworkdbus.so.2:_ZN12__Keybinding10CallQueuedERK7QStringRK5QListI8QVariantE
libdframeworkdbus.so.2:_ZN12__Keybinding11qt_metacallEN11QMetaObject4CallEiPPv
libdframeworkdbus.so.2:_ZN12__Keybinding11qt_metacastEPKc
libdframeworkdbus.so.2:_ZN12__Keybinding12numLockStateEv
libdframeworkdbus.so.2:_ZN12__Keybinding17onPropertyChangedERK7QStringRK8QVariant
libdframeworkdbus.so.2:_ZN12__Keybinding20shortcutSwitchLayoutEv
libdframeworkdbus.so.2:_ZN12__Keybinding21onPendingCallFinishedEP23QDBusPendingCallWatcher
libdframeworkdbus.so.2:_ZN12__Keybinding23setShortcutSwitchLayoutEj
libdframeworkdbus.so.2:_ZN12__Keybinding5AddedERK7QStringi
libdframeworkdbus.so.2:_ZN12__Keybinding7ChangedERK7QStringi
libdframeworkdbus.so.2:_ZN12__Keybinding7DeletedERK7QStringi
libdframeworkdbus.so.2:_ZN12__Keybinding8KeyEventEbRK7QString
libdframeworkdbus.so.2:_ZN12__KeybindingC1ERK7QStringS2_RK15QDBusConnectionP7QObject
libdframeworkdbus.so.2:_ZN12__KeybindingC2ERK7QStringS2_RK15QDBusConnectionP7QObject
libdframeworkdbus.so.2:_ZN12__KeybindingD0Ev
libdframeworkdbus.so.2:_ZN12__KeybindingD1Ev
libdframeworkdbus.so.2:_ZN12__KeybindingD2Ev
libdframeworkdbus.so.2:_ZN12__PolicyKit110CallQueuedERK7QStringRK5QListI8QVariantE
libdframeworkdbus.so.2:_ZN12__PolicyKit111backendNameEv
libdframeworkdbus.so.2:_ZN12__PolicyKit111qt_metacallEN11QMetaObject4CallEiPPv
libdframeworkdbus.so.2:_ZN12__PolicyKit111qt_metacastEPKc
libdframeworkdbus.so.2:_ZN12__PolicyKit114backendVersionEv
libdframeworkdbus.so.2:_ZN12__PolicyKit115backendFeaturesEv
libdframeworkdbus.so.2:_ZN12__PolicyKit117onPropertyChangedERK7QStringRK8QVariant
libdframeworkdbus.so.2:_ZN12__PolicyKit121onPendingCallFinishedEP23QDBusPendingCallWatcher
libdframeworkdbus.so.2:_ZN12__PolicyKit17ChangedEv
libdframeworkdbus.so.2:_ZN12__PolicyKit1C1ERK7QStringS2_RK15QDBusConnectionP7QObject
libdframeworkdbus.so.2:_ZN12__PolicyKit1C2ERK7QStringS2_RK15QDBusConnectionP7QObject
libdframeworkdbus.so.2:_ZN12__PolicyKit1D0Ev
libdframeworkdbus.so.2:_ZN12__PolicyKit1D1Ev
libdframeworkdbus.so.2:_ZN12__PolicyKit1D2Ev
libdframeworkdbus.so.2:_ZN12__SystemInfo10CallQueuedERK7QStringRK5QListI8QVariantE
libdframeworkdbus.so.2:_ZN12__SystemInfo10distroDescEv
libdframeworkdbus.so.2:_ZN12__SystemInfo10systemTypeEv
libdframeworkdbus.so.2:_ZN12__SystemInfo11qt_metacallEN11QMetaObject4CallEiPPv
libdframeworkdbus.so.2:_ZN12__SystemInfo11qt_metacastEPKc
libdframeworkdbus.so.2:_ZN12__SystemInfo17onPropertyChangedERK7QStringRK8QVariant
libdframeworkdbus.so.2:_ZN12__SystemInfo21onPendingCallFinishedEP23QDBusPendingCallWatcher
libdframeworkdbus.so.2:_ZN12__SystemInfo7diskCapEv
libdframeworkdbus.so.2:_ZN12__SystemInfo7versionEv
libdframeworkdbus.so.2:_ZN12__SystemInfo8distroIDEv
libdframeworkdbus.so.2:_ZN12__SystemInfo9distroVerEv
libdframeworkdbus.so.2:_ZN12__SystemInfo9memoryCapEv
libdframeworkdbus.so.2:_ZN12__SystemInfo9processorEv
libdframeworkdbus.so.2:_ZN12__SystemInfoC1ERK7QStringS2_RK15QDBusConnectionP7QObject
libdframeworkdbus.so.2:_ZN12__SystemInfoC2ERK7QStringS2_RK15QDBusConnectionP7QObject
libdframeworkdbus.so.2:_ZN12__SystemInfoD0Ev
libdframeworkdbus.so.2:_ZN12__SystemInfoD1Ev
libdframeworkdbus.so.2:_ZN12__SystemInfoD2Ev
libdframeworkdbus.so.2:_ZN12__TrackPoint10CallQueuedERK7QStringRK5QListI8QVariantE
libdframeworkdbus.so.2:_ZN12__TrackPoint10deviceListEv
libdframeworkdbus.so.2:_ZN12__TrackPoint10leftHandedEv
libdframeworkdbus.so.2:_ZN12__TrackPoint11qt_metacallEN11QMetaObject4CallEiPPv
libdframeworkdbus.so.2:_ZN12__TrackPoint11qt_metacastEPKc
libdframeworkdbus.so.2:_ZN12__TrackPoint13motionScalingEv
libdframeworkdbus.so.2:_ZN12__TrackPoint13setLeftHandedEb
libdframeworkdbus.so.2:_ZN12__TrackPoint14wheelEmulationEv
libdframeworkdbus.so.2:_ZN12__TrackPoint15motionThresholdEv
libdframeworkdbus.so.2:_ZN12__TrackPoint16setMotionScalingEd
libdframeworkdbus.so.2:_ZN12__TrackPoint16wheelHorizScrollEv
libdframeworkdbus.so.2:_ZN12__TrackPoint17onPropertyChangedERK7QStringRK8QVariant
libdframeworkdbus.so.2:_ZN12__TrackPoint17setWheelEmulationEb
libdframeworkdbus.so.2:_ZN12__TrackPoint18motionAccelerationEv
libdframeworkdbus.so.2:_ZN12__TrackPoint18setMotionThresholdEd
libdframeworkdbus.so.2:_ZN12__TrackPoint19middleButtonEnabledEv
libdframeworkdbus.so.2:_ZN12__TrackPoint19middleButtonTimeoutEv
libdframeworkdbus.so.2:_ZN12__TrackPoint19setWheelHorizScrollEb
libdframeworkdbus.so.2:_ZN12__TrackPoint20wheelEmulationButtonEv
libdframeworkdbus.so.2:_ZN12__TrackPoint21onPendingCallFinishedEP23QDBusPendingCallWatcher
libdframeworkdbus.so.2:_ZN12__TrackPoint21setMotionAccelerationEd
libdframeworkdbus.so.2:_ZN12__TrackPoint21wheelEmulationTimeoutEv
libdframeworkdbus.so.2:_ZN12__TrackPoint22setMiddleButtonEnabledEb
libdframeworkdbus.so.2:_ZN12__TrackPoint22setMiddleButtonTimeoutEi
libdframeworkdbus.so.2:_ZN12__TrackPoint23setWheelEmulationButtonEi
libdframeworkdbus.so.2:_ZN12__TrackPoint24setWheelEmulationTimeoutEi
libdframeworkdbus.so.2:_ZN12__TrackPoint5existEv
libdframeworkdbus.so.2:_ZN12__TrackPointC1ERK7QStringS2_RK15QDBusConnectionP7QObject
libdframeworkdbus.so.2:_ZN12__TrackPointC2ERK7QStringS2_RK15QDBusConnectionP7QObject
libdframeworkdbus.so.2:_ZN12__TrackPointD0Ev
libdframeworkdbus.so.2:_ZN12__TrackPointD1Ev
libdframeworkdbus.so.2:_ZN12__TrackPointD2Ev
libdframeworkdbus.so.2:_ZN12__WMSwitcher10CallQueuedERK7QStringRK5QListI8QVariantE
libdframeworkdbus.so.2:_ZN12__WMSwitcher11qt_metacallEN11QMetaObject4CallEiPPv
libdframeworkdbus.so.2:_ZN12__WMSwitcher11qt_metacastEPKc
libdframeworkdbus.so.2:_ZN12__WMSwitcher21onPendingCallFinishedEP23QDBusPendingCallWatcher
libdframeworkdbus.so.2:_ZN12__WMSwitcher9WMChangedERK7QString
libdframeworkdbus.so.2:_ZN12__WMSwitcherC1ERK7QStringS2_RK15QDBusConnectionP7QObject
libdframeworkdbus.so.2:_ZN12__WMSwitcherC2ERK7QStringS2_RK15QDBusConnectionP7QObject
libdframeworkdbus.so.2:_ZN12__WMSwitcherD0Ev
libdframeworkdbus.so.2:_ZN12__WMSwitcherD1Ev
libdframeworkdbus.so.2:_ZN12__WMSwitcherD2Ev
libdframeworkdbus.so.2:_ZN13AppUpdateInfoC1Ev
libdframeworkdbus.so.2:_ZN13AppUpdateInfoC2Ev
libdframeworkdbus.so.2:_ZN13ChromeTabInfoeqERKS_
libdframeworkdbus.so.2:_ZN13__ProxyChains10CallQueuedERK7QStringRK5QListI8QVariantE
libdframeworkdbus.so.2:_ZN13__ProxyChains11qt_metacallEN11QMetaObject4CallEiPPv
libdframeworkdbus.so.2:_ZN13__ProxyChains11qt_metacastEPKc
libdframeworkdbus.so.2:_ZN13__ProxyChains17onPropertyChangedERK7QStringRK8QVariant
libdframeworkdbus.so.2:_ZN13__ProxyChains21onPendingCallFinishedEP23QDBusPendingCallWatcher
libdframeworkdbus.so.2:_ZN13__ProxyChains2iPEv
libdframeworkdbus.so.2:_ZN13__ProxyChains4portEv
libdframeworkdbus.so.2:_ZN13__ProxyChains4typeEv
libdframeworkdbus.so.2:_ZN13__ProxyChains4userEv
libdframeworkdbus.so.2:_ZN13__ProxyChains8passwordEv
libdframeworkdbus.so.2:_ZN13__ProxyChainsC1ERK7QStringS2_RK15QDBusConnectionP7QObject
libdframeworkdbus.so.2:_ZN13__ProxyChainsC2ERK7QStringS2_RK15QDBusConnectionP7QObject
libdframeworkdbus.so.2:_ZN13__ProxyChainsD0Ev
libdframeworkdbus.so.2:_ZN13__ProxyChainsD1Ev
libdframeworkdbus.so.2:_ZN13__ProxyChainsD2Ev
libdframeworkdbus.so.2:_ZN13__Smartmirror10CallQueuedERK7QStringRK5QListI8QVariantE
libdframeworkdbus.so.2:_ZN13__Smartmirror11qt_metacallEN11QMetaObject4CallEiPPv
libdframeworkdbus.so.2:_ZN13__Smartmirror11qt_metacastEPKc
libdframeworkdbus.so.2:_ZN13__Smartmirror17onPropertyChangedERK7QStringRK8QVariant
libdframeworkdbus.so.2:_ZN13__Smartmirror21onPendingCallFinishedEP23QDBusPendingCallWatcher
libdframeworkdbus.so.2:_ZN13__Smartmirror6enableEv
libdframeworkdbus.so.2:_ZN13__SmartmirrorC1ERK7QStringS2_RK15QDBusConnectionP7QObject
libdframeworkdbus.so.2:_ZN13__SmartmirrorC2ERK7QStringS2_RK15QDBusConnectionP7QObject
libdframeworkdbus.so.2:_ZN13__SmartmirrorD0Ev
libdframeworkdbus.so.2:_ZN13__SmartmirrorD1Ev
libdframeworkdbus.so.2:_ZN13__SmartmirrorD2Ev
libdframeworkdbus.so.2:_ZN13__SoundEffect10CallQueuedERK7QStringRK5QListI8QVariantE
libdframeworkdbus.so.2:_ZN13__SoundEffect10setEnabledEb
libdframeworkdbus.so.2:_ZN13__SoundEffect11qt_metacallEN11QMetaObject4CallEiPPv
libdframeworkdbus.so.2:_ZN13__SoundEffect11qt_metacastEPKc
libdframeworkdbus.so.2:_ZN13__SoundEffect17onPropertyChangedERK7QStringRK8QVariant
libdframeworkdbus.so.2:_ZN13__SoundEffect21onPendingCallFinishedEP23QDBusPendingCallWatcher
libdframeworkdbus.so.2:_ZN13__SoundEffect7enabledEv
libdframeworkdbus.so.2:_ZN13__SoundEffectC1ERK7QStringS2_RK15QDBusConnectionP7QObject
libdframeworkdbus.so.2:_ZN13__SoundEffectC2ERK7QStringS2_RK15QDBusConnectionP7QObject
libdframeworkdbus.so.2:_ZN13__SoundEffectD0Ev
libdframeworkdbus.so.2:_ZN13__SoundEffectD1Ev
libdframeworkdbus.so.2:_ZN13__SoundEffectD2Ev
libdframeworkdbus.so.2:_ZN13__SystemPower10CallQueuedERK7QStringRK5QListI8QVariantE
libdframeworkdbus.so.2:_ZN13__SystemPower10hasBatteryEv
libdframeworkdbus.so.2:_ZN13__SystemPower11qt_metacallEN11QMetaObject4CallEiPPv
libdframeworkdbus.so.2:_ZN13__SystemPower11qt_metacastEPKc
libdframeworkdbus.so.2:_ZN13__SystemPower12BatteryAddedERK15QDBusObjectPath
libdframeworkdbus.so.2:_ZN13__SystemPower12hasLidSwitchEv
libdframeworkdbus.so.2:_ZN13__SystemPower13batteryStatusEv
libdframeworkdbus.so.2:_ZN13__SystemPower14BatteryRemovedERK15QDBusObjectPath
libdframeworkdbus.so.2:_ZN13__SystemPower17batteryPercentageEv
libdframeworkdbus.so.2:_ZN13__SystemPower17batteryTimeToFullEv
libdframeworkdbus.so.2:_ZN13__SystemPower17onPropertyChangedERK7QStringRK8QVariant
libdframeworkdbus.so.2:_ZN13__SystemPower18batteryTimeToEmptyEv
libdframeworkdbus.so.2:_ZN13__SystemPower19powerSavingModeAutoEv
libdframeworkdbus.so.2:_ZN13__SystemPower20BatteryDisplayUpdateEx
libdframeworkdbus.so.2:_ZN13__SystemPower21onPendingCallFinishedEP23QDBusPendingCallWatcher
libdframeworkdbus.so.2:_ZN13__SystemPower22powerSavingModeEnabledEv
libdframeworkdbus.so.2:_ZN13__SystemPower22setPowerSavingModeAutoEb
libdframeworkdbus.so.2:_ZN13__SystemPower25setPowerSavingModeEnabledEb
libdframeworkdbus.so.2:_ZN13__SystemPower9LidClosedEv
libdframeworkdbus.so.2:_ZN13__SystemPower9LidOpenedEv
libdframeworkdbus.so.2:_ZN13__SystemPower9onBatteryEv
libdframeworkdbus.so.2:_ZN13__SystemPowerC1ERK7QStringS2_RK15QDBusConnectionP7QObject
libdframeworkdbus.so.2:_ZN13__SystemPowerC2ERK7QStringS2_RK15QDBusConnectionP7QObject
libdframeworkdbus.so.2:_ZN13__SystemPowerD0Ev
libdframeworkdbus.so.2:_ZN13__SystemPowerD1Ev
libdframeworkdbus.so.2:_ZN13__SystemPowerD2Ev
libdframeworkdbus.so.2:_ZN14__InputDevices10CallQueuedERK7QStringRK5QListI8QVariantE
libdframeworkdbus.so.2:_ZN14__InputDevices10wheelSpeedEv
libdframeworkdbus.so.2:_ZN14__InputDevices11qt_metacallEN11QMetaObject4CallEiPPv
libdframeworkdbus.so.2:_ZN14__InputDevices11qt_metacastEPKc
libdframeworkdbus.so.2:_ZN14__InputDevices13setWheelSpeedEj
libdframeworkdbus.so.2:_ZN14__InputDevices17onPropertyChangedERK7QStringRK8QVariant
libdframeworkdbus.so.2:_ZN14__InputDevices21onPendingCallFinishedEP23QDBusPendingCallWatcher
libdframeworkdbus.so.2:_ZN14__InputDevices5infosEv
libdframeworkdbus.so.2:_ZN14__InputDevicesC1ERK7QStringS2_RK15QDBusConnectionP7QObject
libdframeworkdbus.so.2:_ZN14__InputDevicesC2ERK7QStringS2_RK15QDBusConnectionP7QObject
libdframeworkdbus.so.2:_ZN14__InputDevicesD0Ev
libdframeworkdbus.so.2:_ZN14__InputDevicesD1Ev
libdframeworkdbus.so.2:_ZN14__InputDevicesD2Ev
libdframeworkdbus.so.2:_ZN14__LangSelector10CallQueuedERK7QStringRK5QListI8QVariantE
libdframeworkdbus.so.2:_ZN14__LangSelector11localeStateEv
libdframeworkdbus.so.2:_ZN14__LangSelector11qt_metacallEN11QMetaObject4CallEiPPv
libdframeworkdbus.so.2:_ZN14__LangSelector11qt_metacastEPKc
libdframeworkdbus.so.2:_ZN14__LangSelector13currentLocaleEv
libdframeworkdbus.so.2:_ZN14__LangSelector17onPropertyChangedERK7QStringRK8QVariant
libdframeworkdbus.so.2:_ZN14__LangSelector21onPendingCallFinishedEP23QDBusPendingCallWatcher
libdframeworkdbus.so.2:_ZN14__LangSelector7ChangedERK7QString
libdframeworkdbus.so.2:_ZN14__LangSelectorC1ERK7QStringS2_RK15QDBusConnectionP7QObject
libdframeworkdbus.so.2:_ZN14__LangSelectorC2ERK7QStringS2_RK15QDBusConnectionP7QObject
libdframeworkdbus.so.2:_ZN14__LangSelectorD0Ev
libdframeworkdbus.so.2:_ZN14__LangSelectorD1Ev
libdframeworkdbus.so.2:_ZN14__LangSelectorD2Ev
libdframeworkdbus.so.2:_ZN14__Notification10CallQueuedERK7QStringRK5QListI8QVariantE
libdframeworkdbus.so.2:_ZN14__Notification11RecordAddedERK7QString
libdframeworkdbus.so.2:_ZN14__Notification11qt_metacallEN11QMetaObject4CallEiPPv
libdframeworkdbus.so.2:_ZN14__Notification11qt_metacastEPKc
libdframeworkdbus.so.2:_ZN14__Notification13ActionInvokedEjRK7QString
libdframeworkdbus.so.2:_ZN14__Notification18NotificationClosedEjj
libdframeworkdbus.so.2:_ZN14__Notification21onPendingCallFinishedEP23QDBusPendingCallWatcher
libdframeworkdbus.so.2:_ZN14__NotificationC1ERK7QStringS2_RK15QDBusConnectionP7QObject
libdframeworkdbus.so.2:_ZN14__NotificationC2ERK7QStringS2_RK15QDBusConnectionP7QObject
libdframeworkdbus.so.2:_ZN14__NotificationD0Ev
libdframeworkdbus.so.2:_ZN14__NotificationD1Ev
libdframeworkdbus.so.2:_ZN14__NotificationD2Ev
libdframeworkdbus.so.2:_ZN14__StartManager10CallQueuedERK7QStringRK5QListI8QVariantE
libdframeworkdbus.so.2:_ZN14__StartManager11qt_metacallEN11QMetaObject4CallEiPPv
libdframeworkdbus.so.2:_ZN14__StartManager11qt_metacastEPKc
libdframeworkdbus.so.2:_ZN14__StartManager12neededMemoryEv
libdframeworkdbus.so.2:_ZN14__StartManager16AutostartChangedERK7QStringS2_
libdframeworkdbus.so.2:_ZN14__StartManager17onPropertyChangedERK7QStringRK8QVariant
libdframeworkdbus.so.2:_ZN14__StartManager21onPendingCallFinishedEP23QDBusPendingCallWatcher
libdframeworkdbus.so.2:_ZN14__StartManagerC1ERK7QStringS2_RK15QDBusConnectionP7QObject
libdframeworkdbus.so.2:_ZN14__StartManagerC2ERK7QStringS2_RK15QDBusConnectionP7QObject
libdframeworkdbus.so.2:_ZN14__StartManagerD0Ev
libdframeworkdbus.so.2:_ZN14__StartManagerD1Ev
libdframeworkdbus.so.2:_ZN14__StartManagerD2Ev
libdframeworkdbus.so.2:_ZN15__Notifications10CallQueuedERK7QStringRK5QListI8QVariantE
libdframeworkdbus.so.2:_ZN15__Notifications11qt_metacallEN11QMetaObject4CallEiPPv
libdframeworkdbus.so.2:_ZN15__Notifications11qt_metacastEPKc
libdframeworkdbus.so.2:_ZN15__Notifications18NotificationClosedEjj
libdframeworkdbus.so.2:_ZN15__Notifications21onPendingCallFinishedEP23QDBusPendingCallWatcher
libdframeworkdbus.so.2:_ZN15__NotificationsC1ERK7QStringS2_RK15QDBusConnectionP7QObject
libdframeworkdbus.so.2:_ZN15__NotificationsC2ERK7QStringS2_RK15QDBusConnectionP7QObject
libdframeworkdbus.so.2:_ZN15__NotificationsD0Ev
libdframeworkdbus.so.2:_ZN15__NotificationsD1Ev
libdframeworkdbus.so.2:_ZN15__NotificationsD2Ev
libdframeworkdbus.so.2:_ZN15__XEventMonitor10CallQueuedERK7QStringRK5QListI8QVariantE
libdframeworkdbus.so.2:_ZN15__XEventMonitor10CursorIntoEiiRK7QString
libdframeworkdbus.so.2:_ZN15__XEventMonitor10CursorMoveEiiRK7QString
libdframeworkdbus.so.2:_ZN15__XEventMonitor10KeyReleaseERK7QStringiiS2_
libdframeworkdbus.so.2:_ZN15__XEventMonitor11ButtonPressEiiiRK7QString
libdframeworkdbus.so.2:_ZN15__XEventMonitor11qt_metacallEN11QMetaObject4CallEiPPv
libdframeworkdbus.so.2:_ZN15__XEventMonitor11qt_metacastEPKc
libdframeworkdbus.so.2:_ZN15__XEventMonitor13ButtonReleaseEiiiRK7QString
libdframeworkdbus.so.2:_ZN15__XEventMonitor13CancelAllAreaEv
libdframeworkdbus.so.2:_ZN15__XEventMonitor21onPendingCallFinishedEP23QDBusPendingCallWatcher
libdframeworkdbus.so.2:_ZN15__XEventMonitor8KeyPressERK7QStringiiS2_
libdframeworkdbus.so.2:_ZN15__XEventMonitor9CursorOutEiiRK7QString
libdframeworkdbus.so.2:_ZN15__XEventMonitorC1ERK7QStringS2_RK15QDBusConnectionP7QObject
libdframeworkdbus.so.2:_ZN15__XEventMonitorC2ERK7QStringS2_RK15QDBusConnectionP7QObject
libdframeworkdbus.so.2:_ZN15__XEventMonitorD0Ev
libdframeworkdbus.so.2:_ZN15__XEventMonitorD1Ev
libdframeworkdbus.so.2:_ZN15__XEventMonitorD2Ev
libdframeworkdbus.so.2:_ZN16__DisplayManager10CallQueuedERK7QStringRK5QListI8QVariantE
libdframeworkdbus.so.2:_ZN16__DisplayManager11SeatRemovedERK15QDBusObjectPath
libdframeworkdbus.so.2:_ZN16__DisplayManager11qt_metacallEN11QMetaObject4CallEiPPv
libdframeworkdbus.so.2:_ZN16__DisplayManager11qt_metacastEPKc
libdframeworkdbus.so.2:_ZN16__DisplayManager12SessionAddedERK15QDBusObjectPath
libdframeworkdbus.so.2:_ZN16__DisplayManager14SessionRemovedERK15QDBusObjectPath
libdframeworkdbus.so.2:_ZN16__DisplayManager17onPropertyChangedERK7QStringRK8QVariant
libdframeworkdbus.so.2:_ZN16__DisplayManager21onPendingCallFinishedEP23QDBusPendingCallWatcher
libdframeworkdbus.so.2:_ZN16__DisplayManager5seatsEv
libdframeworkdbus.so.2:_ZN16__DisplayManager8sessionsEv
libdframeworkdbus.so.2:_ZN16__DisplayManager9SeatAddedERK15QDBusObjectPath
libdframeworkdbus.so.2:_ZN16__DisplayManagerC1ERK7QStringS2_RK15QDBusConnectionP7QObject
libdframeworkdbus.so.2:_ZN16__DisplayManagerC2ERK7QStringS2_RK15QDBusConnectionP7QObject
libdframeworkdbus.so.2:_ZN16__DisplayManagerD0Ev
libdframeworkdbus.so.2:_ZN16__DisplayManagerD1Ev
libdframeworkdbus.so.2:_ZN16__DisplayManagerD2Ev
libdframeworkdbus.so.2:_ZN16__SessionManager10CallQueuedERK7QStringRK5QListI8QVariantE
libdframeworkdbus.so.2:_ZN16__SessionManager10currentUidEv
libdframeworkdbus.so.2:_ZN16__SessionManager11qt_metacallEN11QMetaObject4CallEiPPv
libdframeworkdbus.so.2:_ZN16__SessionManager11qt_metacastEPKc
libdframeworkdbus.so.2:_ZN16__SessionManager17onPropertyChangedERK7QStringRK8QVariant
libdframeworkdbus.so.2:_ZN16__SessionManager21onPendingCallFinishedEP23QDBusPendingCallWatcher
libdframeworkdbus.so.2:_ZN16__SessionManager5stageEv
libdframeworkdbus.so.2:_ZN16__SessionManager6lockedEv
libdframeworkdbus.so.2:_ZN16__SessionManagerC1ERK7QStringS2_RK15QDBusConnectionP7QObject
libdframeworkdbus.so.2:_ZN16__SessionManagerC2ERK7QStringS2_RK15QDBusConnectionP7QObject
libdframeworkdbus.so.2:_ZN16__SessionManagerD0Ev
libdframeworkdbus.so.2:_ZN16__SessionManagerD1Ev
libdframeworkdbus.so.2:_ZN16__SessionManagerD2Ev
libdframeworkdbus.so.2:_ZN19__ConnectionSession10CallQueuedERK7QStringRK5QListI8QVariantE
libdframeworkdbus.so.2:_ZN19__ConnectionSession11allowDeleteEv
libdframeworkdbus.so.2:_ZN19__ConnectionSession11qt_metacallEN11QMetaObject4CallEiPPv
libdframeworkdbus.so.2:_ZN19__ConnectionSession11qt_metacastEPKc
libdframeworkdbus.so.2:_ZN19__ConnectionSession13availableKeysEv
libdframeworkdbus.so.2:_ZN19__ConnectionSession14connectionPathEv
libdframeworkdbus.so.2:_ZN19__ConnectionSession17availableSectionsEv
libdframeworkdbus.so.2:_ZN19__ConnectionSession17onPropertyChangedERK7QStringRK8QVariant
libdframeworkdbus.so.2:_ZN19__ConnectionSession21ConnectionDataChangedEv
libdframeworkdbus.so.2:_ZN19__ConnectionSession21allowEditConnectionIdEv
libdframeworkdbus.so.2:_ZN19__ConnectionSession21onPendingCallFinishedEP23QDBusPendingCallWatcher
libdframeworkdbus.so.2:_ZN19__ConnectionSession24availableVirtualSectionsEv
libdframeworkdbus.so.2:_ZN19__ConnectionSession4typeEv
libdframeworkdbus.so.2:_ZN19__ConnectionSession4uuidEv
libdframeworkdbus.so.2:_ZN19__ConnectionSession6errorsEv
libdframeworkdbus.so.2:_ZN19__ConnectionSessionC1ERK7QStringS2_RK15QDBusConnectionP7QObject
libdframeworkdbus.so.2:_ZN19__ConnectionSessionC2ERK7QStringS2_RK15QDBusConnectionP7QObject
libdframeworkdbus.so.2:_ZN19__ConnectionSessionD0Ev
libdframeworkdbus.so.2:_ZN19__ConnectionSessionD1Ev
libdframeworkdbus.so.2:_ZN19__ConnectionSessionD2Ev
libdframeworkdbus.so.2:_ZN20__StatusNotifierItem10CallQueuedERK7QStringRK5QListI8QVariantE
libdframeworkdbus.so.2:_ZN20__StatusNotifierItem10NewToolTipEv
libdframeworkdbus.so.2:_ZN20__StatusNotifierItem10iconPixmapEv
libdframeworkdbus.so.2:_ZN20__StatusNotifierItem10itemIsMenuEv
libdframeworkdbus.so.2:_ZN20__StatusNotifierItem11qt_metacallEN11QMetaObject4CallEiPPv
libdframeworkdbus.so.2:_ZN20__StatusNotifierItem11qt_metacastEPKc
libdframeworkdbus.so.2:_ZN20__StatusNotifierItem13iconThemePathEv
libdframeworkdbus.so.2:_ZN20__StatusNotifierItem14NewOverlayIconEv
libdframeworkdbus.so.2:_ZN20__StatusNotifierItem15overlayIconNameEv
libdframeworkdbus.so.2:_ZN20__StatusNotifierItem16NewAttentionIconEv
libdframeworkdbus.so.2:_ZN20__StatusNotifierItem17attentionIconNameEv
libdframeworkdbus.so.2:_ZN20__StatusNotifierItem17onPropertyChangedERK7QStringRK8QVariant
libdframeworkdbus.so.2:_ZN20__StatusNotifierItem17overlayIconPixmapEv
libdframeworkdbus.so.2:_ZN20__StatusNotifierItem18attentionMovieNameEv
libdframeworkdbus.so.2:_ZN20__StatusNotifierItem19attentionIconPixmapEv
libdframeworkdbus.so.2:_ZN20__StatusNotifierItem21onPendingCallFinishedEP23QDBusPendingCallWatcher
libdframeworkdbus.so.2:_ZN20__StatusNotifierItem2idEv
libdframeworkdbus.so.2:_ZN20__StatusNotifierItem4menuEv
libdframeworkdbus.so.2:_ZN20__StatusNotifierItem5titleEv
libdframeworkdbus.so.2:_ZN20__StatusNotifierItem6statusEv
libdframeworkdbus.so.2:_ZN20__StatusNotifierItem7NewIconEv
libdframeworkdbus.so.2:_ZN20__StatusNotifierItem7toolTipEv
libdframeworkdbus.so.2:_ZN20__StatusNotifierItem8NewTitleEv
libdframeworkdbus.so.2:_ZN20__StatusNotifierItem8categoryEv
libdframeworkdbus.so.2:_ZN20__StatusNotifierItem8iconNameEv
libdframeworkdbus.so.2:_ZN20__StatusNotifierItem8windowIdEv
libdframeworkdbus.so.2:_ZN20__StatusNotifierItem9NewStatusERK7QString
libdframeworkdbus.so.2:_ZN20__StatusNotifierItemC1ERK7QStringS2_RK15QDBusConnectionP7QObject
libdframeworkdbus.so.2:_ZN20__StatusNotifierItemC2ERK7QStringS2_RK15QDBusConnectionP7QObject
libdframeworkdbus.so.2:_ZN20__StatusNotifierItemD0Ev
libdframeworkdbus.so.2:_ZN20__StatusNotifierItemD1Ev
libdframeworkdbus.so.2:_ZN20__StatusNotifierItemD2Ev
libdframeworkdbus.so.2:_ZN22__LastoreSessionHelper10CallQueuedERK7QStringRK5QListI8QVariantE
libdframeworkdbus.so.2:_ZN22__LastoreSessionHelper11qt_metacallEN11QMetaObject4CallEiPPv
libdframeworkdbus.so.2:_ZN22__LastoreSessionHelper11qt_metacastEPKc
libdframeworkdbus.so.2:_ZN22__LastoreSessionHelper17onPropertyChangedERK7QStringRK8QVariant
libdframeworkdbus.so.2:_ZN22__LastoreSessionHelper18sourceCheckEnabledEv
libdframeworkdbus.so.2:_ZN22__LastoreSessionHelper21onPendingCallFinishedEP23QDBusPendingCallWatcher
libdframeworkdbus.so.2:_ZN22__LastoreSessionHelperC1ERK7QStringS2_RK15QDBusConnectionP7QObject
libdframeworkdbus.so.2:_ZN22__LastoreSessionHelperC2ERK7QStringS2_RK15QDBusConnectionP7QObject
libdframeworkdbus.so.2:_ZN22__LastoreSessionHelperD0Ev
libdframeworkdbus.so.2:_ZN22__LastoreSessionHelperD1Ev
libdframeworkdbus.so.2:_ZN22__LastoreSessionHelperD2Ev
libdframeworkdbus.so.2:_ZN29DBusExtendedAbstractInterface10demarshallERK7QStringRK13QMetaPropertyRK8QVariantP10QDBusError
libdframeworkdbus.so.2:_ZN29DBusExtendedAbstractInterface11qt_metacallEN11QMetaObject4CallEiPPv
libdframeworkdbus.so.2:_ZN29DBusExtendedAbstractInterface11qt_metacastEPKc
libdframeworkdbus.so.2:_ZN29DBusExtendedAbstractInterface13asyncPropertyERK7QString
libdframeworkdbus.so.2:_ZN29DBusExtendedAbstractInterface13connectNotifyERK11QMetaMethod
libdframeworkdbus.so.2:_ZN29DBusExtendedAbstractInterface15internalPropGetEPKcPv
libdframeworkdbus.so.2:_ZN29DBusExtendedAbstractInterface15internalPropSetEPKcRK8QVariantPv
libdframeworkdbus.so.2:_ZN29DBusExtendedAbstractInterface15propertyChangedERK7QStringRK8QVariant
libdframeworkdbus.so.2:_ZN29DBusExtendedAbstractInterface16asyncSetPropertyERK7QStringRK8QVariant
libdframeworkdbus.so.2:_ZN29DBusExtendedAbstractInterface16disconnectNotifyERK11QMetaMethod
libdframeworkdbus.so.2:_ZN29DBusExtendedAbstractInterface16getAllPropertiesEv
libdframeworkdbus.so.2:_ZN29DBusExtendedAbstractInterface19onPropertiesChangedERK7QStringRK4QMapIS0_8QVariantERK11QStringList
libdframeworkdbus.so.2:_ZN29DBusExtendedAbstractInterface19propertyInvalidatedERK7QString
libdframeworkdbus.so.2:_ZN29DBusExtendedAbstractInterface19startServiceProcessEv
libdframeworkdbus.so.2:_ZN29DBusExtendedAbstractInterface21asyncPropertyFinishedERK7QString
libdframeworkdbus.so.2:_ZN29DBusExtendedAbstractInterface22onDBusNameOwnerChangedERK7QStringS2_S2_
libdframeworkdbus.so.2:_ZN29DBusExtendedAbstractInterface23onAsyncPropertyFinishedEP23QDBusPendingCallWatcher
libdframeworkdbus.so.2:_ZN29DBusExtendedAbstractInterface24asyncSetPropertyFinishedERK7QString
libdframeworkdbus.so.2:_ZN29DBusExtendedAbstractInterface26onAsyncSetPropertyFinishedEP23QDBusPendingCallWatcher
libdframeworkdbus.so.2:_ZN29DBusExtendedAbstractInterface29asyncGetAllPropertiesFinishedEv
libdframeworkdbus.so.2:_ZN29DBusExtendedAbstractInterface29onStartServiceProcessFinishedEP23QDBusPendingCallWatcher
libdframeworkdbus.so.2:_ZN29DBusExtendedAbstractInterface31onAsyncGetAllPropertiesFinishedEP23QDBusPendingCallWatcher
libdframeworkdbus.so.2:_ZN29DBusExtendedAbstractInterface7setSyncEb
libdframeworkdbus.so.2:_ZN29DBusExtendedAbstractInterface7setSyncEbb
libdframeworkdbus.so.2:_ZN29DBusExtendedAbstractInterfaceC1ERK7QStringS2_PKcRK15QDBusConnectionP7QObject
libdframeworkdbus.so.2:_ZN29DBusExtendedAbstractInterfaceC2ERK7QStringS2_PKcRK15QDBusConnectionP7QObject
libdframeworkdbus.so.2:_ZN29DBusExtendedAbstractInterfaceD0Ev
libdframeworkdbus.so.2:_ZN29DBusExtendedAbstractInterfaceD1Ev
libdframeworkdbus.so.2:_ZN29DBusExtendedAbstractInterfaceD2Ev
libdframeworkdbus.so.2:_ZN30DBusExtendedPendingCallWatcher11qt_metacallEN11QMetaObject4CallEiPPv
libdframeworkdbus.so.2:_ZN30DBusExtendedPendingCallWatcher11qt_metacastEPKc
libdframeworkdbus.so.2:_ZN30DBusExtendedPendingCallWatcherC1ERK16QDBusPendingCallRK7QStringRK8QVariantP7QObject
libdframeworkdbus.so.2:_ZN30DBusExtendedPendingCallWatcherC2ERK16QDBusPendingCallRK7QStringRK8QVariantP7QObject
libdframeworkdbus.so.2:_ZN30DBusExtendedPendingCallWatcherD0Ev
libdframeworkdbus.so.2:_ZN30DBusExtendedPendingCallWatcherD1Ev
libdframeworkdbus.so.2:_ZN30DBusExtendedPendingCallWatcherD2Ev
libdframeworkdbus.so.2:_ZN4__wm10CallQueuedERK7QStringRK5QListI8QVariantE
libdframeworkdbus.so.2:_ZN4__wm11qt_metacallEN11QMetaObject4CallEiPPv
libdframeworkdbus.so.2:_ZN4__wm11qt_metacastEPKc
libdframeworkdbus.so.2:_ZN4__wm14WorkspaceAddedEi
libdframeworkdbus.so.2:_ZN4__wm16WorkspaceRemovedEi
libdframeworkdbus.so.2:_ZN4__wm17WorkspaceSwitchedEii
libdframeworkdbus.so.2:_ZN4__wm21onPendingCallFinishedEP23QDBusPendingCallWatcher
libdframeworkdbus.so.2:_ZN4__wmC1ERK7QStringS2_RK15QDBusConnectionP7QObject
libdframeworkdbus.so.2:_ZN4__wmC2ERK7QStringS2_RK15QDBusConnectionP7QObject
libdframeworkdbus.so.2:_ZN4__wmD0Ev
libdframeworkdbus.so.2:_ZN4__wmD1Ev
libdframeworkdbus.so.2:_ZN4__wmD2Ev
libdframeworkdbus.so.2:_ZN5__Job10CallQueuedERK7QStringRK5QListI8QVariantE
libdframeworkdbus.so.2:_ZN5__Job10cancelableEv
libdframeworkdbus.so.2:_ZN5__Job10createTimeEv
libdframeworkdbus.so.2:_ZN5__Job11descriptionEv
libdframeworkdbus.so.2:_ZN5__Job11elapsedTimeEv
libdframeworkdbus.so.2:_ZN5__Job11qt_metacallEN11QMetaObject4CallEiPPv
libdframeworkdbus.so.2:_ZN5__Job11qt_metacastEPKc
libdframeworkdbus.so.2:_ZN5__Job17onPropertyChangedERK7QStringRK8QVariant
libdframeworkdbus.so.2:_ZN5__Job21onPendingCallFinishedEP23QDBusPendingCallWatcher
libdframeworkdbus.so.2:_ZN5__Job2idEv
libdframeworkdbus.so.2:_ZN5__Job4typeEv
libdframeworkdbus.so.2:_ZN5__Job5speedEv
libdframeworkdbus.so.2:_ZN5__Job6NotifyEi
libdframeworkdbus.so.2:_ZN5__Job6statusEv
libdframeworkdbus.so.2:_ZN5__Job8progressEv
libdframeworkdbus.so.2:_ZN5__Job9packageIdEv
libdframeworkdbus.so.2:_ZN5__JobC1ERK7QStringS2_RK15QDBusConnectionP7QObject
libdframeworkdbus.so.2:_ZN5__JobC2ERK7QStringS2_RK15QDBusConnectionP7QObject
libdframeworkdbus.so.2:_ZN5__JobD0Ev
libdframeworkdbus.so.2:_ZN5__JobD1Ev
libdframeworkdbus.so.2:_ZN5__JobD2Ev
libdframeworkdbus.so.2:_ZN6__Dock10CallQueuedERK7QStringRK5QListI8QVariantE
libdframeworkdbus.so.2:_ZN6__Dock10EntryAddedERK15QDBusObjectPathi
libdframeworkdbus.so.2:_ZN6__Dock10dockedAppsEv
libdframeworkdbus.so.2:_ZN6__Dock10setOpacityEd
libdframeworkdbus.so.2:_ZN6__Dock11displayModeEv
libdframeworkdbus.so.2:_ZN6__Dock11hideTimeoutEv
libdframeworkdbus.so.2:_ZN6__Dock11qt_metacallEN11QMetaObject4CallEiPPv
libdframeworkdbus.so.2:_ZN6__Dock11qt_metacastEPKc
libdframeworkdbus.so.2:_ZN6__Dock11setHideModeEi
libdframeworkdbus.so.2:_ZN6__Dock11setIconSizeEj
libdframeworkdbus.so.2:_ZN6__Dock11setPositionEi
libdframeworkdbus.so.2:_ZN6__Dock11showTimeoutEv
libdframeworkdbus.so.2:_ZN6__Dock12EntryRemovedERK7QString
libdframeworkdbus.so.2:_ZN6__Dock14setDisplayModeEi
libdframeworkdbus.so.2:_ZN6__Dock14setHideTimeoutEj
libdframeworkdbus.so.2:_ZN6__Dock14setShowTimeoutEj
libdframeworkdbus.so.2:_ZN6__Dock16ServiceRestartedEv
libdframeworkdbus.so.2:_ZN6__Dock17onPropertyChangedERK7QStringRK8QVariant
libdframeworkdbus.so.2:_ZN6__Dock18frontendWindowRectEv
libdframeworkdbus.so.2:_ZN6__Dock20PluginSettingsSyncedEv
libdframeworkdbus.so.2:_ZN6__Dock21onPendingCallFinishedEP23QDBusPendingCallWatcher
libdframeworkdbus.so.2:_ZN6__Dock7entriesEv
libdframeworkdbus.so.2:_ZN6__Dock7opacityEv
libdframeworkdbus.so.2:_ZN6__Dock8hideModeEv
libdframeworkdbus.so.2:_ZN6__Dock8iconSizeEv
libdframeworkdbus.so.2:_ZN6__Dock8positionEv
libdframeworkdbus.so.2:_ZN6__Dock9hideStateEv
libdframeworkdbus.so.2:_ZN6__DockC1ERK7QStringS2_RK15QDBusConnectionP7QObject
libdframeworkdbus.so.2:_ZN6__DockC2ERK7QStringS2_RK15QDBusConnectionP7QObject
libdframeworkdbus.so.2:_ZN6__DockD0Ev
libdframeworkdbus.so.2:_ZN6__DockD1Ev
libdframeworkdbus.so.2:_ZN6__DockD2Ev
libdframeworkdbus.so.2:_ZN6__Mime10CallQueuedERK7QStringRK5QListI8QVariantE
libdframeworkdbus.so.2:_ZN6__Mime11qt_metacallEN11QMetaObject4CallEiPPv
libdframeworkdbus.so.2:_ZN6__Mime11qt_metacastEPKc
libdframeworkdbus.so.2:_ZN6__Mime21onPendingCallFinishedEP23QDBusPendingCallWatcher
libdframeworkdbus.so.2:_ZN6__Mime6ChangeEv
libdframeworkdbus.so.2:_ZN6__MimeC1ERK7QStringS2_RK15QDBusConnectionP7QObject
libdframeworkdbus.so.2:_ZN6__MimeC2ERK7QStringS2_RK15QDBusConnectionP7QObject
libdframeworkdbus.so.2:_ZN6__MimeD0Ev
libdframeworkdbus.so.2:_ZN6__MimeD1Ev
libdframeworkdbus.so.2:_ZN6__MimeD2Ev
libdframeworkdbus.so.2:_ZN6__Seat10CallQueuedERK7QStringRK5QListI8QVariantE
libdframeworkdbus.so.2:_ZN6__Seat11qt_metacallEN11QMetaObject4CallEiPPv
libdframeworkdbus.so.2:_ZN6__Seat11qt_metacastEPKc
libdframeworkdbus.so.2:_ZN6__Seat12SessionAddedERK15QDBusObjectPath
libdframeworkdbus.so.2:_ZN6__Seat14SessionRemovedERK15QDBusObjectPath
libdframeworkdbus.so.2:_ZN6__Seat15hasGuestAccountEv
libdframeworkdbus.so.2:_ZN6__Seat17onPropertyChangedERK7QStringRK8QVariant
libdframeworkdbus.so.2:_ZN6__Seat21onPendingCallFinishedEP23QDBusPendingCallWatcher
libdframeworkdbus.so.2:_ZN6__Seat8sessionsEv
libdframeworkdbus.so.2:_ZN6__Seat9canSwitchEv
libdframeworkdbus.so.2:_ZN6__SeatC1ERK7QStringS2_RK15QDBusConnectionP7QObject
libdframeworkdbus.so.2:_ZN6__SeatC2ERK7QStringS2_RK15QDBusConnectionP7QObject
libdframeworkdbus.so.2:_ZN6__SeatD0Ev
libdframeworkdbus.so.2:_ZN6__SeatD1Ev
libdframeworkdbus.so.2:_ZN6__SeatD2Ev
libdframeworkdbus.so.2:_ZN6__Sink10CallQueuedERK7QStringRK5QListI8QVariantE
libdframeworkdbus.so.2:_ZN6__Sink10activePortEv
libdframeworkdbus.so.2:_ZN6__Sink10baseVolumeEv
libdframeworkdbus.so.2:_ZN6__Sink11descriptionEv
libdframeworkdbus.so.2:_ZN6__Sink11qt_metacallEN11QMetaObject4CallEiPPv
libdframeworkdbus.so.2:_ZN6__Sink11qt_metacastEPKc
libdframeworkdbus.so.2:_ZN6__Sink11supportFadeEv
libdframeworkdbus.so.2:_ZN6__Sink14supportBalanceEv
libdframeworkdbus.so.2:_ZN6__Sink17onPropertyChangedERK7QStringRK8QVariant
libdframeworkdbus.so.2:_ZN6__Sink21onPendingCallFinishedEP23QDBusPendingCallWatcher
libdframeworkdbus.so.2:_ZN6__Sink4cardEv
libdframeworkdbus.so.2:_ZN6__Sink4fadeEv
libdframeworkdbus.so.2:_ZN6__Sink4muteEv
libdframeworkdbus.so.2:_ZN6__Sink4nameEv
libdframeworkdbus.so.2:_ZN6__Sink5portsEv
libdframeworkdbus.so.2:_ZN6__Sink6volumeEv
libdframeworkdbus.so.2:_ZN6__Sink7balanceEv
libdframeworkdbus.so.2:_ZN6__SinkC1ERK7QStringS2_RK15QDBusConnectionP7QObject
libdframeworkdbus.so.2:_ZN6__SinkC2ERK7QStringS2_RK15QDBusConnectionP7QObject
libdframeworkdbus.so.2:_ZN6__SinkD0Ev
libdframeworkdbus.so.2:_ZN6__SinkD1Ev
libdframeworkdbus.so.2:_ZN6__SinkD2Ev
libdframeworkdbus.so.2:_ZN6__User10CallQueuedERK7QStringRK5QListI8QVariantE
libdframeworkdbus.so.2:_ZN6__User11accountTypeEv
libdframeworkdbus.so.2:_ZN6__User11qt_metacallEN11QMetaObject4CallEiPPv
libdframeworkdbus.so.2:_ZN6__User11qt_metacastEPKc
libdframeworkdbus.so.2:_ZN6__User13historyLayoutEv
libdframeworkdbus.so.2:_ZN6__User13noPasswdLoginEv
libdframeworkdbus.so.2:_ZN6__User13systemAccountEv
libdframeworkdbus.so.2:_ZN6__User14automaticLoginEv
libdframeworkdbus.so.2:_ZN6__User14passwordStatusEv
libdframeworkdbus.so.2:_ZN6__User17greeterBackgroundEv
libdframeworkdbus.so.2:_ZN6__User17onPropertyChangedERK7QStringRK8QVariant
libdframeworkdbus.so.2:_ZN6__User18desktopBackgroundsEv
libdframeworkdbus.so.2:_ZN6__User21onPendingCallFinishedEP23QDBusPendingCallWatcher
libdframeworkdbus.so.2:_ZN6__User3gidEv
libdframeworkdbus.so.2:_ZN6__User3uidEv
libdframeworkdbus.so.2:_ZN6__User5shellEv
libdframeworkdbus.so.2:_ZN6__User6layoutEv
libdframeworkdbus.so.2:_ZN6__User6localeEv
libdframeworkdbus.so.2:_ZN6__User6lockedEv
libdframeworkdbus.so.2:_ZN6__User7homeDirEv
libdframeworkdbus.so.2:_ZN6__User8fullNameEv
libdframeworkdbus.so.2:_ZN6__User8iconFileEv
libdframeworkdbus.so.2:_ZN6__User8iconListEv
libdframeworkdbus.so.2:_ZN6__User8userNameEv
libdframeworkdbus.so.2:_ZN6__User8xSessionEv
libdframeworkdbus.so.2:_ZN6__User9loginTimeEv
libdframeworkdbus.so.2:_ZN6__UserC1ERK7QStringS2_RK15QDBusConnectionP7QObject
libdframeworkdbus.so.2:_ZN6__UserC2ERK7QStringS2_RK15QDBusConnectionP7QObject
libdframeworkdbus.so.2:_ZN6__UserD0Ev
libdframeworkdbus.so.2:_ZN6__UserD1Ev
libdframeworkdbus.so.2:_ZN6__UserD2Ev
libdframeworkdbus.so.2:_ZN7__Audio10CallQueuedERK7QStringRK5QListI8QVariantE
libdframeworkdbus.so.2:_ZN7__Audio10sinkInputsEv
libdframeworkdbus.so.2:_ZN7__Audio11defaultSinkEv
libdframeworkdbus.so.2:_ZN7__Audio11maxUIVolumeEv
libdframeworkdbus.so.2:_ZN7__Audio11qt_metacallEN11QMetaObject4CallEiPPv
libdframeworkdbus.so.2:_ZN7__Audio11qt_metacastEPKc
libdframeworkdbus.so.2:_ZN7__Audio13defaultSourceEv
libdframeworkdbus.so.2:_ZN7__Audio17onPropertyChangedERK7QStringRK8QVariant
libdframeworkdbus.so.2:_ZN7__Audio21onPendingCallFinishedEP23QDBusPendingCallWatcher
libdframeworkdbus.so.2:_ZN7__Audio5cardsEv
libdframeworkdbus.so.2:_ZN7__AudioC1ERK7QStringS2_RK15QDBusConnectionP7QObject
libdframeworkdbus.so.2:_ZN7__AudioC2ERK7QStringS2_RK15QDBusConnectionP7QObject
libdframeworkdbus.so.2:_ZN7__AudioD0Ev
libdframeworkdbus.so.2:_ZN7__AudioD1Ev
libdframeworkdbus.so.2:_ZN7__AudioD2Ev
libdframeworkdbus.so.2:_ZN7__Entry10CallQueuedERK7QStringRK5QListI8QVariantE
libdframeworkdbus.so.2:_ZN7__Entry11desktopFileEv
libdframeworkdbus.so.2:_ZN7__Entry11qt_metacallEN11QMetaObject4CallEiPPv
libdframeworkdbus.so.2:_ZN7__Entry11qt_metacastEPKc
libdframeworkdbus.so.2:_ZN7__Entry11windowInfosEv
libdframeworkdbus.so.2:_ZN7__Entry13currentWindowEv
libdframeworkdbus.so.2:_ZN7__Entry17onPropertyChangedERK7QStringRK8QVariant
libdframeworkdbus.so.2:_ZN7__Entry21onPendingCallFinishedEP23QDBusPendingCallWatcher
libdframeworkdbus.so.2:_ZN7__Entry2idEv
libdframeworkdbus.so.2:_ZN7__Entry4iconEv
libdframeworkdbus.so.2:_ZN7__Entry4menuEv
libdframeworkdbus.so.2:_ZN7__Entry4nameEv
libdframeworkdbus.so.2:_ZN7__Entry8isActiveEv
libdframeworkdbus.so.2:_ZN7__Entry8isDockedEv
libdframeworkdbus.so.2:_ZN7__EntryC1ERK7QStringS2_RK15QDBusConnectionP7QObject
libdframeworkdbus.so.2:_ZN7__EntryC2ERK7QStringS2_RK15QDBusConnectionP7QObject
libdframeworkdbus.so.2:_ZN7__EntryD0Ev
libdframeworkdbus.so.2:_ZN7__EntryD1Ev
libdframeworkdbus.so.2:_ZN7__EntryD2Ev
libdframeworkdbus.so.2:_ZN7__Grub210CallQueuedERK7QStringRK5QListI8QVariantE
libdframeworkdbus.so.2:_ZN7__Grub210resolutionEv
libdframeworkdbus.so.2:_ZN7__Grub211enableThemeEv
libdframeworkdbus.so.2:_ZN7__Grub211qt_metacallEN11QMetaObject4CallEiPPv
libdframeworkdbus.so.2:_ZN7__Grub211qt_metacastEPKc
libdframeworkdbus.so.2:_ZN7__Grub212defaultEntryEv
libdframeworkdbus.so.2:_ZN7__Grub217onPropertyChangedERK7QStringRK8QVariant
libdframeworkdbus.so.2:_ZN7__Grub221onPendingCallFinishedEP23QDBusPendingCallWatcher
libdframeworkdbus.so.2:_ZN7__Grub25themeEv
libdframeworkdbus.so.2:_ZN7__Grub27timeoutEv
libdframeworkdbus.so.2:_ZN7__Grub28updatingEv
libdframeworkdbus.so.2:_ZN7__Grub2C1ERK7QStringS2_RK15QDBusConnectionP7QObject
libdframeworkdbus.so.2:_ZN7__Grub2C2ERK7QStringS2_RK15QDBusConnectionP7QObject
libdframeworkdbus.so.2:_ZN7__Grub2D0Ev
libdframeworkdbus.so.2:_ZN7__Grub2D1Ev
libdframeworkdbus.so.2:_ZN7__Grub2D2Ev
libdframeworkdbus.so.2:_ZN7__Media10CallQueuedERK7QStringRK5QListI8QVariantE
libdframeworkdbus.so.2:_ZN7__Media11qt_metacallEN11QMetaObject4CallEiPPv
libdframeworkdbus.so.2:_ZN7__Media11qt_metacastEPKc
libdframeworkdbus.so.2:_ZN7__Media17onPropertyChangedERK7QStringRK8QVariant
libdframeworkdbus.so.2:_ZN7__Media21onPendingCallFinishedEP23QDBusPendingCallWatcher
libdframeworkdbus.so.2:_ZN7__Media8autoOpenEv
libdframeworkdbus.so.2:_ZN7__MediaC1ERK7QStringS2_RK15QDBusConnectionP7QObject
libdframeworkdbus.so.2:_ZN7__MediaC2ERK7QStringS2_RK15QDBusConnectionP7QObject
libdframeworkdbus.so.2:_ZN7__MediaD0Ev
libdframeworkdbus.so.2:_ZN7__MediaD1Ev
libdframeworkdbus.so.2:_ZN7__MediaD2Ev
libdframeworkdbus.so.2:_ZN7__Meter10CallQueuedERK7QStringRK5QListI8QVariantE
libdframeworkdbus.so.2:_ZN7__Meter11qt_metacallEN11QMetaObject4CallEiPPv
libdframeworkdbus.so.2:_ZN7__Meter11qt_metacastEPKc
libdframeworkdbus.so.2:_ZN7__Meter17onPropertyChangedERK7QStringRK8QVariant
libdframeworkdbus.so.2:_ZN7__Meter21onPendingCallFinishedEP23QDBusPendingCallWatcher
libdframeworkdbus.so.2:_ZN7__Meter6volumeEv
libdframeworkdbus.so.2:_ZN7__MeterC1ERK7QStringS2_RK15QDBusConnectionP7QObject
libdframeworkdbus.so.2:_ZN7__MeterC2ERK7QStringS2_RK15QDBusConnectionP7QObject
libdframeworkdbus.so.2:_ZN7__MeterD0Ev
libdframeworkdbus.so.2:_ZN7__MeterD1Ev
libdframeworkdbus.so.2:_ZN7__MeterD2Ev
libdframeworkdbus.so.2:_ZN7__Mouse10CallQueuedERK7QStringRK5QListI8QVariantE
libdframeworkdbus.so.2:_ZN7__Mouse10deviceListEv
libdframeworkdbus.so.2:_ZN7__Mouse10leftHandedEv
libdframeworkdbus.so.2:_ZN7__Mouse11disableTpadEv
libdframeworkdbus.so.2:_ZN7__Mouse11doubleClickEv
libdframeworkdbus.so.2:_ZN7__Mouse11qt_metacallEN11QMetaObject4CallEiPPv
libdframeworkdbus.so.2:_ZN7__Mouse11qt_metacastEPKc
libdframeworkdbus.so.2:_ZN7__Mouse13dragThresholdEv
libdframeworkdbus.so.2:_ZN7__Mouse13motionScalingEv
libdframeworkdbus.so.2:_ZN7__Mouse13naturalScrollEv
libdframeworkdbus.so.2:_ZN7__Mouse13setLeftHandedEb
libdframeworkdbus.so.2:_ZN7__Mouse14setDisableTpadEb
libdframeworkdbus.so.2:_ZN7__Mouse14setDoubleClickEi
libdframeworkdbus.so.2:_ZN7__Mouse15motionThresholdEv
libdframeworkdbus.so.2:_ZN7__Mouse16setDragThresholdEi
libdframeworkdbus.so.2:_ZN7__Mouse16setMotionScalingEd
libdframeworkdbus.so.2:_ZN7__Mouse16setNaturalScrollEb
libdframeworkdbus.so.2:_ZN7__Mouse17onPropertyChangedERK7QStringRK8QVariant
libdframeworkdbus.so.2:_ZN7__Mouse18motionAccelerationEv
libdframeworkdbus.so.2:_ZN7__Mouse18setMotionThresholdEd
libdframeworkdbus.so.2:_ZN7__Mouse20adaptiveAccelProfileEv
libdframeworkdbus.so.2:_ZN7__Mouse21middleButtonEmulationEv
libdframeworkdbus.so.2:_ZN7__Mouse21onPendingCallFinishedEP23QDBusPendingCallWatcher
libdframeworkdbus.so.2:_ZN7__Mouse21setMotionAccelerationEd
libdframeworkdbus.so.2:_ZN7__Mouse23setAdaptiveAccelProfileEb
libdframeworkdbus.so.2:_ZN7__Mouse24setMiddleButtonEmulationEb
libdframeworkdbus.so.2:_ZN7__Mouse5existEv
libdframeworkdbus.so.2:_ZN7__MouseC1ERK7QStringS2_RK15QDBusConnectionP7QObject
libdframeworkdbus.so.2:_ZN7__MouseC2ERK7QStringS2_RK15QDBusConnectionP7QObject
libdframeworkdbus.so.2:_ZN7__MouseD0Ev
libdframeworkdbus.so.2:_ZN7__MouseD1Ev
libdframeworkdbus.so.2:_ZN7__MouseD2Ev
libdframeworkdbus.so.2:_ZN7__Power10CallQueuedERK7QStringRK5QListI8QVariantE
libdframeworkdbus.so.2:_ZN7__Power11qt_metacallEN11QMetaObject4CallEiPPv
libdframeworkdbus.so.2:_ZN7__Power11qt_metacastEPKc
libdframeworkdbus.so.2:_ZN7__Power12batteryStateEv
libdframeworkdbus.so.2:_ZN7__Power12lidIsPresentEv
libdframeworkdbus.so.2:_ZN7__Power12setSleepLockEb
libdframeworkdbus.so.2:_ZN7__Power14lidClosedSleepEv
libdframeworkdbus.so.2:_ZN7__Power15screenBlackLockEv
libdframeworkdbus.so.2:_ZN7__Power16batteryIsPresentEv
libdframeworkdbus.so.2:_ZN7__Power17batteryPercentageEv
libdframeworkdbus.so.2:_ZN7__Power17batterySleepDelayEv
libdframeworkdbus.so.2:_ZN7__Power17onPropertyChangedERK7QStringRK8QVariant
libdframeworkdbus.so.2:_ZN7__Power17setLidClosedSleepEb
libdframeworkdbus.so.2:_ZN7__Power18setScreenBlackLockEb
libdframeworkdbus.so.2:_ZN7__Power19linePowerSleepDelayEv
libdframeworkdbus.so.2:_ZN7__Power20setBatterySleepDelayEi
libdframeworkdbus.so.2:_ZN7__Power21batteryLidClosedSleepEv
libdframeworkdbus.so.2:_ZN7__Power21hasAmbientLightSensorEv
libdframeworkdbus.so.2:_ZN7__Power21onPendingCallFinishedEP23QDBusPendingCallWatcher
libdframeworkdbus.so.2:_ZN7__Power22setLinePowerSleepDelayEi
libdframeworkdbus.so.2:_ZN7__Power23batteryScreenBlackDelayEv
libdframeworkdbus.so.2:_ZN7__Power23batteryScreensaverDelayEv
libdframeworkdbus.so.2:_ZN7__Power23linePowerLidClosedSleepEv
libdframeworkdbus.so.2:_ZN7__Power24setBatteryLidClosedSleepEb
libdframeworkdbus.so.2:_ZN7__Power25linePowerScreenBlackDelayEv
libdframeworkdbus.so.2:_ZN7__Power25linePowerScreensaverDelayEv
libdframeworkdbus.so.2:_ZN7__Power26setBatteryScreenBlackDelayEi
libdframeworkdbus.so.2:_ZN7__Power26setBatteryScreensaverDelayEi
libdframeworkdbus.so.2:_ZN7__Power26setLinePowerLidClosedSleepEb
libdframeworkdbus.so.2:_ZN7__Power28ambientLightAdjustBrightnessEv
libdframeworkdbus.so.2:_ZN7__Power28setLinePowerScreenBlackDelayEi
libdframeworkdbus.so.2:_ZN7__Power28setLinePowerScreensaverDelayEi
libdframeworkdbus.so.2:_ZN7__Power31setAmbientLightAdjustBrightnessEb
libdframeworkdbus.so.2:_ZN7__Power9onBatteryEv
libdframeworkdbus.so.2:_ZN7__Power9sleepLockEv
libdframeworkdbus.so.2:_ZN7__Power9warnLevelEv
libdframeworkdbus.so.2:_ZN7__PowerC1ERK7QStringS2_RK15QDBusConnectionP7QObject
libdframeworkdbus.so.2:_ZN7__PowerC2ERK7QStringS2_RK15QDBusConnectionP7QObject
libdframeworkdbus.so.2:_ZN7__PowerD0Ev
libdframeworkdbus.so.2:_ZN7__PowerD1Ev
libdframeworkdbus.so.2:_ZN7__PowerD2Ev
libdframeworkdbus.so.2:_ZN7__Theme10CallQueuedERK7QStringRK5QListI8QVariantE
libdframeworkdbus.so.2:_ZN7__Theme11qt_metacallEN11QMetaObject4CallEiPPv
libdframeworkdbus.so.2:_ZN7__Theme11qt_metacastEPKc
libdframeworkdbus.so.2:_ZN7__Theme17BackgroundChangedEv
libdframeworkdbus.so.2:_ZN7__Theme17onPropertyChangedERK7QStringRK8QVariant
libdframeworkdbus.so.2:_ZN7__Theme17selectedItemColorEv
libdframeworkdbus.so.2:_ZN7__Theme21onPendingCallFinishedEP23QDBusPendingCallWatcher
libdframeworkdbus.so.2:_ZN7__Theme8updatingEv
libdframeworkdbus.so.2:_ZN7__Theme9itemColorEv
libdframeworkdbus.so.2:_ZN7__ThemeC1ERK7QStringS2_RK15QDBusConnectionP7QObject
libdframeworkdbus.so.2:_ZN7__ThemeC2ERK7QStringS2_RK15QDBusConnectionP7QObject
libdframeworkdbus.so.2:_ZN7__ThemeD0Ev
libdframeworkdbus.so.2:_ZN7__ThemeD1Ev
libdframeworkdbus.so.2:_ZN7__ThemeD2Ev
libdframeworkdbus.so.2:_ZN7__Wacom10CallQueuedERK7QStringRK5QListI8QVariantE
libdframeworkdbus.so.2:_ZN7__Wacom10cursorModeEv
libdframeworkdbus.so.2:_ZN7__Wacom10deviceListEv
libdframeworkdbus.so.2:_ZN7__Wacom10leftHandedEv
libdframeworkdbus.so.2:_ZN7__Wacom11actionInfosEv
libdframeworkdbus.so.2:_ZN7__Wacom11keyUpActionEv
libdframeworkdbus.so.2:_ZN7__Wacom11qt_metacallEN11QMetaObject4CallEiPPv
libdframeworkdbus.so.2:_ZN7__Wacom11qt_metacastEPKc
libdframeworkdbus.so.2:_ZN7__Wacom11setSuppressEj
libdframeworkdbus.so.2:_ZN7__Wacom12setMapOutputERK7QString
libdframeworkdbus.so.2:_ZN7__Wacom13keyDownActionEv
libdframeworkdbus.so.2:_ZN7__Wacom13setCursorModeEb
libdframeworkdbus.so.2:_ZN7__Wacom13setLeftHandedEb
libdframeworkdbus.so.2:_ZN7__Wacom14setKeyUpActionERK7QString
libdframeworkdbus.so.2:_ZN7__Wacom15eraserRawSampleEv
libdframeworkdbus.so.2:_ZN7__Wacom15eraserThresholdEv
libdframeworkdbus.so.2:_ZN7__Wacom15stylusRawSampleEv
libdframeworkdbus.so.2:_ZN7__Wacom15stylusThresholdEv
libdframeworkdbus.so.2:_ZN7__Wacom16setKeyDownActionERK7QString
libdframeworkdbus.so.2:_ZN7__Wacom17onPropertyChangedERK7QStringRK8QVariant
libdframeworkdbus.so.2:_ZN7__Wacom18setEraserRawSampleEj
libdframeworkdbus.so.2:_ZN7__Wacom18setEraserThresholdEj
libdframeworkdbus.so.2:_ZN7__Wacom18setStylusRawSampleEj
libdframeworkdbus.so.2:_ZN7__Wacom18setStylusThresholdEj
libdframeworkdbus.so.2:_ZN7__Wacom21onPendingCallFinishedEP23QDBusPendingCallWatcher
libdframeworkdbus.so.2:_ZN7__Wacom23eraserPressureSensitiveEv
libdframeworkdbus.so.2:_ZN7__Wacom23stylusPressureSensitiveEv
libdframeworkdbus.so.2:_ZN7__Wacom26setEraserPressureSensitiveEj
libdframeworkdbus.so.2:_ZN7__Wacom26setStylusPressureSensitiveEj
libdframeworkdbus.so.2:_ZN7__Wacom5existEv
libdframeworkdbus.so.2:_ZN7__Wacom8suppressEv
libdframeworkdbus.so.2:_ZN7__Wacom9mapOutputEv
libdframeworkdbus.so.2:_ZN7__WacomC1ERK7QStringS2_RK15QDBusConnectionP7QObject
libdframeworkdbus.so.2:_ZN7__WacomC2ERK7QStringS2_RK15QDBusConnectionP7QObject
libdframeworkdbus.so.2:_ZN7__WacomD0Ev
libdframeworkdbus.so.2:_ZN7__WacomD1Ev
libdframeworkdbus.so.2:_ZN7__WacomD2Ev
libdframeworkdbus.so.2:_ZN8DockRectC1Ev
libdframeworkdbus.so.2:_ZN8DockRectC2Ev
libdframeworkdbus.so.2:_ZN8LinkInfo8fromJsonERK11QJsonObject
libdframeworkdbus.so.2:_ZN8LinkInfoeqERKS_
libdframeworkdbus.so.2:_ZN8PropertyC1Ev
libdframeworkdbus.so.2:_ZN8PropertyC2Ev
libdframeworkdbus.so.2:_ZN8SinkInfo8fromJsonERK11QJsonObject
libdframeworkdbus.so.2:_ZN8SinkInfoeqERKS_
libdframeworkdbus.so.2:_ZN8ZoneInfoC1Ev
libdframeworkdbus.so.2:_ZN8ZoneInfoC2Ev
libdframeworkdbus.so.2:_ZN8__Device10CallQueuedERK7QStringRK5QListI8QVariantE
libdframeworkdbus.so.2:_ZN8__Device11qt_metacallEN11QMetaObject4CallEiPPv
libdframeworkdbus.so.2:_ZN8__Device11qt_metacastEPKc
libdframeworkdbus.so.2:_ZN8__Device12EnrollStatusERK7QStringb
libdframeworkdbus.so.2:_ZN8__Device12VerifyStatusERK7QStringb
libdframeworkdbus.so.2:_ZN8__Device20VerifyFingerSelectedERK7QString
libdframeworkdbus.so.2:_ZN8__Device21onPendingCallFinishedEP23QDBusPendingCallWatcher
libdframeworkdbus.so.2:_ZN8__DeviceC1ERK7QStringS2_RK15QDBusConnectionP7QObject
libdframeworkdbus.so.2:_ZN8__DeviceC2ERK7QStringS2_RK15QDBusConnectionP7QObject
libdframeworkdbus.so.2:_ZN8__DeviceD0Ev
libdframeworkdbus.so.2:_ZN8__DeviceD1Ev
libdframeworkdbus.so.2:_ZN8__DeviceD2Ev
libdframeworkdbus.so.2:_ZN8__Login110CallQueuedERK7QStringRK5QListI8QVariantE
libdframeworkdbus.so.2:_ZN8__Login110SessionNewERK7QStringRK15QDBusObjectPath
libdframeworkdbus.so.2:_ZN8__Login110idleActionEv
libdframeworkdbus.so.2:_ZN8__Login111SeatRemovedERK7QStringRK15QDBusObjectPath
libdframeworkdbus.so.2:_ZN8__Login111UserRemovedEjRK15QDBusObjectPath
libdframeworkdbus.so.2:_ZN8__Login111qt_metacallEN11QMetaObject4CallEiPPv
libdframeworkdbus.so.2:_ZN8__Login111qt_metacastEPKc
libdframeworkdbus.so.2:_ZN8__Login111sessionsMaxEv
libdframeworkdbus.so.2:_ZN8__Login111wallMessageEv
libdframeworkdbus.so.2:_ZN8__Login112userTasksMaxEv
libdframeworkdbus.so.2:_ZN8__Login113idleSinceHintEv
libdframeworkdbus.so.2:_ZN8__Login113inhibitorsMaxEv
libdframeworkdbus.so.2:_ZN8__Login113killOnlyUsersEv
libdframeworkdbus.so.2:_ZN8__Login114SessionRemovedERK7QStringRK15QDBusObjectPath
libdframeworkdbus.so.2:_ZN8__Login114blockInhibitedEv
libdframeworkdbus.so.2:_ZN8__Login114delayInhibitedEv
libdframeworkdbus.so.2:_ZN8__Login114handlePowerKeyEv
libdframeworkdbus.so.2:_ZN8__Login114idleActionUSecEv
libdframeworkdbus.so.2:_ZN8__Login114setWallMessageERK7QString
libdframeworkdbus.so.2:_ZN8__Login115PrepareForSleepEb
libdframeworkdbus.so.2:_ZN8__Login115handleLidSwitchEv
libdframeworkdbus.so.2:_ZN8__Login116handleSuspendKeyEv
libdframeworkdbus.so.2:_ZN8__Login116killExcludeUsersEv
libdframeworkdbus.so.2:_ZN8__Login116nCurrentSessionsEv
libdframeworkdbus.so.2:_ZN8__Login117killUserProcessesEv
libdframeworkdbus.so.2:_ZN8__Login117onPropertyChangedERK7QStringRK8QVariant
libdframeworkdbus.so.2:_ZN8__Login117preparingForSleepEv
libdframeworkdbus.so.2:_ZN8__Login118PrepareForShutdownEb
libdframeworkdbus.so.2:_ZN8__Login118enableWallMessagesEv
libdframeworkdbus.so.2:_ZN8__Login118handleHibernateKeyEv
libdframeworkdbus.so.2:_ZN8__Login118holdoffTimeoutUSecEv
libdframeworkdbus.so.2:_ZN8__Login118nCurrentInhibitorsEv
libdframeworkdbus.so.2:_ZN8__Login119inhibitDelayMaxUSecEv
libdframeworkdbus.so.2:_ZN8__Login120preparingForShutdownEv
libdframeworkdbus.so.2:_ZN8__Login120runtimeDirectorySizeEv
libdframeworkdbus.so.2:_ZN8__Login121handleLidSwitchDockedEv
libdframeworkdbus.so.2:_ZN8__Login121onPendingCallFinishedEP23QDBusPendingCallWatcher
libdframeworkdbus.so.2:_ZN8__Login121rebootToFirmwareSetupEv
libdframeworkdbus.so.2:_ZN8__Login121setEnableWallMessagesEb
libdframeworkdbus.so.2:_ZN8__Login122idleSinceHintMonotonicEv
libdframeworkdbus.so.2:_ZN8__Login16dockedEv
libdframeworkdbus.so.2:_ZN8__Login17SeatNewERK7QStringRK15QDBusObjectPath
libdframeworkdbus.so.2:_ZN8__Login17UserNewEjRK15QDBusObjectPath
libdframeworkdbus.so.2:_ZN8__Login18idleHintEv
libdframeworkdbus.so.2:_ZN8__Login18nAutoVTsEv
libdframeworkdbus.so.2:_ZN8__Login19removeIPCEv
libdframeworkdbus.so.2:_ZN8__Login1C1ERK7QStringS2_RK15QDBusConnectionP7QObject
libdframeworkdbus.so.2:_ZN8__Login1C2ERK7QStringS2_RK15QDBusConnectionP7QObject
libdframeworkdbus.so.2:_ZN8__Login1D0Ev
libdframeworkdbus.so.2:_ZN8__Login1D1Ev
libdframeworkdbus.so.2:_ZN8__Login1D2Ev
libdframeworkdbus.so.2:_ZN8__Search10CallQueuedERK7QStringRK5QListI8QVariantE
libdframeworkdbus.so.2:_ZN8__Search11qt_metacallEN11QMetaObject4CallEiPPv
libdframeworkdbus.so.2:_ZN8__Search11qt_metacastEPKc
libdframeworkdbus.so.2:_ZN8__Search21onPendingCallFinishedEP23QDBusPendingCallWatcher
libdframeworkdbus.so.2:_ZN8__SearchC1ERK7QStringS2_RK15QDBusConnectionP7QObject
libdframeworkdbus.so.2:_ZN8__SearchC2ERK7QStringS2_RK15QDBusConnectionP7QObject
libdframeworkdbus.so.2:_ZN8__SearchD0Ev
libdframeworkdbus.so.2:_ZN8__SearchD1Ev
libdframeworkdbus.so.2:_ZN8__SearchD2Ev
libdframeworkdbus.so.2:_ZN8__Source10CallQueuedERK7QStringRK5QListI8QVariantE
libdframeworkdbus.so.2:_ZN8__Source10activePortEv
libdframeworkdbus.so.2:_ZN8__Source10baseVolumeEv
libdframeworkdbus.so.2:_ZN8__Source11descriptionEv
libdframeworkdbus.so.2:_ZN8__Source11qt_metacallEN11QMetaObject4CallEiPPv
libdframeworkdbus.so.2:_ZN8__Source11qt_metacastEPKc
libdframeworkdbus.so.2:_ZN8__Source11supportFadeEv
libdframeworkdbus.so.2:_ZN8__Source14supportBalanceEv
libdframeworkdbus.so.2:_ZN8__Source17onPropertyChangedERK7QStringRK8QVariant
libdframeworkdbus.so.2:_ZN8__Source21onPendingCallFinishedEP23QDBusPendingCallWatcher
libdframeworkdbus.so.2:_ZN8__Source4cardEv
libdframeworkdbus.so.2:_ZN8__Source4fadeEv
libdframeworkdbus.so.2:_ZN8__Source4muteEv
libdframeworkdbus.so.2:_ZN8__Source4nameEv
libdframeworkdbus.so.2:_ZN8__Source5portsEv
libdframeworkdbus.so.2:_ZN8__Source6volumeEv
libdframeworkdbus.so.2:_ZN8__Source7balanceEv
libdframeworkdbus.so.2:_ZN8__SourceC1ERK7QStringS2_RK15QDBusConnectionP7QObject
libdframeworkdbus.so.2:_ZN8__SourceC2ERK7QStringS2_RK15QDBusConnectionP7QObject
libdframeworkdbus.so.2:_ZN8__SourceD0Ev
libdframeworkdbus.so.2:_ZN8__SourceD1Ev
libdframeworkdbus.so.2:_ZN8__SourceD2Ev
libdframeworkdbus.so.2:_ZN8__daemon10CallQueuedERK7QStringRK5QListI8QVariantE
libdframeworkdbus.so.2:_ZN8__daemon11qt_metacallEN11QMetaObject4CallEiPPv
libdframeworkdbus.so.2:_ZN8__daemon11qt_metacastEPKc
libdframeworkdbus.so.2:_ZN8__daemon12lastSyncTimeEv
libdframeworkdbus.so.2:_ZN8__daemon14SwitcherChangeERK7QStringb
libdframeworkdbus.so.2:_ZN8__daemon17onPropertyChangedERK7QStringRK8QVariant
libdframeworkdbus.so.2:_ZN8__daemon21onPendingCallFinishedEP23QDBusPendingCallWatcher
libdframeworkdbus.so.2:_ZN8__daemon5stateEv
libdframeworkdbus.so.2:_ZN8__daemonC1ERK7QStringS2_RK15QDBusConnectionP7QObject
libdframeworkdbus.so.2:_ZN8__daemonC2ERK7QStringS2_RK15QDBusConnectionP7QObject
libdframeworkdbus.so.2:_ZN8__daemonD0Ev
libdframeworkdbus.so.2:_ZN8__daemonD1Ev
libdframeworkdbus.so.2:_ZN8__daemonD2Ev
libdframeworkdbus.so.2:_ZN8__window10CallQueuedERK7QStringRK5QListI8QVariantE
libdframeworkdbus.so.2:_ZN8__window11qt_metacallEN11QMetaObject4CallEiPPv
libdframeworkdbus.so.2:_ZN8__window11qt_metacastEPKc
libdframeworkdbus.so.2:_ZN8__window14MonitorChangedEii
libdframeworkdbus.so.2:_ZN8__window16MaximizedChangedEii
libdframeworkdbus.so.2:_ZN8__window21onPendingCallFinishedEP23QDBusPendingCallWatcher
libdframeworkdbus.so.2:_ZN8__windowC1ERK7QStringS2_RK15QDBusConnectionP7QObject
libdframeworkdbus.so.2:_ZN8__windowC2ERK7QStringS2_RK15QDBusConnectionP7QObject
libdframeworkdbus.so.2:_ZN8__windowD0Ev
libdframeworkdbus.so.2:_ZN8__windowD1Ev
libdframeworkdbus.so.2:_ZN8__windowD2Ev
libdframeworkdbus.so.2:_ZN9IntStringneERKS_
libdframeworkdbus.so.2:_ZN9__Display10CallQueuedERK7QStringRK5QListI8QVariantE
libdframeworkdbus.so.2:_ZN9__Display10brightnessEv
libdframeworkdbus.so.2:_ZN9__Display10hasChangedEv
libdframeworkdbus.so.2:_ZN9__Display11displayModeEv
libdframeworkdbus.so.2:_ZN9__Display11primaryRectEv
libdframeworkdbus.so.2:_ZN9__Display11qt_metacallEN11QMetaObject4CallEiPPv
libdframeworkdbus.so.2:_ZN9__Display11qt_metacastEPKc
libdframeworkdbus.so.2:_ZN9__Display11screenWidthEv
libdframeworkdbus.so.2:_ZN9__Display12customIdListEv
libdframeworkdbus.so.2:_ZN9__Display12screenHeightEv
libdframeworkdbus.so.2:_ZN9__Display15currentCustomIdEv
libdframeworkdbus.so.2:_ZN9__Display17onPropertyChangedERK7QStringRK8QVariant
libdframeworkdbus.so.2:_ZN9__Display21onPendingCallFinishedEP23QDBusPendingCallWatcher
libdframeworkdbus.so.2:_ZN9__Display7primaryEv
libdframeworkdbus.so.2:_ZN9__Display8monitorsEv
libdframeworkdbus.so.2:_ZN9__DisplayC1ERK7QStringS2_RK15QDBusConnectionP7QObject
libdframeworkdbus.so.2:_ZN9__DisplayC2ERK7QStringS2_RK15QDBusConnectionP7QObject
libdframeworkdbus.so.2:_ZN9__DisplayD0Ev
libdframeworkdbus.so.2:_ZN9__DisplayD1Ev
libdframeworkdbus.so.2:_ZN9__DisplayD2Ev
libdframeworkdbus.so.2:_ZN9__Fprintd10CallQueuedERK7QStringRK5QListI8QVariantE
libdframeworkdbus.so.2:_ZN9__Fprintd11qt_metacallEN11QMetaObject4CallEiPPv
libdframeworkdbus.so.2:_ZN9__Fprintd11qt_metacastEPKc
libdframeworkdbus.so.2:_ZN9__Fprintd21onPendingCallFinishedEP23QDBusPendingCallWatcher
libdframeworkdbus.so.2:_ZN9__FprintdC1ERK7QStringS2_RK15QDBusConnectionP7QObject
libdframeworkdbus.so.2:_ZN9__FprintdC2ERK7QStringS2_RK15QDBusConnectionP7QObject
libdframeworkdbus.so.2:_ZN9__FprintdD0Ev
libdframeworkdbus.so.2:_ZN9__FprintdD1Ev
libdframeworkdbus.so.2:_ZN9__FprintdD2Ev
libdframeworkdbus.so.2:_ZN9__Logined10CallQueuedERK7QStringRK5QListI8QVariantE
libdframeworkdbus.so.2:_ZN9__Logined11qt_metacallEN11QMetaObject4CallEiPPv
libdframeworkdbus.so.2:_ZN9__Logined11qt_metacastEPKc
libdframeworkdbus.so.2:_ZN9__Logined14lastLogoutUserEv
libdframeworkdbus.so.2:_ZN9__Logined17onPropertyChangedERK7QStringRK8QVariant
libdframeworkdbus.so.2:_ZN9__Logined21onPendingCallFinishedEP23QDBusPendingCallWatcher
libdframeworkdbus.so.2:_ZN9__Logined8userListEv
libdframeworkdbus.so.2:_ZN9__LoginedC1ERK7QStringS2_RK15QDBusConnectionP7QObject
libdframeworkdbus.so.2:_ZN9__LoginedC2ERK7QStringS2_RK15QDBusConnectionP7QObject
libdframeworkdbus.so.2:_ZN9__LoginedD0Ev
libdframeworkdbus.so.2:_ZN9__LoginedD1Ev
libdframeworkdbus.so.2:_ZN9__LoginedD2Ev
libdframeworkdbus.so.2:_ZN9__Monitor10CallQueuedERK7QStringRK5QListI8QVariantE
libdframeworkdbus.so.2:_ZN9__Monitor11currentModeEv
libdframeworkdbus.so.2:_ZN9__Monitor11qt_metacallEN11QMetaObject4CallEiPPv
libdframeworkdbus.so.2:_ZN9__Monitor11qt_metacastEPKc
libdframeworkdbus.so.2:_ZN9__Monitor11refreshRateEv
libdframeworkdbus.so.2:_ZN9__Monitor17onPropertyChangedERK7QStringRK8QVariant
libdframeworkdbus.so.2:_ZN9__Monitor1xEv
libdframeworkdbus.so.2:_ZN9__Monitor1yEv
libdframeworkdbus.so.2:_ZN9__Monitor21onPendingCallFinishedEP23QDBusPendingCallWatcher
libdframeworkdbus.so.2:_ZN9__Monitor4nameEv
libdframeworkdbus.so.2:_ZN9__Monitor5modesEv
libdframeworkdbus.so.2:_ZN9__Monitor5widthEv
libdframeworkdbus.so.2:_ZN9__Monitor6heightEv
libdframeworkdbus.so.2:_ZN9__Monitor7enabledEv
libdframeworkdbus.so.2:_ZN9__Monitor7reflectEv
libdframeworkdbus.so.2:_ZN9__Monitor8bestModeEv
libdframeworkdbus.so.2:_ZN9__Monitor8reflectsEv
libdframeworkdbus.so.2:_ZN9__Monitor8rotationEv
libdframeworkdbus.so.2:_ZN9__Monitor9connectedEv
libdframeworkdbus.so.2:_ZN9__Monitor9rotationsEv
libdframeworkdbus.so.2:_ZN9__MonitorC1ERK7QStringS2_RK15QDBusConnectionP7QObject
libdframeworkdbus.so.2:_ZN9__MonitorC2ERK7QStringS2_RK15QDBusConnectionP7QObject
libdframeworkdbus.so.2:_ZN9__MonitorD0Ev
libdframeworkdbus.so.2:_ZN9__MonitorD1Ev
libdframeworkdbus.so.2:_ZN9__MonitorD2Ev
libdframeworkdbus.so.2:_ZN9__Network10CallQueuedERK7QStringRK5QListI8QVariantE
libdframeworkdbus.so.2:_ZN9__Network10vpnEnabledEv
libdframeworkdbus.so.2:_ZN9__Network11NeedSecretsERK7QString
libdframeworkdbus.so.2:_ZN9__Network11connectionsEv
libdframeworkdbus.so.2:_ZN9__Network11qt_metacallEN11QMetaObject4CallEiPPv
libdframeworkdbus.so.2:_ZN9__Network11qt_metacastEPKc
libdframeworkdbus.so.2:_ZN9__Network12connectivityEv
libdframeworkdbus.so.2:_ZN9__Network13DeviceEnabledERK7QStringb
libdframeworkdbus.so.2:_ZN9__Network13setVpnEnabledEb
libdframeworkdbus.so.2:_ZN9__Network16AccessPointAddedERK7QStringS2_
libdframeworkdbus.so.2:_ZN9__Network17activeConnectionsEv
libdframeworkdbus.so.2:_ZN9__Network17networkingEnabledEv
libdframeworkdbus.so.2:_ZN9__Network17onPropertyChangedERK7QStringRK8QVariant
libdframeworkdbus.so.2:_ZN9__Network18AccessPointRemovedERK7QStringS2_
libdframeworkdbus.so.2:_ZN9__Network19NeedSecretsFinishedERK7QStringS2_
libdframeworkdbus.so.2:_ZN9__Network20setNetworkingEnabledEb
libdframeworkdbus.so.2:_ZN9__Network21onPendingCallFinishedEP23QDBusPendingCallWatcher
libdframeworkdbus.so.2:_ZN9__Network28AccessPointPropertiesChangedERK7QStringS2_
libdframeworkdbus.so.2:_ZN9__Network5stateEv
libdframeworkdbus.so.2:_ZN9__Network7devicesEv
libdframeworkdbus.so.2:_ZN9__NetworkC1ERK7QStringS2_RK15QDBusConnectionP7QObject
libdframeworkdbus.so.2:_ZN9__NetworkC2ERK7QStringS2_RK15QDBusConnectionP7QObject
libdframeworkdbus.so.2:_ZN9__NetworkD0Ev
libdframeworkdbus.so.2:_ZN9__NetworkD1Ev
libdframeworkdbus.so.2:_ZN9__NetworkD2Ev
libdframeworkdbus.so.2:_ZN9__Session10CallQueuedERK7QStringRK5QListI8QVariantE
libdframeworkdbus.so.2:_ZN9__Session11qt_metacallEN11QMetaObject4CallEiPPv
libdframeworkdbus.so.2:_ZN9__Session11qt_metacastEPKc
libdframeworkdbus.so.2:_ZN9__Session17onPropertyChangedERK7QStringRK8QVariant
libdframeworkdbus.so.2:_ZN9__Session21onPendingCallFinishedEP23QDBusPendingCallWatcher
libdframeworkdbus.so.2:_ZN9__Session4seatEv
libdframeworkdbus.so.2:_ZN9__Session8userNameEv
libdframeworkdbus.so.2:_ZN9__SessionC1ERK7QStringS2_RK15QDBusConnectionP7QObject
libdframeworkdbus.so.2:_ZN9__SessionC2ERK7QStringS2_RK15QDBusConnectionP7QObject
libdframeworkdbus.so.2:_ZN9__SessionD0Ev
libdframeworkdbus.so.2:_ZN9__SessionD1Ev
libdframeworkdbus.so.2:_ZN9__SessionD2Ev
libdframeworkdbus.so.2:_ZN9__Updater10CallQueuedERK7QStringRK5QListI8QVariantE
libdframeworkdbus.so.2:_ZN9__Updater11qt_metacallEN11QMetaObject4CallEiPPv
libdframeworkdbus.so.2:_ZN9__Updater11qt_metacastEPKc
libdframeworkdbus.so.2:_ZN9__Updater12mirrorSourceEv
libdframeworkdbus.so.2:_ZN9__Updater13updatableAppsEv
libdframeworkdbus.so.2:_ZN9__Updater16autoCheckUpdatesEv
libdframeworkdbus.so.2:_ZN9__Updater17onPropertyChangedERK7QStringRK8QVariant
libdframeworkdbus.so.2:_ZN9__Updater17updatablePackagesEv
libdframeworkdbus.so.2:_ZN9__Updater19autoDownloadUpdatesEv
libdframeworkdbus.so.2:_ZN9__Updater21onPendingCallFinishedEP23QDBusPendingCallWatcher
libdframeworkdbus.so.2:_ZN9__UpdaterC1ERK7QStringS2_RK15QDBusConnectionP7QObject
libdframeworkdbus.so.2:_ZN9__UpdaterC2ERK7QStringS2_RK15QDBusConnectionP7QObject
libdframeworkdbus.so.2:_ZN9__UpdaterD0Ev
libdframeworkdbus.so.2:_ZN9__UpdaterD1Ev
libdframeworkdbus.so.2:_ZN9__UpdaterD2Ev
libdframeworkdbus.so.2:_ZN9__matcher10CallQueuedERK7QStringRK5QListI8QVariantE
libdframeworkdbus.so.2:_ZN9__matcher10ViewClosedERK7QStringS2_
libdframeworkdbus.so.2:_ZN9__matcher10ViewOpenedERK7QStringS2_
libdframeworkdbus.so.2:_ZN9__matcher11qt_metacallEN11QMetaObject4CallEiPPv
libdframeworkdbus.so.2:_ZN9__matcher11qt_metacastEPKc
libdframeworkdbus.so.2:_ZN9__matcher19ActiveWindowChangedERK7QStringS2_
libdframeworkdbus.so.2:_ZN9__matcher20StackingOrderChangedEv
libdframeworkdbus.so.2:_ZN9__matcher21onPendingCallFinishedEP23QDBusPendingCallWatcher
libdframeworkdbus.so.2:_ZN9__matcher24ActiveApplicationChangedERK7QStringS2_
libdframeworkdbus.so.2:_ZN9__matcher26RunningApplicationsChangedERK11QStringListS2_
libdframeworkdbus.so.2:_ZN9__matcherC1ERK7QStringS2_RK15QDBusConnectionP7QObject
libdframeworkdbus.so.2:_ZN9__matcherC2ERK7QStringS2_RK15QDBusConnectionP7QObject
libdframeworkdbus.so.2:_ZN9__matcherD0Ev
libdframeworkdbus.so.2:_ZN9__matcherD1Ev
libdframeworkdbus.so.2:_ZN9__matcherD2Ev
libdframeworkdbus.so.2:_ZNK10ResolutioneqERKS_
libdframeworkdbus.so.2:_ZNK10ResolutionneERKS_
libdframeworkdbus.so.2:_ZNK10ScreenRectcv5QRectEv
libdframeworkdbus.so.2:_ZNK10WindowInfoeqERKS_
libdframeworkdbus.so.2:_ZNK10__Accounts10metaObjectEv
libdframeworkdbus.so.2:_ZNK10__Accounts15UserListChangedERK11QStringList
libdframeworkdbus.so.2:_ZNK10__Accounts16GuestIconChangedERK7QString
libdframeworkdbus.so.2:_ZNK10__Accounts17AllowGuestChangedEb
libdframeworkdbus.so.2:_ZNK10__Keyboard10metaObjectEv
libdframeworkdbus.so.2:_ZNK10__Keyboard18CursorBlinkChangedEi
libdframeworkdbus.so.2:_ZNK10__Keyboard18RepeatDelayChangedEj
libdframeworkdbus.so.2:_ZNK10__Keyboard20CurrentLayoutChangedERK7QString
libdframeworkdbus.so.2:_ZNK10__Keyboard20RepeatEnabledChangedEb
libdframeworkdbus.so.2:_ZNK10__Keyboard21CapslockToggleChangedEb
libdframeworkdbus.so.2:_ZNK10__Keyboard21RepeatIntervalChangedEj
libdframeworkdbus.so.2:_ZNK10__Keyboard21UserLayoutListChangedERK11QStringList
libdframeworkdbus.so.2:_ZNK10__Keyboard21UserOptionListChangedERK11QStringList
libdframeworkdbus.so.2:_ZNK10__Launcher10metaObjectEv
libdframeworkdbus.so.2:_ZNK10__Launcher14VisibleChangedEb
libdframeworkdbus.so.2:_ZNK10__Metadata10metaObjectEv
libdframeworkdbus.so.2:_ZNK10__Miracast10metaObjectEv
libdframeworkdbus.so.2:_ZNK10__Timedate10NTPChangedEb
libdframeworkdbus.so.2:_ZNK10__Timedate10metaObjectEv
libdframeworkdbus.so.2:_ZNK10__Timedate13CanNTPChangedEb
libdframeworkdbus.so.2:_ZNK10__Timedate15LocalRTCChangedEb
libdframeworkdbus.so.2:_ZNK10__Timedate15TimezoneChangedERK7QString
libdframeworkdbus.so.2:_ZNK10__Timedate16DSTOffsetChangedEi
libdframeworkdbus.so.2:_ZNK10__Timedate20UserTimezonesChangedERK11QStringList
libdframeworkdbus.so.2:_ZNK10__Timedate22Use24HourFormatChangedEb
libdframeworkdbus.so.2:_ZNK10__TouchPad10metaObjectEv
libdframeworkdbus.so.2:_ZNK10__TouchPad12ExistChangedEb
libdframeworkdbus.so.2:_ZNK10__TouchPad15PalmMinZChangedEi
libdframeworkdbus.so.2:_ZNK10__TouchPad15TapClickChangedEb
libdframeworkdbus.so.2:_ZNK10__TouchPad17DeviceListChangedERK7QString
libdframeworkdbus.so.2:_ZNK10__TouchPad17EdgeScrollChangedEb
libdframeworkdbus.so.2:_ZNK10__TouchPad17LeftHandedChangedEb
libdframeworkdbus.so.2:_ZNK10__TouchPad17PalmDetectChangedEb
libdframeworkdbus.so.2:_ZNK10__TouchPad17TPadEnableChangedEb
libdframeworkdbus.so.2:_ZNK10__TouchPad17VertScrollChangedEb
libdframeworkdbus.so.2:_ZNK10__TouchPad18DeltaScrollChangedEi
libdframeworkdbus.so.2:_ZNK10__TouchPad18DoubleClickChangedEi
libdframeworkdbus.so.2:_ZNK10__TouchPad18HorizScrollChangedEb
libdframeworkdbus.so.2:_ZNK10__TouchPad19PalmMinWidthChangedEi
libdframeworkdbus.so.2:_ZNK10__TouchPad20DragThresholdChangedEi
libdframeworkdbus.so.2:_ZNK10__TouchPad20MotionScalingChangedEd
libdframeworkdbus.so.2:_ZNK10__TouchPad20NaturalScrollChangedEb
libdframeworkdbus.so.2:_ZNK10__TouchPad22DisableIfTypingChangedEb
libdframeworkdbus.so.2:_ZNK10__TouchPad22MotionThresholdChangedEd
libdframeworkdbus.so.2:_ZNK10__TouchPad25MotionAccelerationChangedEd
libdframeworkdbus.so.2:_ZNK10__anything10metaObjectEv
libdframeworkdbus.so.2:_ZNK10__anything15LogLevelChangedEi
libdframeworkdbus.so.2:_ZNK10__anything24AutoIndexExternalChangedEb
libdframeworkdbus.so.2:_ZNK10__anything24AutoIndexInternalChangedEb
libdframeworkdbus.so.2:_ZNK10__deepinid10metaObjectEv
libdframeworkdbus.so.2:_ZNK10__deepinid15UserInfoChangedERK4QMapI7QString8QVariantE
libdframeworkdbus.so.2:_ZNK10__deepinid17HardwareIDChangedERK7QString
libdframeworkdbus.so.2:_ZNK10__deepinid18MachineNameChangedERK7QString
libdframeworkdbus.so.2:_ZNK11__Bluetooth10metaObjectEv
libdframeworkdbus.so.2:_ZNK11__Bluetooth12StateChangedEj
libdframeworkdbus.so.2:_ZNK11__ImageBlur10metaObjectEv
libdframeworkdbus.so.2:_ZNK11__SinkInput10metaObjectEv
libdframeworkdbus.so.2:_ZNK11__SinkInput11FadeChangedEd
libdframeworkdbus.so.2:_ZNK11__SinkInput11IconChangedERK7QString
libdframeworkdbus.so.2:_ZNK11__SinkInput11MuteChangedEb
libdframeworkdbus.so.2:_ZNK11__SinkInput11NameChangedERK7QString
libdframeworkdbus.so.2:_ZNK11__SinkInput13VolumeChangedEd
libdframeworkdbus.so.2:_ZNK11__SinkInput14BalanceChangedEd
libdframeworkdbus.so.2:_ZNK11__SinkInput18SupportFadeChangedEb
libdframeworkdbus.so.2:_ZNK11__SinkInput21SupportBalanceChangedEb
libdframeworkdbus.so.2:_ZNK11__TabsLimit10metaObjectEv
libdframeworkdbus.so.2:_ZNK12__Appearance10metaObjectEv
libdframeworkdbus.so.2:_ZNK12__Appearance14OpacityChangedEd
libdframeworkdbus.so.2:_ZNK12__Appearance15FontSizeChangedEd
libdframeworkdbus.so.2:_ZNK12__Appearance15GtkThemeChangedERK7QString
libdframeworkdbus.so.2:_ZNK12__Appearance16IconThemeChangedERK7QString
libdframeworkdbus.so.2:_ZNK12__Appearance17BackgroundChangedERK7QString
libdframeworkdbus.so.2:_ZNK12__Appearance18CursorThemeChangedERK7QString
libdframeworkdbus.so.2:_ZNK12__Appearance19StandardFontChangedERK7QString
libdframeworkdbus.so.2:_ZNK12__Appearance20MonospaceFontChangedERK7QString
libdframeworkdbus.so.2:_ZNK12__JobManager10metaObjectEv
libdframeworkdbus.so.2:_ZNK12__JobManager14JobListChangedERK5QListI15QDBusObjectPathE
libdframeworkdbus.so.2:_ZNK12__JobManager16AutoCleanChangedEb
libdframeworkdbus.so.2:_ZNK12__JobManager21UpgradableAppsChangedERK11QStringList
libdframeworkdbus.so.2:_ZNK12__JobManager23SystemOnChangingChangedEb
libdframeworkdbus.so.2:_ZNK12__JobManager26SystemArchitecturesChangedERK11QStringList
libdframeworkdbus.so.2:_ZNK12__Keybinding10metaObjectEv
libdframeworkdbus.so.2:_ZNK12__Keybinding19NumLockStateChangedEi
libdframeworkdbus.so.2:_ZNK12__Keybinding27ShortcutSwitchLayoutChangedEj
libdframeworkdbus.so.2:_ZNK12__PolicyKit110metaObjectEv
libdframeworkdbus.so.2:_ZNK12__PolicyKit118BackendNameChangedERK7QString
libdframeworkdbus.so.2:_ZNK12__PolicyKit121BackendVersionChangedERK7QString
libdframeworkdbus.so.2:_ZNK12__PolicyKit122BackendFeaturesChangedEj
libdframeworkdbus.so.2:_ZNK12__SystemInfo10metaObjectEv
libdframeworkdbus.so.2:_ZNK12__SystemInfo14DiskCapChangedEy
libdframeworkdbus.so.2:_ZNK12__SystemInfo14VersionChangedERK7QString
libdframeworkdbus.so.2:_ZNK12__SystemInfo15DistroIDChangedERK7QString
libdframeworkdbus.so.2:_ZNK12__SystemInfo16DistroVerChangedERK7QString
libdframeworkdbus.so.2:_ZNK12__SystemInfo16MemoryCapChangedEy
libdframeworkdbus.so.2:_ZNK12__SystemInfo16ProcessorChangedERK7QString
libdframeworkdbus.so.2:_ZNK12__SystemInfo17DistroDescChangedERK7QString
libdframeworkdbus.so.2:_ZNK12__SystemInfo17SystemTypeChangedEx
libdframeworkdbus.so.2:_ZNK12__TrackPoint10metaObjectEv
libdframeworkdbus.so.2:_ZNK12__TrackPoint12ExistChangedEb
libdframeworkdbus.so.2:_ZNK12__TrackPoint17DeviceListChangedERK7QString
libdframeworkdbus.so.2:_ZNK12__TrackPoint17LeftHandedChangedEb
libdframeworkdbus.so.2:_ZNK12__TrackPoint20MotionScalingChangedEd
libdframeworkdbus.so.2:_ZNK12__TrackPoint21WheelEmulationChangedEb
libdframeworkdbus.so.2:_ZNK12__TrackPoint22MotionThresholdChangedEd
libdframeworkdbus.so.2:_ZNK12__TrackPoint23WheelHorizScrollChangedEb
libdframeworkdbus.so.2:_ZNK12__TrackPoint25MotionAccelerationChangedEd
libdframeworkdbus.so.2:_ZNK12__TrackPoint26MiddleButtonEnabledChangedEb
libdframeworkdbus.so.2:_ZNK12__TrackPoint26MiddleButtonTimeoutChangedEi
libdframeworkdbus.so.2:_ZNK12__TrackPoint27WheelEmulationButtonChangedEi
libdframeworkdbus.so.2:_ZNK12__TrackPoint28WheelEmulationTimeoutChangedEi
libdframeworkdbus.so.2:_ZNK12__WMSwitcher10metaObjectEv
libdframeworkdbus.so.2:_ZNK13__ProxyChains10metaObjectEv
libdframeworkdbus.so.2:_ZNK13__ProxyChains11PortChangedEj
libdframeworkdbus.so.2:_ZNK13__ProxyChains11TypeChangedERK7QString
libdframeworkdbus.so.2:_ZNK13__ProxyChains11UserChangedERK7QString
libdframeworkdbus.so.2:_ZNK13__ProxyChains15PasswordChangedERK7QString
libdframeworkdbus.so.2:_ZNK13__ProxyChains9IPChangedERK7QString
libdframeworkdbus.so.2:_ZNK13__Smartmirror10metaObjectEv
libdframeworkdbus.so.2:_ZNK13__Smartmirror13EnableChangedEb
libdframeworkdbus.so.2:_ZNK13__SoundEffect10metaObjectEv
libdframeworkdbus.so.2:_ZNK13__SoundEffect14EnabledChangedEb
libdframeworkdbus.so.2:_ZNK13__SystemPower10metaObjectEv
libdframeworkdbus.so.2:_ZNK13__SystemPower16OnBatteryChangedEb
libdframeworkdbus.so.2:_ZNK13__SystemPower17HasBatteryChangedEb
libdframeworkdbus.so.2:_ZNK13__SystemPower19HasLidSwitchChangedEb
libdframeworkdbus.so.2:_ZNK13__SystemPower20BatteryStatusChangedEj
libdframeworkdbus.so.2:_ZNK13__SystemPower24BatteryPercentageChangedEd
libdframeworkdbus.so.2:_ZNK13__SystemPower24BatteryTimeToFullChangedEy
libdframeworkdbus.so.2:_ZNK13__SystemPower25BatteryTimeToEmptyChangedEy
libdframeworkdbus.so.2:_ZNK13__SystemPower26PowerSavingModeAutoChangedEb
libdframeworkdbus.so.2:_ZNK13__SystemPower29PowerSavingModeEnabledChangedEb
libdframeworkdbus.so.2:_ZNK14__InputDevices10metaObjectEv
libdframeworkdbus.so.2:_ZNK14__InputDevices12InfosChangedE5QListI11InputDeviceE
libdframeworkdbus.so.2:_ZNK14__InputDevices17WheelSpeedChangedEj
libdframeworkdbus.so.2:_ZNK14__LangSelector10metaObjectEv
libdframeworkdbus.so.2:_ZNK14__LangSelector18LocaleStateChangedEi
libdframeworkdbus.so.2:_ZNK14__LangSelector20CurrentLocaleChangedERK7QString
libdframeworkdbus.so.2:_ZNK14__Notification10metaObjectEv
libdframeworkdbus.so.2:_ZNK14__StartManager10metaObjectEv
libdframeworkdbus.so.2:_ZNK14__StartManager19NeededMemoryChangedEy
libdframeworkdbus.so.2:_ZNK15__Notifications10metaObjectEv
libdframeworkdbus.so.2:_ZNK15__XEventMonitor10metaObjectEv
libdframeworkdbus.so.2:_ZNK16__DisplayManager10metaObjectEv
libdframeworkdbus.so.2:_ZNK16__DisplayManager12SeatsChangedERK5QListI15QDBusObjectPathE
libdframeworkdbus.so.2:_ZNK16__DisplayManager15SessionsChangedERK5QListI15QDBusObjectPathE
libdframeworkdbus.so.2:_ZNK16__SessionManager10metaObjectEv
libdframeworkdbus.so.2:_ZNK16__SessionManager12StageChangedEi
libdframeworkdbus.so.2:_ZNK16__SessionManager13LockedChangedEb
libdframeworkdbus.so.2:_ZNK16__SessionManager17CurrentUidChangedERK7QString
libdframeworkdbus.so.2:_ZNK19__ConnectionSession10metaObjectEv
libdframeworkdbus.so.2:_ZNK19__ConnectionSession11TypeChangedERK7QString
libdframeworkdbus.so.2:_ZNK19__ConnectionSession11UuidChangedERK7QString
libdframeworkdbus.so.2:_ZNK19__ConnectionSession13ErrorsChangedE4QMapI7QStringS0_IS1_S1_EE
libdframeworkdbus.so.2:_ZNK19__ConnectionSession18AllowDeleteChangedEb
libdframeworkdbus.so.2:_ZNK19__ConnectionSession20AvailableKeysChangedE4QMapI7QString11QStringListE
libdframeworkdbus.so.2:_ZNK19__ConnectionSession21ConnectionPathChangedERK15QDBusObjectPath
libdframeworkdbus.so.2:_ZNK19__ConnectionSession24AvailableSectionsChangedERK11QStringList
libdframeworkdbus.so.2:_ZNK19__ConnectionSession28AllowEditConnectionIdChangedEb
libdframeworkdbus.so.2:_ZNK19__ConnectionSession31AvailableVirtualSectionsChangedERK11QStringList
libdframeworkdbus.so.2:_ZNK20__StatusNotifierItem10metaObjectEv
libdframeworkdbus.so.2:_ZNK20__StatusNotifierItem11MenuChangedERK15QDBusObjectPath
libdframeworkdbus.so.2:_ZNK20__StatusNotifierItem12TitleChangedERK7QString
libdframeworkdbus.so.2:_ZNK20__StatusNotifierItem13StatusChangedERK7QString
libdframeworkdbus.so.2:_ZNK20__StatusNotifierItem14ToolTipChangedE11DBusToolTip
libdframeworkdbus.so.2:_ZNK20__StatusNotifierItem15CategoryChangedERK7QString
libdframeworkdbus.so.2:_ZNK20__StatusNotifierItem15IconNameChangedERK7QString
libdframeworkdbus.so.2:_ZNK20__StatusNotifierItem15WindowIdChangedEi
libdframeworkdbus.so.2:_ZNK20__StatusNotifierItem17IconPixmapChangedE5QListI9DBusImageE
libdframeworkdbus.so.2:_ZNK20__StatusNotifierItem17ItemIsMenuChangedEb
libdframeworkdbus.so.2:_ZNK20__StatusNotifierItem20IconThemePathChangedERK7QString
libdframeworkdbus.so.2:_ZNK20__StatusNotifierItem22OverlayIconNameChangedERK7QString
libdframeworkdbus.so.2:_ZNK20__StatusNotifierItem24AttentionIconNameChangedERK7QString
libdframeworkdbus.so.2:_ZNK20__StatusNotifierItem24OverlayIconPixmapChangedE5QListI9DBusImageE
libdframeworkdbus.so.2:_ZNK20__StatusNotifierItem25AttentionMovieNameChangedERK7QString
libdframeworkdbus.so.2:_ZNK20__StatusNotifierItem26AttentionIconPixmapChangedE5QListI9DBusImageE
libdframeworkdbus.so.2:_ZNK20__StatusNotifierItem9IdChangedERK7QString
libdframeworkdbus.so.2:_ZNK22__LastoreSessionHelper10metaObjectEv
libdframeworkdbus.so.2:_ZNK22__LastoreSessionHelper25SourceCheckEnabledChangedEb
libdframeworkdbus.so.2:_ZNK29DBusExtendedAbstractInterface10metaObjectEv
libdframeworkdbus.so.2:_ZNK29DBusExtendedAbstractInterface19serviceValidChangedEb
libdframeworkdbus.so.2:_ZNK29DBusExtendedAbstractInterface20serviceStartFinishedEj
libdframeworkdbus.so.2:_ZNK30DBusExtendedPendingCallWatcher10metaObjectEv
libdframeworkdbus.so.2:_ZNK4__wm10metaObjectEv
libdframeworkdbus.so.2:_ZNK5__Job10metaObjectEv
libdframeworkdbus.so.2:_ZNK5__Job11TypeChangedERK7QString
libdframeworkdbus.so.2:_ZNK5__Job12SpeedChangedEx
libdframeworkdbus.so.2:_ZNK5__Job13StatusChangedERK7QString
libdframeworkdbus.so.2:_ZNK5__Job15ProgressChangedEd
libdframeworkdbus.so.2:_ZNK5__Job16PackageIdChangedERK7QString
libdframeworkdbus.so.2:_ZNK5__Job17CancelableChangedEb
libdframeworkdbus.so.2:_ZNK5__Job17CreateTimeChangedEx
libdframeworkdbus.so.2:_ZNK5__Job18DescriptionChangedERK7QString
libdframeworkdbus.so.2:_ZNK5__Job18ElapsedTimeChangedEi
libdframeworkdbus.so.2:_ZNK5__Job9IdChangedERK7QString
libdframeworkdbus.so.2:_ZNK6__Dock10metaObjectEv
libdframeworkdbus.so.2:_ZNK6__Dock14EntriesChangedERK5QListI15QDBusObjectPathE
libdframeworkdbus.so.2:_ZNK6__Dock14OpacityChangedEd
libdframeworkdbus.so.2:_ZNK6__Dock15HideModeChangedEi
libdframeworkdbus.so.2:_ZNK6__Dock15IconSizeChangedEj
libdframeworkdbus.so.2:_ZNK6__Dock15PositionChangedEi
libdframeworkdbus.so.2:_ZNK6__Dock16HideStateChangedEi
libdframeworkdbus.so.2:_ZNK6__Dock17DockedAppsChangedERK11QStringList
libdframeworkdbus.so.2:_ZNK6__Dock18DisplayModeChangedEi
libdframeworkdbus.so.2:_ZNK6__Dock18HideTimeoutChangedEj
libdframeworkdbus.so.2:_ZNK6__Dock18ShowTimeoutChangedEj
libdframeworkdbus.so.2:_ZNK6__Dock25FrontendWindowRectChangedE8DockRect
libdframeworkdbus.so.2:_ZNK6__Mime10metaObjectEv
libdframeworkdbus.so.2:_ZNK6__Seat10metaObjectEv
libdframeworkdbus.so.2:_ZNK6__Seat15SessionsChangedERK5QListI15QDBusObjectPathE
libdframeworkdbus.so.2:_ZNK6__Seat16CanSwitchChangedEb
libdframeworkdbus.so.2:_ZNK6__Seat22HasGuestAccountChangedEb
libdframeworkdbus.so.2:_ZNK6__Sink10metaObjectEv
libdframeworkdbus.so.2:_ZNK6__Sink11CardChangedEj
libdframeworkdbus.so.2:_ZNK6__Sink11FadeChangedEd
libdframeworkdbus.so.2:_ZNK6__Sink11MuteChangedEb
libdframeworkdbus.so.2:_ZNK6__Sink11NameChangedERK7QString
libdframeworkdbus.so.2:_ZNK6__Sink12PortsChangedE5QListI9AudioPortE
libdframeworkdbus.so.2:_ZNK6__Sink13VolumeChangedEd
libdframeworkdbus.so.2:_ZNK6__Sink14BalanceChangedEd
libdframeworkdbus.so.2:_ZNK6__Sink17ActivePortChangedE9AudioPort
libdframeworkdbus.so.2:_ZNK6__Sink17BaseVolumeChangedEd
libdframeworkdbus.so.2:_ZNK6__Sink18DescriptionChangedERK7QString
libdframeworkdbus.so.2:_ZNK6__Sink18SupportFadeChangedEb
libdframeworkdbus.so.2:_ZNK6__Sink21SupportBalanceChangedEb
libdframeworkdbus.so.2:_ZNK6__User10GidChangedERK7QString
libdframeworkdbus.so.2:_ZNK6__User10UidChangedERK7QString
libdframeworkdbus.so.2:_ZNK6__User10metaObjectEv
libdframeworkdbus.so.2:_ZNK6__User12ShellChangedERK7QString
libdframeworkdbus.so.2:_ZNK6__User13LayoutChangedERK7QString
libdframeworkdbus.so.2:_ZNK6__User13LocaleChangedERK7QString
libdframeworkdbus.so.2:_ZNK6__User13LockedChangedEb
libdframeworkdbus.so.2:_ZNK6__User14HomeDirChangedERK7QString
libdframeworkdbus.so.2:_ZNK6__User15FullNameChangedERK7QString
libdframeworkdbus.so.2:_ZNK6__User15IconFileChangedERK7QString
libdframeworkdbus.so.2:_ZNK6__User15IconListChangedERK11QStringList
libdframeworkdbus.so.2:_ZNK6__User15UserNameChangedERK7QString
libdframeworkdbus.so.2:_ZNK6__User15XSessionChangedERK7QString
libdframeworkdbus.so.2:_ZNK6__User16LoginTimeChangedEy
libdframeworkdbus.so.2:_ZNK6__User18AccountTypeChangedEi
libdframeworkdbus.so.2:_ZNK6__User20HistoryLayoutChangedERK11QStringList
libdframeworkdbus.so.2:_ZNK6__User20NoPasswdLoginChangedEb
libdframeworkdbus.so.2:_ZNK6__User20SystemAccountChangedEb
libdframeworkdbus.so.2:_ZNK6__User21AutomaticLoginChangedEb
libdframeworkdbus.so.2:_ZNK6__User21PasswordStatusChangedERK7QString
libdframeworkdbus.so.2:_ZNK6__User24GreeterBackgroundChangedERK7QString
libdframeworkdbus.so.2:_ZNK6__User25DesktopBackgroundsChangedERK11QStringList
libdframeworkdbus.so.2:_ZNK7__Audio10metaObjectEv
libdframeworkdbus.so.2:_ZNK7__Audio12CardsChangedERK7QString
libdframeworkdbus.so.2:_ZNK7__Audio17SinkInputsChangedERK5QListI15QDBusObjectPathE
libdframeworkdbus.so.2:_ZNK7__Audio18DefaultSinkChangedERK15QDBusObjectPath
libdframeworkdbus.so.2:_ZNK7__Audio18MaxUIVolumeChangedEd
libdframeworkdbus.so.2:_ZNK7__Audio20DefaultSourceChangedERK15QDBusObjectPath
libdframeworkdbus.so.2:_ZNK7__Entry10metaObjectEv
libdframeworkdbus.so.2:_ZNK7__Entry11IconChangedERK7QString
libdframeworkdbus.so.2:_ZNK7__Entry11MenuChangedERK7QString
libdframeworkdbus.so.2:_ZNK7__Entry11NameChangedERK7QString
libdframeworkdbus.so.2:_ZNK7__Entry15IsActiveChangedEb
libdframeworkdbus.so.2:_ZNK7__Entry15IsDockedChangedEb
libdframeworkdbus.so.2:_ZNK7__Entry18DesktopFileChangedERK7QString
libdframeworkdbus.so.2:_ZNK7__Entry18WindowInfosChangedE4QMapIj10WindowInfoE
libdframeworkdbus.so.2:_ZNK7__Entry20CurrentWindowChangedEj
libdframeworkdbus.so.2:_ZNK7__Entry9IdChangedERK7QString
libdframeworkdbus.so.2:_ZNK7__Grub210metaObjectEv
libdframeworkdbus.so.2:_ZNK7__Grub212ThemeChangedERK7QString
libdframeworkdbus.so.2:_ZNK7__Grub214TimeoutChangedEj
libdframeworkdbus.so.2:_ZNK7__Grub215UpdatingChangedEb
libdframeworkdbus.so.2:_ZNK7__Grub217ResolutionChangedERK7QString
libdframeworkdbus.so.2:_ZNK7__Grub218EnableThemeChangedEb
libdframeworkdbus.so.2:_ZNK7__Grub219DefaultEntryChangedERK7QString
libdframeworkdbus.so.2:_ZNK7__Media10metaObjectEv
libdframeworkdbus.so.2:_ZNK7__Media15AutoOpenChangedEb
libdframeworkdbus.so.2:_ZNK7__Meter10metaObjectEv
libdframeworkdbus.so.2:_ZNK7__Meter13VolumeChangedEd
libdframeworkdbus.so.2:_ZNK7__Mouse10metaObjectEv
libdframeworkdbus.so.2:_ZNK7__Mouse12ExistChangedEb
libdframeworkdbus.so.2:_ZNK7__Mouse17DeviceListChangedERK7QString
libdframeworkdbus.so.2:_ZNK7__Mouse17LeftHandedChangedEb
libdframeworkdbus.so.2:_ZNK7__Mouse18DisableTpadChangedEb
libdframeworkdbus.so.2:_ZNK7__Mouse18DoubleClickChangedEi
libdframeworkdbus.so.2:_ZNK7__Mouse20DragThresholdChangedEi
libdframeworkdbus.so.2:_ZNK7__Mouse20MotionScalingChangedEd
libdframeworkdbus.so.2:_ZNK7__Mouse20NaturalScrollChangedEb
libdframeworkdbus.so.2:_ZNK7__Mouse22MotionThresholdChangedEd
libdframeworkdbus.so.2:_ZNK7__Mouse25MotionAccelerationChangedEd
libdframeworkdbus.so.2:_ZNK7__Mouse27AdaptiveAccelProfileChangedEb
libdframeworkdbus.so.2:_ZNK7__Mouse28MiddleButtonEmulationChangedEb
libdframeworkdbus.so.2:_ZNK7__Power10metaObjectEv
libdframeworkdbus.so.2:_ZNK7__Power16OnBatteryChangedEb
libdframeworkdbus.so.2:_ZNK7__Power16SleepLockChangedEb
libdframeworkdbus.so.2:_ZNK7__Power16WarnLevelChangedEj
libdframeworkdbus.so.2:_ZNK7__Power19BatteryStateChangedE4QMapI7QStringjE
libdframeworkdbus.so.2:_ZNK7__Power19LidIsPresentChangedEb
libdframeworkdbus.so.2:_ZNK7__Power21LidClosedSleepChangedEb
libdframeworkdbus.so.2:_ZNK7__Power22ScreenBlackLockChangedEb
libdframeworkdbus.so.2:_ZNK7__Power23BatteryIsPresentChangedE4QMapI7QStringbE
libdframeworkdbus.so.2:_ZNK7__Power24BatteryPercentageChangedE4QMapI7QStringdE
libdframeworkdbus.so.2:_ZNK7__Power24BatterySleepDelayChangedEi
libdframeworkdbus.so.2:_ZNK7__Power26LinePowerSleepDelayChangedEi
libdframeworkdbus.so.2:_ZNK7__Power28BatteryLidClosedSleepChangedEb
libdframeworkdbus.so.2:_ZNK7__Power28HasAmbientLightSensorChangedEb
libdframeworkdbus.so.2:_ZNK7__Power30BatteryScreenBlackDelayChangedEi
libdframeworkdbus.so.2:_ZNK7__Power30BatteryScreensaverDelayChangedEi
libdframeworkdbus.so.2:_ZNK7__Power30LinePowerLidClosedSleepChangedEb
libdframeworkdbus.so.2:_ZNK7__Power32LinePowerScreenBlackDelayChangedEi
libdframeworkdbus.so.2:_ZNK7__Power32LinePowerScreensaverDelayChangedEi
libdframeworkdbus.so.2:_ZNK7__Power35AmbientLightAdjustBrightnessChangedEb
libdframeworkdbus.so.2:_ZNK7__Theme10metaObjectEv
libdframeworkdbus.so.2:_ZNK7__Theme15UpdatingChangedEb
libdframeworkdbus.so.2:_ZNK7__Theme16ItemColorChangedERK7QString
libdframeworkdbus.so.2:_ZNK7__Theme24SelectedItemColorChangedERK7QString
libdframeworkdbus.so.2:_ZNK7__Wacom10metaObjectEv
libdframeworkdbus.so.2:_ZNK7__Wacom12ExistChangedEb
libdframeworkdbus.so.2:_ZNK7__Wacom15SuppressChangedEj
libdframeworkdbus.so.2:_ZNK7__Wacom16MapOutputChangedERK7QString
libdframeworkdbus.so.2:_ZNK7__Wacom17CursorModeChangedEb
libdframeworkdbus.so.2:_ZNK7__Wacom17DeviceListChangedERK7QString
libdframeworkdbus.so.2:_ZNK7__Wacom17LeftHandedChangedEb
libdframeworkdbus.so.2:_ZNK7__Wacom18ActionInfosChangedE5QListI11WacomDeviceE
libdframeworkdbus.so.2:_ZNK7__Wacom18KeyUpActionChangedERK7QString
libdframeworkdbus.so.2:_ZNK7__Wacom20KeyDownActionChangedERK7QString
libdframeworkdbus.so.2:_ZNK7__Wacom22EraserRawSampleChangedEj
libdframeworkdbus.so.2:_ZNK7__Wacom22EraserThresholdChangedEj
libdframeworkdbus.so.2:_ZNK7__Wacom22StylusRawSampleChangedEj
libdframeworkdbus.so.2:_ZNK7__Wacom22StylusThresholdChangedEj
libdframeworkdbus.so.2:_ZNK7__Wacom30EraserPressureSensitiveChangedEj
libdframeworkdbus.so.2:_ZNK7__Wacom30StylusPressureSensitiveChangedEj
libdframeworkdbus.so.2:_ZNK8DockRectcv5QRectEv
libdframeworkdbus.so.2:_ZNK8ZoneInfoeqERKS_
libdframeworkdbus.so.2:_ZNK8__Device10metaObjectEv
libdframeworkdbus.so.2:_ZNK8__Login110metaObjectEv
libdframeworkdbus.so.2:_ZNK8__Login113DockedChangedEb
libdframeworkdbus.so.2:_ZNK8__Login115IdleHintChangedEb
libdframeworkdbus.so.2:_ZNK8__Login115NAutoVTsChangedEj
libdframeworkdbus.so.2:_ZNK8__Login116RemoveIPCChangedEb
libdframeworkdbus.so.2:_ZNK8__Login117IdleActionChangedERK7QString
libdframeworkdbus.so.2:_ZNK8__Login118SessionsMaxChangedEy
libdframeworkdbus.so.2:_ZNK8__Login118WallMessageChangedERK7QString
libdframeworkdbus.so.2:_ZNK8__Login119UserTasksMaxChangedEy
libdframeworkdbus.so.2:_ZNK8__Login120IdleSinceHintChangedEy
libdframeworkdbus.so.2:_ZNK8__Login120InhibitorsMaxChangedEy
libdframeworkdbus.so.2:_ZNK8__Login120KillOnlyUsersChangedERK11QStringList
libdframeworkdbus.so.2:_ZNK8__Login121BlockInhibitedChangedERK7QString
libdframeworkdbus.so.2:_ZNK8__Login121DelayInhibitedChangedERK7QString
libdframeworkdbus.so.2:_ZNK8__Login121HandlePowerKeyChangedERK7QString
libdframeworkdbus.so.2:_ZNK8__Login121IdleActionUSecChangedEy
libdframeworkdbus.so.2:_ZNK8__Login122HandleLidSwitchChangedERK7QString
libdframeworkdbus.so.2:_ZNK8__Login123HandleSuspendKeyChangedERK7QString
libdframeworkdbus.so.2:_ZNK8__Login123KillExcludeUsersChangedERK11QStringList
libdframeworkdbus.so.2:_ZNK8__Login123NCurrentSessionsChangedEy
libdframeworkdbus.so.2:_ZNK8__Login124KillUserProcessesChangedEb
libdframeworkdbus.so.2:_ZNK8__Login124PreparingForSleepChangedEb
libdframeworkdbus.so.2:_ZNK8__Login125EnableWallMessagesChangedEb
libdframeworkdbus.so.2:_ZNK8__Login125HandleHibernateKeyChangedERK7QString
libdframeworkdbus.so.2:_ZNK8__Login125HoldoffTimeoutUSecChangedEy
libdframeworkdbus.so.2:_ZNK8__Login125NCurrentInhibitorsChangedEy
libdframeworkdbus.so.2:_ZNK8__Login126InhibitDelayMaxUSecChangedEy
libdframeworkdbus.so.2:_ZNK8__Login127PreparingForShutdownChangedEb
libdframeworkdbus.so.2:_ZNK8__Login127RuntimeDirectorySizeChangedEy
libdframeworkdbus.so.2:_ZNK8__Login128HandleLidSwitchDockedChangedERK7QString
libdframeworkdbus.so.2:_ZNK8__Login128RebootToFirmwareSetupChangedEb
libdframeworkdbus.so.2:_ZNK8__Login129IdleSinceHintMonotonicChangedEy
libdframeworkdbus.so.2:_ZNK8__Search10metaObjectEv
libdframeworkdbus.so.2:_ZNK8__Source10metaObjectEv
libdframeworkdbus.so.2:_ZNK8__Source11CardChangedEj
libdframeworkdbus.so.2:_ZNK8__Source11FadeChangedEd
libdframeworkdbus.so.2:_ZNK8__Source11MuteChangedEb
libdframeworkdbus.so.2:_ZNK8__Source11NameChangedERK7QString
libdframeworkdbus.so.2:_ZNK8__Source12PortsChangedE5QListI9AudioPortE
libdframeworkdbus.so.2:_ZNK8__Source13VolumeChangedEd
libdframeworkdbus.so.2:_ZNK8__Source14BalanceChangedEd
libdframeworkdbus.so.2:_ZNK8__Source17ActivePortChangedE9AudioPort
libdframeworkdbus.so.2:_ZNK8__Source17BaseVolumeChangedEd
libdframeworkdbus.so.2:_ZNK8__Source18DescriptionChangedERK7QString
libdframeworkdbus.so.2:_ZNK8__Source18SupportFadeChangedEb
libdframeworkdbus.so.2:_ZNK8__Source21SupportBalanceChangedEb
libdframeworkdbus.so.2:_ZNK8__daemon10metaObjectEv
libdframeworkdbus.so.2:_ZNK8__daemon12StateChangedE9IntString
libdframeworkdbus.so.2:_ZNK8__daemon19LastSyncTimeChangedEx
libdframeworkdbus.so.2:_ZNK8__window10metaObjectEv
libdframeworkdbus.so.2:_ZNK9__Display10metaObjectEv
libdframeworkdbus.so.2:_ZNK9__Display14PrimaryChangedERK7QString
libdframeworkdbus.so.2:_ZNK9__Display15MonitorsChangedERK5QListI15QDBusObjectPathE
libdframeworkdbus.so.2:_ZNK9__Display17BrightnessChangedE4QMapI7QStringdE
libdframeworkdbus.so.2:_ZNK9__Display17HasChangedChangedEb
libdframeworkdbus.so.2:_ZNK9__Display18DisplayModeChangedEh
libdframeworkdbus.so.2:_ZNK9__Display18PrimaryRectChangedE10ScreenRect
libdframeworkdbus.so.2:_ZNK9__Display18ScreenWidthChangedEt
libdframeworkdbus.so.2:_ZNK9__Display19CustomIdListChangedERK11QStringList
libdframeworkdbus.so.2:_ZNK9__Display19ScreenHeightChangedEt
libdframeworkdbus.so.2:_ZNK9__Display22CurrentCustomIdChangedERK7QString
libdframeworkdbus.so.2:_ZNK9__Fprintd10metaObjectEv
libdframeworkdbus.so.2:_ZNK9__Logined10metaObjectEv
libdframeworkdbus.so.2:_ZNK9__Logined15UserListChangedERK7QString
libdframeworkdbus.so.2:_ZNK9__Logined21LastLogoutUserChangedEj
libdframeworkdbus.so.2:_ZNK9__Monitor10metaObjectEv
libdframeworkdbus.so.2:_ZNK9__Monitor11NameChangedERK7QString
libdframeworkdbus.so.2:_ZNK9__Monitor12ModesChangedE5QListI10ResolutionE
libdframeworkdbus.so.2:_ZNK9__Monitor12WidthChangedEt
libdframeworkdbus.so.2:_ZNK9__Monitor13HeightChangedEt
libdframeworkdbus.so.2:_ZNK9__Monitor14EnabledChangedEb
libdframeworkdbus.so.2:_ZNK9__Monitor14ReflectChangedEt
libdframeworkdbus.so.2:_ZNK9__Monitor15BestModeChangedE10Resolution
libdframeworkdbus.so.2:_ZNK9__Monitor15ReflectsChangedE5QListItE
libdframeworkdbus.so.2:_ZNK9__Monitor15RotationChangedEt
libdframeworkdbus.so.2:_ZNK9__Monitor16ConnectedChangedEb
libdframeworkdbus.so.2:_ZNK9__Monitor16RotationsChangedE5QListItE
libdframeworkdbus.so.2:_ZNK9__Monitor18CurrentModeChangedE10Resolution
libdframeworkdbus.so.2:_ZNK9__Monitor18RefreshRateChangedEd
libdframeworkdbus.so.2:_ZNK9__Monitor8XChangedEs
libdframeworkdbus.so.2:_ZNK9__Monitor8YChangedEs
libdframeworkdbus.so.2:_ZNK9__Network10metaObjectEv
libdframeworkdbus.so.2:_ZNK9__Network12StateChangedEj
libdframeworkdbus.so.2:_ZNK9__Network14DevicesChangedERK7QString
libdframeworkdbus.so.2:_ZNK9__Network17VpnEnabledChangedEb
libdframeworkdbus.so.2:_ZNK9__Network18ConnectionsChangedERK7QString
libdframeworkdbus.so.2:_ZNK9__Network19ConnectivityChangedEj
libdframeworkdbus.so.2:_ZNK9__Network24ActiveConnectionsChangedERK7QString
libdframeworkdbus.so.2:_ZNK9__Network24NetworkingEnabledChangedEb
libdframeworkdbus.so.2:_ZNK9__Session10metaObjectEv
libdframeworkdbus.so.2:_ZNK9__Session11SeatChangedERK15QDBusObjectPath
libdframeworkdbus.so.2:_ZNK9__Session15UserNameChangedERK7QString
libdframeworkdbus.so.2:_ZNK9__Updater10metaObjectEv
libdframeworkdbus.so.2:_ZNK9__Updater19MirrorSourceChangedERK7QString
libdframeworkdbus.so.2:_ZNK9__Updater20UpdatableAppsChangedERK11QStringList
libdframeworkdbus.so.2:_ZNK9__Updater23AutoCheckUpdatesChangedEb
libdframeworkdbus.so.2:_ZNK9__Updater24UpdatablePackagesChangedERK11QStringList
libdframeworkdbus.so.2:_ZNK9__Updater26AutoDownloadUpdatesChangedEb
libdframeworkdbus.so.2:_ZNK9__matcher10metaObjectEv
libdframeworkdbus.so.2:_ZeqRK11DBusToolTipS1_
libdframeworkdbus.so.2:_ZeqRK9DBusImageS1_
libdframeworkdbus.so.2:_Zls6QDebugRK10MirrorInfo
libdframeworkdbus.so.2:_Zls6QDebugRK10ScreenRect
libdframeworkdbus.so.2:_Zls6QDebugRK10WindowInfo
libdframeworkdbus.so.2:_Zls6QDebugRK13AppUpdateInfo
libdframeworkdbus.so.2:_Zls6QDebugRK8DockRect
libdframeworkdbus.so.2:_Zls6QDebugRK8LinkInfo
libdframeworkdbus.so.2:_Zls6QDebugRK8SinkInfo
libdframeworkdbus.so.2:_Zls6QDebugRK8ZoneInfo
libdframeworkdbus.so.2:_ZlsR11QDataStreamRK10LocaleInfo
libdframeworkdbus.so.2:_ZlsR11QDataStreamRK8ZoneInfo
libdframeworkdbus.so.2:_ZlsR13QDBusArgumentRK10LocaleInfo
libdframeworkdbus.so.2:_ZlsR13QDBusArgumentRK10MirrorInfo
libdframeworkdbus.so.2:_ZlsR13QDBusArgumentRK10Resolution
libdframeworkdbus.so.2:_ZlsR13QDBusArgumentRK10ScreenRect
libdframeworkdbus.so.2:_ZlsR13QDBusArgumentRK10WindowInfo
libdframeworkdbus.so.2:_ZlsR13QDBusArgumentRK11DBusToolTip
libdframeworkdbus.so.2:_ZlsR13QDBusArgumentRK11InputDevice
libdframeworkdbus.so.2:_ZlsR13QDBusArgumentRK11WacomDevice
libdframeworkdbus.so.2:_ZlsR13QDBusArgumentRK13AppUpdateInfo
libdframeworkdbus.so.2:_ZlsR13QDBusArgumentRK13ChromeTabInfo
libdframeworkdbus.so.2:_ZlsR13QDBusArgumentRK8DockRect
libdframeworkdbus.so.2:_ZlsR13QDBusArgumentRK8LinkInfo
libdframeworkdbus.so.2:_ZlsR13QDBusArgumentRK8Property
libdframeworkdbus.so.2:_ZlsR13QDBusArgumentRK8SinkInfo
libdframeworkdbus.so.2:_ZlsR13QDBusArgumentRK8ZoneInfo
libdframeworkdbus.so.2:_ZlsR13QDBusArgumentRK9DBusImage
libdframeworkdbus.so.2:_ZlsR13QDBusArgumentRK9IntString
libdframeworkdbus.so.2:_ZneRK11DBusToolTipS1_
libdframeworkdbus.so.2:_ZneRK9DBusImageS1_
libdframeworkdbus.so.2:_ZrsR11QDataStreamR10LocaleInfo
libdframeworkdbus.so.2:_ZrsR11QDataStreamR8ZoneInfo
libdframeworkdbus.so.2:_ZrsRK13QDBusArgumentR10LocaleInfo
libdframeworkdbus.so.2:_ZrsRK13QDBusArgumentR10MirrorInfo
libdframeworkdbus.so.2:_ZrsRK13QDBusArgumentR10Resolution
libdframeworkdbus.so.2:_ZrsRK13QDBusArgumentR10ScreenRect
libdframeworkdbus.so.2:_ZrsRK13QDBusArgumentR10WindowInfo
libdframeworkdbus.so.2:_ZrsRK13QDBusArgumentR11DBusToolTip
libdframeworkdbus.so.2:_ZrsRK13QDBusArgumentR11InputDevice
libdframeworkdbus.so.2:_ZrsRK13QDBusArgumentR11WacomDevice
libdframeworkdbus.so.2:_ZrsRK13QDBusArgumentR13AppUpdateInfo
libdframeworkdbus.so.2:_ZrsRK13QDBusArgumentR13ChromeTabInfo
libdframeworkdbus.so.2:_ZrsRK13QDBusArgumentR8DockRect
libdframeworkdbus.so.2:_ZrsRK13QDBusArgumentR8LinkInfo
libdframeworkdbus.so.2:_ZrsRK13QDBusArgumentR8Property
libdframeworkdbus.so.2:_ZrsRK13QDBusArgumentR8SinkInfo
libdframeworkdbus.so.2:_ZrsRK13QDBusArgumentR8ZoneInfo
libdframeworkdbus.so.2:_ZrsRK13QDBusArgumentR9DBusImage
libdframeworkdbus.so.2:_ZrsRK13QDBusArgumentR9IntString
