liblightdm-qt5-3.so.0:_ZN20SessionsModelPrivate12loadSessionsEN8QLightDM13SessionsModel11SessionTypeE
liblightdm-qt5-3.so.0:_ZN20SessionsModelPrivateC1EPN8QLightDM13SessionsModelE
liblightdm-qt5-3.so.0:_ZN20SessionsModelPrivateC2EPN8QLightDM13SessionsModelE
liblightdm-qt5-3.so.0:_ZN8QLightDM10UsersModel11qt_metacallEN11QMetaObject4CallEiPPv
liblightdm-qt5-3.so.0:_ZN8QLightDM10UsersModel11qt_metacastEPKc
liblightdm-qt5-3.so.0:_ZN8QLightDM10UsersModelC1EP7QObject
liblightdm-qt5-3.so.0:_ZN8QLightDM10UsersModelC2EP7QObject
liblightdm-qt5-3.so.0:_ZN8QLightDM10UsersModelD0Ev
liblightdm-qt5-3.so.0:_ZN8QLightDM10UsersModelD1Ev
liblightdm-qt5-3.so.0:_ZN8QLightDM10UsersModelD2Ev
liblightdm-qt5-3.so.0:_ZN8QLightDM13SessionsModel11qt_metacallEN11QMetaObject4CallEiPPv
liblightdm-qt5-3.so.0:_ZN8QLightDM13SessionsModel11qt_metacastEPKc
liblightdm-qt5-3.so.0:_ZN8QLightDM13SessionsModelC1ENS0_11SessionTypeEP7QObject
liblightdm-qt5-3.so.0:_ZN8QLightDM13SessionsModelC1EP7QObject
liblightdm-qt5-3.so.0:_ZN8QLightDM13SessionsModelC2ENS0_11SessionTypeEP7QObject
liblightdm-qt5-3.so.0:_ZN8QLightDM13SessionsModelC2EP7QObject
liblightdm-qt5-3.so.0:_ZN8QLightDM13SessionsModelD0Ev
liblightdm-qt5-3.so.0:_ZN8QLightDM13SessionsModelD1Ev
liblightdm-qt5-3.so.0:_ZN8QLightDM13SessionsModelD2Ev
liblightdm-qt5-3.so.0:_ZN8QLightDM14GreeterPrivate13cb_showPromptEP15_LightDMGreeterPKc17LightDMPromptTypePv
liblightdm-qt5-3.so.0:_ZN8QLightDM14GreeterPrivate14cb_showMessageEP15_LightDMGreeterPKc18LightDMMessageTypePv
liblightdm-qt5-3.so.0:_ZN8QLightDM14GreeterPrivate19cb_autoLoginExpiredEP15_LightDMGreeterPv
liblightdm-qt5-3.so.0:_ZN8QLightDM14GreeterPrivate25cb_authenticationCompleteEP15_LightDMGreeterPv
liblightdm-qt5-3.so.0:_ZN8QLightDM14GreeterPrivate7cb_idleEP15_LightDMGreeterPv
liblightdm-qt5-3.so.0:_ZN8QLightDM14GreeterPrivate8cb_resetEP15_LightDMGreeterPv
liblightdm-qt5-3.so.0:_ZN8QLightDM14GreeterPrivateC1EPNS_7GreeterE
liblightdm-qt5-3.so.0:_ZN8QLightDM14GreeterPrivateC2EPNS_7GreeterE
liblightdm-qt5-3.so.0:_ZN8QLightDM14PowerInterface10canRestartEv
liblightdm-qt5-3.so.0:_ZN8QLightDM14PowerInterface10canSuspendEv
liblightdm-qt5-3.so.0:_ZN8QLightDM14PowerInterface11canShutdownEv
liblightdm-qt5-3.so.0:_ZN8QLightDM14PowerInterface11qt_metacallEN11QMetaObject4CallEiPPv
liblightdm-qt5-3.so.0:_ZN8QLightDM14PowerInterface11qt_metacastEPKc
liblightdm-qt5-3.so.0:_ZN8QLightDM14PowerInterface12canHibernateEv
liblightdm-qt5-3.so.0:_ZN8QLightDM14PowerInterface21PowerInterfacePrivateC1Ev
liblightdm-qt5-3.so.0:_ZN8QLightDM14PowerInterface21PowerInterfacePrivateC2Ev
liblightdm-qt5-3.so.0:_ZN8QLightDM14PowerInterface7restartEv
liblightdm-qt5-3.so.0:_ZN8QLightDM14PowerInterface7suspendEv
liblightdm-qt5-3.so.0:_ZN8QLightDM14PowerInterface8shutdownEv
liblightdm-qt5-3.so.0:_ZN8QLightDM14PowerInterface9hibernateEv
liblightdm-qt5-3.so.0:_ZN8QLightDM14PowerInterfaceC1EP7QObject
liblightdm-qt5-3.so.0:_ZN8QLightDM14PowerInterfaceC2EP7QObject
liblightdm-qt5-3.so.0:_ZN8QLightDM14PowerInterfaceD0Ev
liblightdm-qt5-3.so.0:_ZN8QLightDM14PowerInterfaceD1Ev
liblightdm-qt5-3.so.0:_ZN8QLightDM14PowerInterfaceD2Ev
liblightdm-qt5-3.so.0:_ZN8QLightDM17UsersModelPrivate12cb_userAddedEP16_LightDMUserListP12_LightDMUserPv
liblightdm-qt5-3.so.0:_ZN8QLightDM17UsersModelPrivate14cb_userChangedEP16_LightDMUserListP12_LightDMUserPv
liblightdm-qt5-3.so.0:_ZN8QLightDM17UsersModelPrivate14cb_userRemovedEP16_LightDMUserListP12_LightDMUserPv
liblightdm-qt5-3.so.0:_ZN8QLightDM17UsersModelPrivate9loadUsersEv
liblightdm-qt5-3.so.0:_ZN8QLightDM17UsersModelPrivateC1EPNS_10UsersModelE
liblightdm-qt5-3.so.0:_ZN8QLightDM17UsersModelPrivateC2EPNS_10UsersModelE
liblightdm-qt5-3.so.0:_ZN8QLightDM17UsersModelPrivateD0Ev
liblightdm-qt5-3.so.0:_ZN8QLightDM17UsersModelPrivateD1Ev
liblightdm-qt5-3.so.0:_ZN8QLightDM17UsersModelPrivateD2Ev
liblightdm-qt5-3.so.0:_ZN8QLightDM7Greeter10showPromptE7QStringNS0_10PromptTypeE
liblightdm-qt5-3.so.0:_ZN8QLightDM7Greeter11connectSyncEv
liblightdm-qt5-3.so.0:_ZN8QLightDM7Greeter11qt_metacallEN11QMetaObject4CallEiPPv
liblightdm-qt5-3.so.0:_ZN8QLightDM7Greeter11qt_metacastEPKc
liblightdm-qt5-3.so.0:_ZN8QLightDM7Greeter11setLanguageERK7QString
liblightdm-qt5-3.so.0:_ZN8QLightDM7Greeter11showMessageE7QStringNS0_11MessageTypeE
liblightdm-qt5-3.so.0:_ZN8QLightDM7Greeter12authenticateERK7QString
liblightdm-qt5-3.so.0:_ZN8QLightDM7Greeter13setResettableEb
liblightdm-qt5-3.so.0:_ZN8QLightDM7Greeter15cancelAutologinEv
liblightdm-qt5-3.so.0:_ZN8QLightDM7Greeter16startSessionSyncERK7QString
liblightdm-qt5-3.so.0:_ZN8QLightDM7Greeter18authenticateRemoteERK7QStringS3_
liblightdm-qt5-3.so.0:_ZN8QLightDM7Greeter19authenticateAsGuestEv
liblightdm-qt5-3.so.0:_ZN8QLightDM7Greeter19connectToDaemonSyncEv
liblightdm-qt5-3.so.0:_ZN8QLightDM7Greeter20cancelAuthenticationEv
liblightdm-qt5-3.so.0:_ZN8QLightDM7Greeter21authenticateAutologinEv
liblightdm-qt5-3.so.0:_ZN8QLightDM7Greeter21autologinTimerExpiredEv
liblightdm-qt5-3.so.0:_ZN8QLightDM7Greeter22authenticationCompleteEv
liblightdm-qt5-3.so.0:_ZN8QLightDM7Greeter23ensureSharedDataDirSyncERK7QString
liblightdm-qt5-3.so.0:_ZN8QLightDM7Greeter4idleEv
liblightdm-qt5-3.so.0:_ZN8QLightDM7Greeter5resetEv
liblightdm-qt5-3.so.0:_ZN8QLightDM7Greeter7respondERK7QString
liblightdm-qt5-3.so.0:_ZN8QLightDM7GreeterC1EP7QObject
liblightdm-qt5-3.so.0:_ZN8QLightDM7GreeterC2EP7QObject
liblightdm-qt5-3.so.0:_ZN8QLightDM7GreeterD0Ev
liblightdm-qt5-3.so.0:_ZN8QLightDM7GreeterD1Ev
liblightdm-qt5-3.so.0:_ZN8QLightDM7GreeterD2Ev
liblightdm-qt5-3.so.0:_ZNK8QLightDM10UsersModel10metaObjectEv
liblightdm-qt5-3.so.0:_ZNK8QLightDM10UsersModel4dataERK11QModelIndexi
liblightdm-qt5-3.so.0:_ZNK8QLightDM10UsersModel8rowCountERK11QModelIndex
liblightdm-qt5-3.so.0:_ZNK8QLightDM13SessionsModel10metaObjectEv
liblightdm-qt5-3.so.0:_ZNK8QLightDM13SessionsModel4dataERK11QModelIndexi
liblightdm-qt5-3.so.0:_ZNK8QLightDM13SessionsModel8rowCountERK11QModelIndex
liblightdm-qt5-3.so.0:_ZNK8QLightDM14PowerInterface10metaObjectEv
liblightdm-qt5-3.so.0:_ZNK8QLightDM7Greeter10metaObjectEv
liblightdm-qt5-3.so.0:_ZNK8QLightDM7Greeter11osVersionIdEv
liblightdm-qt5-3.so.0:_ZNK8QLightDM7Greeter12osPrettyNameEv
liblightdm-qt5-3.so.0:_ZNK8QLightDM7Greeter13hideUsersHintEv
liblightdm-qt5-3.so.0:_ZNK8QLightDM7Greeter14selectUserHintEv
liblightdm-qt5-3.so.0:_ZNK8QLightDM7Greeter15isAuthenticatedEv
liblightdm-qt5-3.so.0:_ZNK8QLightDM7Greeter15selectGuestHintEv
liblightdm-qt5-3.so.0:_ZNK8QLightDM7Greeter16inAuthenticationEv
liblightdm-qt5-3.so.0:_ZNK8QLightDM7Greeter17autologinUserHintEv
liblightdm-qt5-3.so.0:_ZNK8QLightDM7Greeter18authenticationUserEv
liblightdm-qt5-3.so.0:_ZNK8QLightDM7Greeter18autologinGuestHintEv
liblightdm-qt5-3.so.0:_ZNK8QLightDM7Greeter18defaultSessionHintEv
liblightdm-qt5-3.so.0:_ZNK8QLightDM7Greeter19hasGuestAccountHintEv
liblightdm-qt5-3.so.0:_ZNK8QLightDM7Greeter19showManualLoginHintEv
liblightdm-qt5-3.so.0:_ZNK8QLightDM7Greeter19showRemoteLoginHintEv
liblightdm-qt5-3.so.0:_ZNK8QLightDM7Greeter20autologinSessionHintEv
liblightdm-qt5-3.so.0:_ZNK8QLightDM7Greeter20autologinTimeoutHintEv
liblightdm-qt5-3.so.0:_ZNK8QLightDM7Greeter4motdEv
liblightdm-qt5-3.so.0:_ZNK8QLightDM7Greeter4osIdEv
liblightdm-qt5-3.so.0:_ZNK8QLightDM7Greeter6osNameEv
liblightdm-qt5-3.so.0:_ZNK8QLightDM7Greeter7getHintERK7QString
liblightdm-qt5-3.so.0:_ZNK8QLightDM7Greeter8hostnameEv
liblightdm-qt5-3.so.0:_ZNK8QLightDM7Greeter8lockHintEv
liblightdm-qt5-3.so.0:_ZNK8QLightDM7Greeter9osVersionEv
liblightdm-qt5-3.so.0:_ZNK8UserItem11displayNameEv
