libdbusextended-qt5.so.1:_ZN29DBusExtendedAbstractInterface10demarshallERK7QStringRK13QMetaPropertyRK8QVariantP10QDBusError
libdbusextended-qt5.so.1:_ZN29DBusExtendedAbstractInterface11qt_metacallEN11QMetaObject4CallEiPPv
libdbusextended-qt5.so.1:_ZN29DBusExtendedAbstractInterface11qt_metacastEPKc
libdbusextended-qt5.so.1:_ZN29DBusExtendedAbstractInterface13asyncPropertyERK7QString
libdbusextended-qt5.so.1:_ZN29DBusExtendedAbstractInterface13connectNotifyERK11QMetaMethod
libdbusextended-qt5.so.1:_ZN29DBusExtendedAbstractInterface15internalPropGetEPKcPv
libdbusextended-qt5.so.1:_ZN29DBusExtendedAbstractInterface15internalPropSetEPKcRK8QVariantPv
libdbusextended-qt5.so.1:_ZN29DBusExtendedAbstractInterface15propertyChangedERK7QStringRK8QVariant
libdbusextended-qt5.so.1:_ZN29DBusExtendedAbstractInterface16asyncSetPropertyERK7QStringRK8QVariant
libdbusextended-qt5.so.1:_ZN29DBusExtendedAbstractInterface16disconnectNotifyERK11QMetaMethod
libdbusextended-qt5.so.1:_ZN29DBusExtendedAbstractInterface16getAllPropertiesEv
libdbusextended-qt5.so.1:_ZN29DBusExtendedAbstractInterface19onPropertiesChangedERK7QStringRK4QMapIS0_8QVariantERK11QStringList
libdbusextended-qt5.so.1:_ZN29DBusExtendedAbstractInterface19propertyInvalidatedERK7QString
libdbusextended-qt5.so.1:_ZN29DBusExtendedAbstractInterface21asyncPropertyFinishedERK7QString
libdbusextended-qt5.so.1:_ZN29DBusExtendedAbstractInterface23onAsyncPropertyFinishedEP30DBusExtendedPendingCallWatcher
libdbusextended-qt5.so.1:_ZN29DBusExtendedAbstractInterface24asyncSetPropertyFinishedERK7QString
libdbusextended-qt5.so.1:_ZN29DBusExtendedAbstractInterface26onAsyncSetPropertyFinishedEP30DBusExtendedPendingCallWatcher
libdbusextended-qt5.so.1:_ZN29DBusExtendedAbstractInterface29asyncGetAllPropertiesFinishedEv
libdbusextended-qt5.so.1:_ZN29DBusExtendedAbstractInterface31onAsyncGetAllPropertiesFinishedEP23QDBusPendingCallWatcher
libdbusextended-qt5.so.1:_ZN29DBusExtendedAbstractInterfaceC1ERK7QStringS2_PKcRK15QDBusConnectionP7QObject
libdbusextended-qt5.so.1:_ZN29DBusExtendedAbstractInterfaceC2ERK7QStringS2_PKcRK15QDBusConnectionP7QObject
libdbusextended-qt5.so.1:_ZN29DBusExtendedAbstractInterfaceD0Ev
libdbusextended-qt5.so.1:_ZN29DBusExtendedAbstractInterfaceD1Ev
libdbusextended-qt5.so.1:_ZN29DBusExtendedAbstractInterfaceD2Ev
libdbusextended-qt5.so.1:_ZN30DBusExtendedPendingCallWatcher11qt_metacallEN11QMetaObject4CallEiPPv
libdbusextended-qt5.so.1:_ZN30DBusExtendedPendingCallWatcher11qt_metacastEPKc
libdbusextended-qt5.so.1:_ZN30DBusExtendedPendingCallWatcherC1ERK16QDBusPendingCallRK7QStringRK8QVariantP7QObject
libdbusextended-qt5.so.1:_ZN30DBusExtendedPendingCallWatcherC2ERK16QDBusPendingCallRK7QStringRK8QVariantP7QObject
libdbusextended-qt5.so.1:_ZN30DBusExtendedPendingCallWatcherD0Ev
libdbusextended-qt5.so.1:_ZN30DBusExtendedPendingCallWatcherD1Ev
libdbusextended-qt5.so.1:_ZN30DBusExtendedPendingCallWatcherD2Ev
libdbusextended-qt5.so.1:_ZNK29DBusExtendedAbstractInterface10metaObjectEv
libdbusextended-qt5.so.1:_ZNK30DBusExtendedPendingCallWatcher10metaObjectEv
libdmusic.so.1:_Z15timeframe2mtimel
libdmusic.so.1:_ZN12MetaDetector15detectEncodingsE14QSharedPointerI9MediaMetaE
libdmusic.so.1:_ZN12MetaDetector15detectEncodingsERK10QByteArray
libdmusic.so.1:_ZN12MetaDetector21updateCueFileTagCodecEP9MediaMetaRK9QFileInfoRK10QByteArray
libdmusic.so.1:_ZN12MetaDetector23updateMediaFileTagCodecEP9MediaMetaRK10QByteArrayb
libdmusic.so.1:_ZN12MetaDetector23updateMetaFromLocalfileEP9MediaMetaRK9QFileInfo
libdmusic.so.1:_ZN12MetaDetector4initEv
libdmusic.so.1:_ZN3Dtk4Core14Chinese2PinyinERK7QString
libdmusic.so.1:_ZN3Dtk4Core8InitDictEv
libdmusic.so.1:_ZN6DMusic10sizeStringEx
libdmusic.so.1:_ZN6DMusic12PinyinSearch18simpleChineseSplitER7QString
libdmusic.so.1:_ZN6DMusic12filepathHashERK7QString
libdmusic.so.1:_ZN6DMusic12lengthStringEx
libdmusic.so.1:_ZN6DMusic16CueParserPrivate8parseCueERK10QByteArrayS1_
libdmusic.so.1:_ZN6DMusic16EncodingDetector15detectEncodingsERK10QByteArray
libdmusic.so.1:_ZN6DMusic19detectMetaEncodingsE14QSharedPointerI9MediaMetaE
libdmusic.so.1:_ZN6DMusic3Net5Geese11qt_metacallEN11QMetaObject4CallEiPPv
libdmusic.so.1:_ZN6DMusic3Net5Geese11qt_metacastEPKc
libdmusic.so.1:_ZN6DMusic3Net5Geese12setRawHeaderERK10QByteArrayS4_
libdmusic.so.1:_ZN6DMusic3Net5Geese7prepareER15QNetworkRequest
libdmusic.so.1:_ZN6DMusic3Net5Geese8getGooseE4QUrl
libdmusic.so.1:_ZN6DMusic3Net5Geese9postGooseERK4QUrlRK10QByteArray
libdmusic.so.1:_ZN6DMusic3Net5GeeseC1EP7QObject
libdmusic.so.1:_ZN6DMusic3Net5GeeseC2EP7QObject
libdmusic.so.1:_ZN6DMusic3Net5GeeseD0Ev
libdmusic.so.1:_ZN6DMusic3Net5GeeseD1Ev
libdmusic.so.1:_ZN6DMusic3Net5GeeseD2Ev
libdmusic.so.1:_ZN6DMusic3Net5Goose11qt_metacallEN11QMetaObject4CallEiPPv
libdmusic.so.1:_ZN6DMusic3Net5Goose11qt_metacastEPKc
libdmusic.so.1:_ZN6DMusic3Net5Goose3getERK4QUrl
libdmusic.so.1:_ZN6DMusic3Net5Goose4postERK4QUrlRK10QByteArray
libdmusic.so.1:_ZN6DMusic3Net5Goose6arriveEiRK10QByteArray
libdmusic.so.1:_ZN6DMusic3Net5GooseC1EPNS0_5GeeseE
libdmusic.so.1:_ZN6DMusic3Net5GooseC2EPNS0_5GeeseE
libdmusic.so.1:_ZN6DMusic9CueParserC1ERK7QString
libdmusic.so.1:_ZN6DMusic9CueParserC1ERK7QString10QByteArray
libdmusic.so.1:_ZN6DMusic9CueParserC2ERK7QString
libdmusic.so.1:_ZN6DMusic9CueParserC2ERK7QString10QByteArray
libdmusic.so.1:_ZN6DMusic9CueParserD1Ev
libdmusic.so.1:_ZN6DMusic9CueParserD2Ev
libdmusic.so.1:_ZN6Libcue17time_frame_to_msfElPiS0_S0_
libdmusic.so.1:_ZN9MediaMeta11updateCodecERK10QByteArray
libdmusic.so.1:_ZN9MediaMeta13fromLocalFileERK9QFileInfo
libdmusic.so.1:_ZN9MediaMeta17updateSearchIndexEv
libdmusic.so.1:_ZNK6DMusic3Net5Geese10metaObjectEv
libdmusic.so.1:_ZNK6DMusic3Net5Goose10metaObjectEv
libdmusic.so.1:_ZNK6DMusic9CueParser11cueFilepathEv
libdmusic.so.1:_ZNK6DMusic9CueParser13mediaFilepathEv
libdmusic.so.1:_ZNK6DMusic9CueParser8metalistEv
libmpris-qt5.so.1:_ZN11MprisPlayer10setCanPlayEb
libmpris-qt5.so.1:_ZN11MprisPlayer10setCanQuitEb
libmpris-qt5.so.1:_ZN11MprisPlayer10setCanSeekEb
libmpris-qt5.so.1:_ZN11MprisPlayer10setShuffleEb
libmpris-qt5.so.1:_ZN11MprisPlayer11qt_metacallEN11QMetaObject4CallEiPPv
libmpris-qt5.so.1:_ZN11MprisPlayer11qt_metacastEPKc
libmpris-qt5.so.1:_ZN11MprisPlayer11rateChangedEv
libmpris-qt5.so.1:_ZN11MprisPlayer11setCanPauseEb
libmpris-qt5.so.1:_ZN11MprisPlayer11setCanRaiseEb
libmpris-qt5.so.1:_ZN11MprisPlayer11setIdentityERK7QString
libmpris-qt5.so.1:_ZN11MprisPlayer11setMetadataERK4QMapI7QString8QVariantE
libmpris-qt5.so.1:_ZN11MprisPlayer11setPositionEx
libmpris-qt5.so.1:_ZN11MprisPlayer12setCanGoNextEb
libmpris-qt5.so.1:_ZN11MprisPlayer12typeMetadataERK4QMapI7QString8QVariantE
libmpris-qt5.so.1:_ZN11MprisPlayer13nextRequestedEv
libmpris-qt5.so.1:_ZN11MprisPlayer13playRequestedEv
libmpris-qt5.so.1:_ZN11MprisPlayer13quitRequestedEv
libmpris-qt5.so.1:_ZN11MprisPlayer13rateRequestedEd
libmpris-qt5.so.1:_ZN11MprisPlayer13seekRequestedEx
libmpris-qt5.so.1:_ZN11MprisPlayer13setCanControlEb
libmpris-qt5.so.1:_ZN11MprisPlayer13setFullscreenEb
libmpris-qt5.so.1:_ZN11MprisPlayer13setLoopStatusEN5Mpris10LoopStatusE
libmpris-qt5.so.1:_ZN11MprisPlayer13stopRequestedEv
libmpris-qt5.so.1:_ZN11MprisPlayer13volumeChangedEv
libmpris-qt5.so.1:_ZN11MprisPlayer14canPlayChangedEv
libmpris-qt5.so.1:_ZN11MprisPlayer14canQuitChangedEv
libmpris-qt5.so.1:_ZN11MprisPlayer14canSeekChangedEv
libmpris-qt5.so.1:_ZN11MprisPlayer14pauseRequestedEv
libmpris-qt5.so.1:_ZN11MprisPlayer14raiseRequestedEv
libmpris-qt5.so.1:_ZN11MprisPlayer14setMaximumRateEd
libmpris-qt5.so.1:_ZN11MprisPlayer14setMinimumRateEd
libmpris-qt5.so.1:_ZN11MprisPlayer14setServiceNameERK7QString
libmpris-qt5.so.1:_ZN11MprisPlayer14shuffleChangedEv
libmpris-qt5.so.1:_ZN11MprisPlayer15canPauseChangedEv
libmpris-qt5.so.1:_ZN11MprisPlayer15canRaiseChangedEv
libmpris-qt5.so.1:_ZN11MprisPlayer15identityChangedEv
libmpris-qt5.so.1:_ZN11MprisPlayer15metadataChangedEv
libmpris-qt5.so.1:_ZN11MprisPlayer15positionChangedEv
libmpris-qt5.so.1:_ZN11MprisPlayer15registerServiceEv
libmpris-qt5.so.1:_ZN11MprisPlayer15setDesktopEntryERK7QString
libmpris-qt5.so.1:_ZN11MprisPlayer15setHasTrackListEb
libmpris-qt5.so.1:_ZN11MprisPlayer15volumeRequestedEd
libmpris-qt5.so.1:_ZN11MprisPlayer16canGoNextChangedEv
libmpris-qt5.so.1:_ZN11MprisPlayer16openUriRequestedERK4QUrl
libmpris-qt5.so.1:_ZN11MprisPlayer16setCanGoPreviousEb
libmpris-qt5.so.1:_ZN11MprisPlayer16shuffleRequestedEb
libmpris-qt5.so.1:_ZN11MprisPlayer17canControlChangedEv
libmpris-qt5.so.1:_ZN11MprisPlayer17fullscreenChangedEv
libmpris-qt5.so.1:_ZN11MprisPlayer17loopStatusChangedEv
libmpris-qt5.so.1:_ZN11MprisPlayer17previousRequestedEv
libmpris-qt5.so.1:_ZN11MprisPlayer17setPlaybackStatusEN5Mpris14PlaybackStatusE
libmpris-qt5.so.1:_ZN11MprisPlayer17unregisterServiceEv
libmpris-qt5.so.1:_ZN11MprisPlayer18maximumRateChangedEv
libmpris-qt5.so.1:_ZN11MprisPlayer18minimumRateChangedEv
libmpris-qt5.so.1:_ZN11MprisPlayer18playPauseRequestedEv
libmpris-qt5.so.1:_ZN11MprisPlayer18serviceNameChangedEv
libmpris-qt5.so.1:_ZN11MprisPlayer19desktopEntryChangedEv
libmpris-qt5.so.1:_ZN11MprisPlayer19fullscreenRequestedEb
libmpris-qt5.so.1:_ZN11MprisPlayer19hasTrackListChangedEv
libmpris-qt5.so.1:_ZN11MprisPlayer19loopStatusRequestedEN5Mpris10LoopStatusE
libmpris-qt5.so.1:_ZN11MprisPlayer19setCanSetFullscreenEb
libmpris-qt5.so.1:_ZN11MprisPlayer20canGoPreviousChangedEv
libmpris-qt5.so.1:_ZN11MprisPlayer20setPositionRequestedERK15QDBusObjectPathx
libmpris-qt5.so.1:_ZN11MprisPlayer21playbackStatusChangedEv
libmpris-qt5.so.1:_ZN11MprisPlayer21setSupportedMimeTypesERK11QStringList
libmpris-qt5.so.1:_ZN11MprisPlayer22setSupportedUriSchemesERK11QStringList
libmpris-qt5.so.1:_ZN11MprisPlayer23canSetFullscreenChangedEv
libmpris-qt5.so.1:_ZN11MprisPlayer25supportedMimeTypesChangedEv
libmpris-qt5.so.1:_ZN11MprisPlayer26supportedUriSchemesChangedEv
libmpris-qt5.so.1:_ZN11MprisPlayer6seekedEx
libmpris-qt5.so.1:_ZN11MprisPlayer7setRateEd
libmpris-qt5.so.1:_ZN11MprisPlayer9setVolumeEd
libmpris-qt5.so.1:_ZN11MprisPlayerC1EP7QObject
libmpris-qt5.so.1:_ZN11MprisPlayerC2EP7QObject
libmpris-qt5.so.1:_ZN11MprisPlayerD0Ev
libmpris-qt5.so.1:_ZN11MprisPlayerD1Ev
libmpris-qt5.so.1:_ZN11MprisPlayerD2Ev
libmpris-qt5.so.1:_ZN12MprisManager10setShuffleEb
libmpris-qt5.so.1:_ZN12MprisManager11qt_metacallEN11QMetaObject4CallEiPPv
libmpris-qt5.so.1:_ZN12MprisManager11qt_metacastEPKc
libmpris-qt5.so.1:_ZN12MprisManager11rateChangedEv
libmpris-qt5.so.1:_ZN12MprisManager13setFullscreenEb
libmpris-qt5.so.1:_ZN12MprisManager13setLoopStatusEN5Mpris10LoopStatusE
libmpris-qt5.so.1:_ZN12MprisManager13volumeChangedEv
libmpris-qt5.so.1:_ZN12MprisManager14canPlayChangedEv
libmpris-qt5.so.1:_ZN12MprisManager14canQuitChangedEv
libmpris-qt5.so.1:_ZN12MprisManager14canSeekChangedEv
libmpris-qt5.so.1:_ZN12MprisManager14shuffleChangedEv
libmpris-qt5.so.1:_ZN12MprisManager15canPauseChangedEv
libmpris-qt5.so.1:_ZN12MprisManager15canRaiseChangedEv
libmpris-qt5.so.1:_ZN12MprisManager15identityChangedEv
libmpris-qt5.so.1:_ZN12MprisManager15metadataChangedEv
libmpris-qt5.so.1:_ZN12MprisManager15positionChangedEx
libmpris-qt5.so.1:_ZN12MprisManager16canGoNextChangedEv
libmpris-qt5.so.1:_ZN12MprisManager16setSingleServiceEb
libmpris-qt5.so.1:_ZN12MprisManager17canControlChangedEv
libmpris-qt5.so.1:_ZN12MprisManager17fullscreenChangedEv
libmpris-qt5.so.1:_ZN12MprisManager17loopStatusChangedEv
libmpris-qt5.so.1:_ZN12MprisManager17onServiceAppearedERK7QString
libmpris-qt5.so.1:_ZN12MprisManager17onServiceVanishedERK7QString
libmpris-qt5.so.1:_ZN12MprisManager17setCurrentServiceERK7QString
libmpris-qt5.so.1:_ZN12MprisManager18maximumRateChangedEv
libmpris-qt5.so.1:_ZN12MprisManager18minimumRateChangedEv
libmpris-qt5.so.1:_ZN12MprisManager18onNameOwnerChangedERK7QStringS2_S2_
libmpris-qt5.so.1:_ZN12MprisManager19availableControllerERK7QString
libmpris-qt5.so.1:_ZN12MprisManager19desktopEntryChangedEv
libmpris-qt5.so.1:_ZN12MprisManager19hasTrackListChangedEv
libmpris-qt5.so.1:_ZN12MprisManager20canGoPreviousChangedEv
libmpris-qt5.so.1:_ZN12MprisManager20setCurrentControllerE14QSharedPointerI15MprisControllerE
libmpris-qt5.so.1:_ZN12MprisManager20singleServiceChangedEv
libmpris-qt5.so.1:_ZN12MprisManager21currentServiceChangedEv
libmpris-qt5.so.1:_ZN12MprisManager21playbackStatusChangedEv
libmpris-qt5.so.1:_ZN12MprisManager23canSetFullscreenChangedEv
libmpris-qt5.so.1:_ZN12MprisManager24availableServicesChangedEv
libmpris-qt5.so.1:_ZN12MprisManager25supportedMimeTypesChangedEv
libmpris-qt5.so.1:_ZN12MprisManager26supportedUriSchemesChangedEv
libmpris-qt5.so.1:_ZN12MprisManager42onAvailableControllerPlaybackStatusChangedERK7QString
libmpris-qt5.so.1:_ZN12MprisManager6seekedEx
libmpris-qt5.so.1:_ZN12MprisManager7setRateEd
libmpris-qt5.so.1:_ZN12MprisManager9setVolumeEd
libmpris-qt5.so.1:_ZN12MprisManagerC1EP7QObject
libmpris-qt5.so.1:_ZN12MprisManagerC2EP7QObject
libmpris-qt5.so.1:_ZN12MprisManagerD0Ev
libmpris-qt5.so.1:_ZN12MprisManagerD1Ev
libmpris-qt5.so.1:_ZN12MprisManagerD2Ev
libmpris-qt5.so.1:_ZN15MprisController10setShuffleEb
libmpris-qt5.so.1:_ZN15MprisController11qt_metacallEN11QMetaObject4CallEiPPv
libmpris-qt5.so.1:_ZN15MprisController11qt_metacastEPKc
libmpris-qt5.so.1:_ZN15MprisController11rateChangedEv
libmpris-qt5.so.1:_ZN15MprisController11setPositionERK7QStringx
libmpris-qt5.so.1:_ZN15MprisController11setPositionEx
libmpris-qt5.so.1:_ZN15MprisController13setFullscreenEb
libmpris-qt5.so.1:_ZN15MprisController13setLoopStatusEN5Mpris10LoopStatusE
libmpris-qt5.so.1:_ZN15MprisController13volumeChangedEv
libmpris-qt5.so.1:_ZN15MprisController14canPlayChangedEv
libmpris-qt5.so.1:_ZN15MprisController14canQuitChangedEv
libmpris-qt5.so.1:_ZN15MprisController14canSeekChangedEv
libmpris-qt5.so.1:_ZN15MprisController14shuffleChangedEv
libmpris-qt5.so.1:_ZN15MprisController15canPauseChangedEv
libmpris-qt5.so.1:_ZN15MprisController15canRaiseChangedEv
libmpris-qt5.so.1:_ZN15MprisController15identityChangedEv
libmpris-qt5.so.1:_ZN15MprisController15metadataChangedEv
libmpris-qt5.so.1:_ZN15MprisController15positionChangedEx
libmpris-qt5.so.1:_ZN15MprisController16canGoNextChangedEv
libmpris-qt5.so.1:_ZN15MprisController17canControlChangedEv
libmpris-qt5.so.1:_ZN15MprisController17fullscreenChangedEv
libmpris-qt5.so.1:_ZN15MprisController17loopStatusChangedEv
libmpris-qt5.so.1:_ZN15MprisController17onPositionChangedEx
libmpris-qt5.so.1:_ZN15MprisController18maximumRateChangedEv
libmpris-qt5.so.1:_ZN15MprisController18minimumRateChangedEv
libmpris-qt5.so.1:_ZN15MprisController19desktopEntryChangedEv
libmpris-qt5.so.1:_ZN15MprisController19hasTrackListChangedEv
libmpris-qt5.so.1:_ZN15MprisController19onCanControlChangedEv
libmpris-qt5.so.1:_ZN15MprisController20canGoPreviousChangedEv
libmpris-qt5.so.1:_ZN15MprisController21onFinishedPendingCallEP23QDBusPendingCallWatcher
libmpris-qt5.so.1:_ZN15MprisController21playbackStatusChangedEv
libmpris-qt5.so.1:_ZN15MprisController23canSetFullscreenChangedEv
libmpris-qt5.so.1:_ZN15MprisController25supportedMimeTypesChangedEv
libmpris-qt5.so.1:_ZN15MprisController26supportedUriSchemesChangedEv
libmpris-qt5.so.1:_ZN15MprisController35onAsyncGetAllRootPropertiesFinishedEv
libmpris-qt5.so.1:_ZN15MprisController37onAsyncGetAllPlayerPropertiesFinishedEv
libmpris-qt5.so.1:_ZN15MprisController4nextEv
libmpris-qt5.so.1:_ZN15MprisController4playEv
libmpris-qt5.so.1:_ZN15MprisController4quitEv
libmpris-qt5.so.1:_ZN15MprisController4seekEx
libmpris-qt5.so.1:_ZN15MprisController4stopEv
libmpris-qt5.so.1:_ZN15MprisController5pauseEv
libmpris-qt5.so.1:_ZN15MprisController5raiseEv
libmpris-qt5.so.1:_ZN15MprisController6seekedEx
libmpris-qt5.so.1:_ZN15MprisController7openUriERK4QUrl
libmpris-qt5.so.1:_ZN15MprisController7setRateEd
libmpris-qt5.so.1:_ZN15MprisController8previousEv
libmpris-qt5.so.1:_ZN15MprisController9playPauseEv
libmpris-qt5.so.1:_ZN15MprisController9setVolumeEd
libmpris-qt5.so.1:_ZN15MprisControllerC1ERK7QStringRK15QDBusConnectionP7QObject
libmpris-qt5.so.1:_ZN15MprisControllerC2ERK7QStringRK15QDBusConnectionP7QObject
libmpris-qt5.so.1:_ZN15MprisControllerD0Ev
libmpris-qt5.so.1:_ZN15MprisControllerD1Ev
libmpris-qt5.so.1:_ZN15MprisControllerD2Ev
libmpris-qt5.so.1:_ZN16MprisRootAdaptor11qt_metacallEN11QMetaObject4CallEiPPv
libmpris-qt5.so.1:_ZN16MprisRootAdaptor11qt_metacastEPKc
libmpris-qt5.so.1:_ZN16MprisRootAdaptor13setFullscreenEb
libmpris-qt5.so.1:_ZN16MprisRootAdaptor4QuitEv
libmpris-qt5.so.1:_ZN16MprisRootAdaptor5RaiseEv
libmpris-qt5.so.1:_ZN16MprisRootAdaptorC1EP11MprisPlayer
libmpris-qt5.so.1:_ZN16MprisRootAdaptorC2EP11MprisPlayer
libmpris-qt5.so.1:_ZN16MprisRootAdaptorD0Ev
libmpris-qt5.so.1:_ZN16MprisRootAdaptorD1Ev
libmpris-qt5.so.1:_ZN16MprisRootAdaptorD2Ev
libmpris-qt5.so.1:_ZN18MprisPlayerAdaptor10setShuffleEb
libmpris-qt5.so.1:_ZN18MprisPlayerAdaptor11SetPositionERK15QDBusObjectPathx
libmpris-qt5.so.1:_ZN18MprisPlayerAdaptor11qt_metacallEN11QMetaObject4CallEiPPv
libmpris-qt5.so.1:_ZN18MprisPlayerAdaptor11qt_metacastEPKc
libmpris-qt5.so.1:_ZN18MprisPlayerAdaptor13setLoopStatusERK7QString
libmpris-qt5.so.1:_ZN18MprisPlayerAdaptor4NextEv
libmpris-qt5.so.1:_ZN18MprisPlayerAdaptor4PlayEv
libmpris-qt5.so.1:_ZN18MprisPlayerAdaptor4SeekEx
libmpris-qt5.so.1:_ZN18MprisPlayerAdaptor4StopEv
libmpris-qt5.so.1:_ZN18MprisPlayerAdaptor5PauseEv
libmpris-qt5.so.1:_ZN18MprisPlayerAdaptor6SeekedEx
libmpris-qt5.so.1:_ZN18MprisPlayerAdaptor7OpenUriERK7QString
libmpris-qt5.so.1:_ZN18MprisPlayerAdaptor7setRateEd
libmpris-qt5.so.1:_ZN18MprisPlayerAdaptor8PreviousEv
libmpris-qt5.so.1:_ZN18MprisPlayerAdaptor9PlayPauseEv
libmpris-qt5.so.1:_ZN18MprisPlayerAdaptor9setVolumeEd
libmpris-qt5.so.1:_ZN18MprisPlayerAdaptorC1EP11MprisPlayer
libmpris-qt5.so.1:_ZN18MprisPlayerAdaptorC2EP11MprisPlayer
libmpris-qt5.so.1:_ZN18MprisPlayerAdaptorD0Ev
libmpris-qt5.so.1:_ZN18MprisPlayerAdaptorD1Ev
libmpris-qt5.so.1:_ZN18MprisPlayerAdaptorD2Ev
libmpris-qt5.so.1:_ZN18MprisRootInterface11qt_metacallEN11QMetaObject4CallEiPPv
libmpris-qt5.so.1:_ZN18MprisRootInterface11qt_metacastEPKc
libmpris-qt5.so.1:_ZN18MprisRootInterface14canQuitChangedEb
libmpris-qt5.so.1:_ZN18MprisRootInterface15canRaiseChangedEb
libmpris-qt5.so.1:_ZN18MprisRootInterface15identityChangedERK7QString
libmpris-qt5.so.1:_ZN18MprisRootInterface17fullscreenChangedEb
libmpris-qt5.so.1:_ZN18MprisRootInterface17onPropertyChangedERK7QStringRK8QVariant
libmpris-qt5.so.1:_ZN18MprisRootInterface19desktopEntryChangedERK7QString
libmpris-qt5.so.1:_ZN18MprisRootInterface19hasTrackListChangedEb
libmpris-qt5.so.1:_ZN18MprisRootInterface23canSetFullscreenChangedEb
libmpris-qt5.so.1:_ZN18MprisRootInterface25supportedMimeTypesChangedERK11QStringList
libmpris-qt5.so.1:_ZN18MprisRootInterface26supportedUriSchemesChangedERK11QStringList
libmpris-qt5.so.1:_ZN18MprisRootInterfaceC1ERK7QStringS2_RK15QDBusConnectionP7QObject
libmpris-qt5.so.1:_ZN18MprisRootInterfaceC2ERK7QStringS2_RK15QDBusConnectionP7QObject
libmpris-qt5.so.1:_ZN18MprisRootInterfaceD0Ev
libmpris-qt5.so.1:_ZN18MprisRootInterfaceD1Ev
libmpris-qt5.so.1:_ZN18MprisRootInterfaceD2Ev
libmpris-qt5.so.1:_ZN20MprisPlayerInterface11qt_metacallEN11QMetaObject4CallEiPPv
libmpris-qt5.so.1:_ZN20MprisPlayerInterface11qt_metacastEPKc
libmpris-qt5.so.1:_ZN20MprisPlayerInterface11rateChangedEd
libmpris-qt5.so.1:_ZN20MprisPlayerInterface13volumeChangedEd
libmpris-qt5.so.1:_ZN20MprisPlayerInterface14canPlayChangedEb
libmpris-qt5.so.1:_ZN20MprisPlayerInterface14canSeekChangedEb
libmpris-qt5.so.1:_ZN20MprisPlayerInterface14shuffleChangedEb
libmpris-qt5.so.1:_ZN20MprisPlayerInterface15canPauseChangedEb
libmpris-qt5.so.1:_ZN20MprisPlayerInterface15metadataChangedERK4QMapI7QString8QVariantE
libmpris-qt5.so.1:_ZN20MprisPlayerInterface15positionChangedEx
libmpris-qt5.so.1:_ZN20MprisPlayerInterface16canGoNextChangedEb
libmpris-qt5.so.1:_ZN20MprisPlayerInterface17canControlChangedEb
libmpris-qt5.so.1:_ZN20MprisPlayerInterface17loopStatusChangedERK7QString
libmpris-qt5.so.1:_ZN20MprisPlayerInterface17onPropertyChangedERK7QStringRK8QVariant
libmpris-qt5.so.1:_ZN20MprisPlayerInterface18maximumRateChangedEd
libmpris-qt5.so.1:_ZN20MprisPlayerInterface18minimumRateChangedEd
libmpris-qt5.so.1:_ZN20MprisPlayerInterface20canGoPreviousChangedEb
libmpris-qt5.so.1:_ZN20MprisPlayerInterface21playbackStatusChangedERK7QString
libmpris-qt5.so.1:_ZN20MprisPlayerInterface6seekedEx
libmpris-qt5.so.1:_ZN20MprisPlayerInterfaceC1ERK7QStringS2_RK15QDBusConnectionP7QObject
libmpris-qt5.so.1:_ZN20MprisPlayerInterfaceC2ERK7QStringS2_RK15QDBusConnectionP7QObject
libmpris-qt5.so.1:_ZN20MprisPlayerInterfaceD0Ev
libmpris-qt5.so.1:_ZN20MprisPlayerInterfaceD1Ev
libmpris-qt5.so.1:_ZN20MprisPlayerInterfaceD2Ev
libmpris-qt5.so.1:_ZN5Mpris11api_factoryEP10QQmlEngineP9QJSEngine
libmpris-qt5.so.1:_ZN5Mpris11qt_metacallEN11QMetaObject4CallEiPPv
libmpris-qt5.so.1:_ZN5Mpris11qt_metacastEPKc
libmpris-qt5.so.1:_ZN5Mpris16metadataToStringENS_8MetadataE
libmpris-qt5.so.1:_ZN5MprisC1EP7QObject
libmpris-qt5.so.1:_ZN5MprisC2EP7QObject
libmpris-qt5.so.1:_ZN5MprisD0Ev
libmpris-qt5.so.1:_ZN5MprisD1Ev
libmpris-qt5.so.1:_ZN5MprisD2Ev
libmpris-qt5.so.1:_ZNK11MprisPlayer10canControlEv
libmpris-qt5.so.1:_ZNK11MprisPlayer10fullscreenEv
libmpris-qt5.so.1:_ZNK11MprisPlayer10loopStatusEv
libmpris-qt5.so.1:_ZNK11MprisPlayer10metaObjectEv
libmpris-qt5.so.1:_ZNK11MprisPlayer11maximumRateEv
libmpris-qt5.so.1:_ZNK11MprisPlayer11minimumRateEv
libmpris-qt5.so.1:_ZNK11MprisPlayer11serviceNameEv
libmpris-qt5.so.1:_ZNK11MprisPlayer12desktopEntryEv
libmpris-qt5.so.1:_ZNK11MprisPlayer12hasTrackListEv
libmpris-qt5.so.1:_ZNK11MprisPlayer13canGoPreviousEv
libmpris-qt5.so.1:_ZNK11MprisPlayer14playbackStatusEv
libmpris-qt5.so.1:_ZNK11MprisPlayer16canSetFullscreenEv
libmpris-qt5.so.1:_ZNK11MprisPlayer18supportedMimeTypesEv
libmpris-qt5.so.1:_ZNK11MprisPlayer19supportedUriSchemesEv
libmpris-qt5.so.1:_ZNK11MprisPlayer23notifyPropertiesChangedERK7QStringRK4QMapIS0_8QVariantERK11QStringList
libmpris-qt5.so.1:_ZNK11MprisPlayer4rateEv
libmpris-qt5.so.1:_ZNK11MprisPlayer6volumeEv
libmpris-qt5.so.1:_ZNK11MprisPlayer7canPlayEv
libmpris-qt5.so.1:_ZNK11MprisPlayer7canQuitEv
libmpris-qt5.so.1:_ZNK11MprisPlayer7canSeekEv
libmpris-qt5.so.1:_ZNK11MprisPlayer7shuffleEv
libmpris-qt5.so.1:_ZNK11MprisPlayer8canPauseEv
libmpris-qt5.so.1:_ZNK11MprisPlayer8canRaiseEv
libmpris-qt5.so.1:_ZNK11MprisPlayer8identityEv
libmpris-qt5.so.1:_ZNK11MprisPlayer8metadataEv
libmpris-qt5.so.1:_ZNK11MprisPlayer8positionEv
libmpris-qt5.so.1:_ZNK11MprisPlayer9canGoNextEv
libmpris-qt5.so.1:_ZNK12MprisManager10canControlEv
libmpris-qt5.so.1:_ZNK12MprisManager10fullscreenEv
libmpris-qt5.so.1:_ZNK12MprisManager10loopStatusEv
libmpris-qt5.so.1:_ZNK12MprisManager10metaObjectEv
libmpris-qt5.so.1:_ZNK12MprisManager11maximumRateEv
libmpris-qt5.so.1:_ZNK12MprisManager11minimumRateEv
libmpris-qt5.so.1:_ZNK12MprisManager11setPositionERK7QStringx
libmpris-qt5.so.1:_ZNK12MprisManager11setPositionEx
libmpris-qt5.so.1:_ZNK12MprisManager12desktopEntryEv
libmpris-qt5.so.1:_ZNK12MprisManager12hasTrackListEv
libmpris-qt5.so.1:_ZNK12MprisManager13canGoPreviousEv
libmpris-qt5.so.1:_ZNK12MprisManager13singleServiceEv
libmpris-qt5.so.1:_ZNK12MprisManager14currentServiceEv
libmpris-qt5.so.1:_ZNK12MprisManager14playbackStatusEv
libmpris-qt5.so.1:_ZNK12MprisManager15checkControllerEPKc
libmpris-qt5.so.1:_ZNK12MprisManager15requestPositionEv
libmpris-qt5.so.1:_ZNK12MprisManager16canSetFullscreenEv
libmpris-qt5.so.1:_ZNK12MprisManager17availableServicesEv
libmpris-qt5.so.1:_ZNK12MprisManager18supportedMimeTypesEv
libmpris-qt5.so.1:_ZNK12MprisManager19supportedUriSchemesEv
libmpris-qt5.so.1:_ZNK12MprisManager4nextEv
libmpris-qt5.so.1:_ZNK12MprisManager4playEv
libmpris-qt5.so.1:_ZNK12MprisManager4quitEv
libmpris-qt5.so.1:_ZNK12MprisManager4rateEv
libmpris-qt5.so.1:_ZNK12MprisManager4seekEx
libmpris-qt5.so.1:_ZNK12MprisManager4stopEv
libmpris-qt5.so.1:_ZNK12MprisManager5pauseEv
libmpris-qt5.so.1:_ZNK12MprisManager5raiseEv
libmpris-qt5.so.1:_ZNK12MprisManager6volumeEv
libmpris-qt5.so.1:_ZNK12MprisManager7canPlayEv
libmpris-qt5.so.1:_ZNK12MprisManager7canQuitEv
libmpris-qt5.so.1:_ZNK12MprisManager7canSeekEv
libmpris-qt5.so.1:_ZNK12MprisManager7openUriERK4QUrl
libmpris-qt5.so.1:_ZNK12MprisManager7shuffleEv
libmpris-qt5.so.1:_ZNK12MprisManager8canPauseEv
libmpris-qt5.so.1:_ZNK12MprisManager8canRaiseEv
libmpris-qt5.so.1:_ZNK12MprisManager8identityEv
libmpris-qt5.so.1:_ZNK12MprisManager8metadataEv
libmpris-qt5.so.1:_ZNK12MprisManager8positionEv
libmpris-qt5.so.1:_ZNK12MprisManager8previousEv
libmpris-qt5.so.1:_ZNK12MprisManager9canGoNextEv
libmpris-qt5.so.1:_ZNK12MprisManager9playPauseEv
libmpris-qt5.so.1:_ZNK15MprisController10canControlEv
libmpris-qt5.so.1:_ZNK15MprisController10fullscreenEv
libmpris-qt5.so.1:_ZNK15MprisController10loopStatusEv
libmpris-qt5.so.1:_ZNK15MprisController10metaObjectEv
libmpris-qt5.so.1:_ZNK15MprisController11maximumRateEv
libmpris-qt5.so.1:_ZNK15MprisController11minimumRateEv
libmpris-qt5.so.1:_ZNK15MprisController12desktopEntryEv
libmpris-qt5.so.1:_ZNK15MprisController12hasTrackListEv
libmpris-qt5.so.1:_ZNK15MprisController13canGoPreviousEv
libmpris-qt5.so.1:_ZNK15MprisController14playbackStatusEv
libmpris-qt5.so.1:_ZNK15MprisController15requestPositionEv
libmpris-qt5.so.1:_ZNK15MprisController16canSetFullscreenEv
libmpris-qt5.so.1:_ZNK15MprisController18supportedMimeTypesEv
libmpris-qt5.so.1:_ZNK15MprisController19supportedUriSchemesEv
libmpris-qt5.so.1:_ZNK15MprisController4rateEv
libmpris-qt5.so.1:_ZNK15MprisController6volumeEv
libmpris-qt5.so.1:_ZNK15MprisController7canPlayEv
libmpris-qt5.so.1:_ZNK15MprisController7canQuitEv
libmpris-qt5.so.1:_ZNK15MprisController7canSeekEv
libmpris-qt5.so.1:_ZNK15MprisController7isValidEv
libmpris-qt5.so.1:_ZNK15MprisController7serviceEv
libmpris-qt5.so.1:_ZNK15MprisController7shuffleEv
libmpris-qt5.so.1:_ZNK15MprisController8canPauseEv
libmpris-qt5.so.1:_ZNK15MprisController8canRaiseEv
libmpris-qt5.so.1:_ZNK15MprisController8identityEv
libmpris-qt5.so.1:_ZNK15MprisController8metadataEv
libmpris-qt5.so.1:_ZNK15MprisController8positionEv
libmpris-qt5.so.1:_ZNK15MprisController9canGoNextEv
libmpris-qt5.so.1:_ZNK16MprisRootAdaptor10fullscreenEv
libmpris-qt5.so.1:_ZNK16MprisRootAdaptor10metaObjectEv
libmpris-qt5.so.1:_ZNK16MprisRootAdaptor12desktopEntryEv
libmpris-qt5.so.1:_ZNK16MprisRootAdaptor12hasTrackListEv
libmpris-qt5.so.1:_ZNK16MprisRootAdaptor16canSetFullscreenEv
libmpris-qt5.so.1:_ZNK16MprisRootAdaptor16onCanQuitChangedEv
libmpris-qt5.so.1:_ZNK16MprisRootAdaptor17onCanRaiseChangedEv
libmpris-qt5.so.1:_ZNK16MprisRootAdaptor17onIdentityChangedEv
libmpris-qt5.so.1:_ZNK16MprisRootAdaptor18supportedMimeTypesEv
libmpris-qt5.so.1:_ZNK16MprisRootAdaptor19onFullscreenChangedEv
libmpris-qt5.so.1:_ZNK16MprisRootAdaptor19supportedUriSchemesEv
libmpris-qt5.so.1:_ZNK16MprisRootAdaptor21onDesktopEntryChangedEv
libmpris-qt5.so.1:_ZNK16MprisRootAdaptor21onHasTrackListChangedEv
libmpris-qt5.so.1:_ZNK16MprisRootAdaptor25onCanSetFullscreenChangedEv
libmpris-qt5.so.1:_ZNK16MprisRootAdaptor27onSupportedMimeTypesChangedEv
libmpris-qt5.so.1:_ZNK16MprisRootAdaptor28onSupportedUriSchemesChangedEv
libmpris-qt5.so.1:_ZNK16MprisRootAdaptor7canQuitEv
libmpris-qt5.so.1:_ZNK16MprisRootAdaptor8canRaiseEv
libmpris-qt5.so.1:_ZNK16MprisRootAdaptor8identityEv
libmpris-qt5.so.1:_ZNK18MprisPlayerAdaptor10canControlEv
libmpris-qt5.so.1:_ZNK18MprisPlayerAdaptor10loopStatusEv
libmpris-qt5.so.1:_ZNK18MprisPlayerAdaptor10metaObjectEv
libmpris-qt5.so.1:_ZNK18MprisPlayerAdaptor11maximumRateEv
libmpris-qt5.so.1:_ZNK18MprisPlayerAdaptor11minimumRateEv
libmpris-qt5.so.1:_ZNK18MprisPlayerAdaptor13canGoPreviousEv
libmpris-qt5.so.1:_ZNK18MprisPlayerAdaptor13onRateChangedEv
libmpris-qt5.so.1:_ZNK18MprisPlayerAdaptor14playbackStatusEv
libmpris-qt5.so.1:_ZNK18MprisPlayerAdaptor15onVolumeChangedEv
libmpris-qt5.so.1:_ZNK18MprisPlayerAdaptor16onCanPlayChangedEv
libmpris-qt5.so.1:_ZNK18MprisPlayerAdaptor16onCanSeekChangedEv
libmpris-qt5.so.1:_ZNK18MprisPlayerAdaptor16onShuffleChangedEv
libmpris-qt5.so.1:_ZNK18MprisPlayerAdaptor17onCanPauseChangedEv
libmpris-qt5.so.1:_ZNK18MprisPlayerAdaptor17onMetadataChangedEv
libmpris-qt5.so.1:_ZNK18MprisPlayerAdaptor18onCanGoNextChangedEv
libmpris-qt5.so.1:_ZNK18MprisPlayerAdaptor19onCanControlChangedEv
libmpris-qt5.so.1:_ZNK18MprisPlayerAdaptor19onLoopStatusChangedEv
libmpris-qt5.so.1:_ZNK18MprisPlayerAdaptor20onMaximumRateChangedEv
libmpris-qt5.so.1:_ZNK18MprisPlayerAdaptor20onMinimumRateChangedEv
libmpris-qt5.so.1:_ZNK18MprisPlayerAdaptor22onCanGoPreviousChangedEv
libmpris-qt5.so.1:_ZNK18MprisPlayerAdaptor23onPlaybackStatusChangedEv
libmpris-qt5.so.1:_ZNK18MprisPlayerAdaptor4rateEv
libmpris-qt5.so.1:_ZNK18MprisPlayerAdaptor6volumeEv
libmpris-qt5.so.1:_ZNK18MprisPlayerAdaptor7canPlayEv
libmpris-qt5.so.1:_ZNK18MprisPlayerAdaptor7canSeekEv
libmpris-qt5.so.1:_ZNK18MprisPlayerAdaptor7shuffleEv
libmpris-qt5.so.1:_ZNK18MprisPlayerAdaptor8canPauseEv
libmpris-qt5.so.1:_ZNK18MprisPlayerAdaptor8metadataEv
libmpris-qt5.so.1:_ZNK18MprisPlayerAdaptor8positionEv
libmpris-qt5.so.1:_ZNK18MprisPlayerAdaptor9canGoNextEv
libmpris-qt5.so.1:_ZNK18MprisRootInterface10metaObjectEv
libmpris-qt5.so.1:_ZNK20MprisPlayerInterface10metaObjectEv
libmpris-qt5.so.1:_ZNK5Mpris10metaObjectEv
