libQt5Xdg.so.3:_ZN11XdgMimeApps10addSupportERK7QStringRK14XdgDesktopFile
libQt5Xdg.so.3:_ZN11XdgMimeApps10defaultAppERK7QString
libQt5Xdg.so.3:_ZN11XdgMimeApps11qt_metacallEN11QMetaObject4CallEiPPv
libQt5Xdg.so.3:_ZN11XdgMimeApps11qt_metacastEPKc
libQt5Xdg.so.3:_ZN11XdgMimeApps12categoryAppsERK7QString
libQt5Xdg.so.3:_ZN11XdgMimeApps12fallbackAppsERK7QString
libQt5Xdg.so.3:_ZN11XdgMimeApps13removeSupportERK7QStringRK14XdgDesktopFile
libQt5Xdg.so.3:_ZN11XdgMimeApps13setDefaultAppERK7QStringRK14XdgDesktopFile
libQt5Xdg.so.3:_ZN11XdgMimeApps15recommendedAppsERK7QString
libQt5Xdg.so.3:_ZN11XdgMimeApps4appsERK7QString
libQt5Xdg.so.3:_ZN11XdgMimeApps5resetERK7QString
libQt5Xdg.so.3:_ZN11XdgMimeApps7allAppsEv
libQt5Xdg.so.3:_ZN11XdgMimeApps7changedEv
libQt5Xdg.so.3:_ZN11XdgMimeAppsC1EP7QObject
libQt5Xdg.so.3:_ZN11XdgMimeAppsC2EP7QObject
libQt5Xdg.so.3:_ZN11XdgMimeAppsD0Ev
libQt5Xdg.so.3:_ZN11XdgMimeAppsD1Ev
libQt5Xdg.so.3:_ZN11XdgMimeAppsD2Ev
libQt5Xdg.so.3:_ZN11XdgMimeTypeC1ERK9QMimeType
libQt5Xdg.so.3:_ZN11XdgMimeTypeC1ERKS_
libQt5Xdg.so.3:_ZN11XdgMimeTypeC1Ev
libQt5Xdg.so.3:_ZN11XdgMimeTypeC2ERK9QMimeType
libQt5Xdg.so.3:_ZN11XdgMimeTypeC2ERKS_
libQt5Xdg.so.3:_ZN11XdgMimeTypeC2Ev
libQt5Xdg.so.3:_ZN11XdgMimeTypeD1Ev
libQt5Xdg.so.3:_ZN11XdgMimeTypeD2Ev
libQt5Xdg.so.3:_ZN11XdgMimeTypeaSERKS_
libQt5Xdg.so.3:_ZN12XdgAutoStart15desktopFileListE11QStringListb
libQt5Xdg.so.3:_ZN12XdgAutoStart15desktopFileListEb
libQt5Xdg.so.3:_ZN12XdgAutoStart9localPathERK14XdgDesktopFile
libQt5Xdg.so.3:_ZN13XdgMenuWidget11qt_metacallEN11QMetaObject4CallEiPPv
libQt5Xdg.so.3:_ZN13XdgMenuWidget11qt_metacastEPKc
libQt5Xdg.so.3:_ZN13XdgMenuWidget5eventEP6QEvent
libQt5Xdg.so.3:_ZN13XdgMenuWidgetC1ERK11QDomElementP7QWidget
libQt5Xdg.so.3:_ZN13XdgMenuWidgetC1ERK7XdgMenuRK7QStringP7QWidget
libQt5Xdg.so.3:_ZN13XdgMenuWidgetC1ERKS_P7QWidget
libQt5Xdg.so.3:_ZN13XdgMenuWidgetC2ERK11QDomElementP7QWidget
libQt5Xdg.so.3:_ZN13XdgMenuWidgetC2ERK7XdgMenuRK7QStringP7QWidget
libQt5Xdg.so.3:_ZN13XdgMenuWidgetC2ERKS_P7QWidget
libQt5Xdg.so.3:_ZN13XdgMenuWidgetD0Ev
libQt5Xdg.so.3:_ZN13XdgMenuWidgetD1Ev
libQt5Xdg.so.3:_ZN13XdgMenuWidgetD2Ev
libQt5Xdg.so.3:_ZN13XdgMenuWidgetaSERKS_
libQt5Xdg.so.3:_ZN14XdgDesktopFile11removeEntryERK7QString
libQt5Xdg.so.3:_ZN14XdgDesktopFile17setLocalizedValueERK7QStringRK8QVariant
libQt5Xdg.so.3:_ZN14XdgDesktopFile2idERK7QStringb
libQt5Xdg.so.3:_ZN14XdgDesktopFile4loadERK7QString
libQt5Xdg.so.3:_ZN14XdgDesktopFile8setValueERK7QStringRK8QVariant
libQt5Xdg.so.3:_ZN14XdgDesktopFileC1ENS_4TypeERK7QStringS3_
libQt5Xdg.so.3:_ZN14XdgDesktopFileC1ERKS_
libQt5Xdg.so.3:_ZN14XdgDesktopFileC1Ev
libQt5Xdg.so.3:_ZN14XdgDesktopFileC2ENS_4TypeERK7QStringS3_
libQt5Xdg.so.3:_ZN14XdgDesktopFileC2ERKS_
libQt5Xdg.so.3:_ZN14XdgDesktopFileC2Ev
libQt5Xdg.so.3:_ZN14XdgDesktopFileD0Ev
libQt5Xdg.so.3:_ZN14XdgDesktopFileD1Ev
libQt5Xdg.so.3:_ZN14XdgDesktopFileD2Ev
libQt5Xdg.so.3:_ZN14XdgDesktopFileaSERKS_
libQt5Xdg.so.3:_ZN19XdgDesktopFileCache10initializeERK7QString
libQt5Xdg.so.3:_ZN19XdgDesktopFileCache10initializeEv
libQt5Xdg.so.3:_ZN19XdgDesktopFileCache11getAllFilesEv
libQt5Xdg.so.3:_ZN19XdgDesktopFileCache13getDefaultAppERK7QString
libQt5Xdg.so.3:_ZN19XdgDesktopFileCache17getAppsOfCategoryERK7QString
libQt5Xdg.so.3:_ZN19XdgDesktopFileCache25desktopFileSettingsFormatEv
libQt5Xdg.so.3:_ZN19XdgDesktopFileCache4loadERK7QString
libQt5Xdg.so.3:_ZN19XdgDesktopFileCache7getAppsERK7QString
libQt5Xdg.so.3:_ZN19XdgDesktopFileCache7getFileERK7QString
libQt5Xdg.so.3:_ZN19XdgDesktopFileCache8instanceEv
libQt5Xdg.so.3:_ZN19XdgDesktopFileCacheC1Ev
libQt5Xdg.so.3:_ZN19XdgDesktopFileCacheC2Ev
libQt5Xdg.so.3:_ZN19XdgDesktopFileCacheD1Ev
libQt5Xdg.so.3:_ZN19XdgDesktopFileCacheD2Ev
libQt5Xdg.so.3:_ZN7XdgDirs10configDirsERK7QString
libQt5Xdg.so.3:_ZN7XdgDirs10configHomeEb
libQt5Xdg.so.3:_ZN7XdgDirs10runtimeDirEv
libQt5Xdg.so.3:_ZN7XdgDirs10setUserDirENS_13UserDirectoryERK7QStringb
libQt5Xdg.so.3:_ZN7XdgDirs13autostartDirsERK7QString
libQt5Xdg.so.3:_ZN7XdgDirs13autostartHomeEb
libQt5Xdg.so.3:_ZN7XdgDirs14userDirDefaultENS_13UserDirectoryE
libQt5Xdg.so.3:_ZN7XdgDirs7userDirENS_13UserDirectoryE
libQt5Xdg.so.3:_ZN7XdgDirs8dataDirsERK7QString
libQt5Xdg.so.3:_ZN7XdgDirs8dataHomeEb
libQt5Xdg.so.3:_ZN7XdgDirs9cacheHomeEb
libQt5Xdg.so.3:_ZN7XdgIcon17followColorSchemeEv
libQt5Xdg.so.3:_ZN7XdgIcon20setFollowColorSchemeEb
libQt5Xdg.so.3:_ZN7XdgIcon22defaultApplicationIconEv
libQt5Xdg.so.3:_ZN7XdgIcon26defaultApplicationIconNameEv
libQt5Xdg.so.3:_ZN7XdgIcon9fromThemeERK11QStringListRK5QIcon
libQt5Xdg.so.3:_ZN7XdgIcon9fromThemeERK7QStringRK5QIcon
libQt5Xdg.so.3:_ZN7XdgIcon9fromThemeERK7QStringS2_S2_S2_S2_
libQt5Xdg.so.3:_ZN7XdgIconC1Ev
libQt5Xdg.so.3:_ZN7XdgIconC2Ev
libQt5Xdg.so.3:_ZN7XdgIconD0Ev
libQt5Xdg.so.3:_ZN7XdgIconD1Ev
libQt5Xdg.so.3:_ZN7XdgIconD2Ev
libQt5Xdg.so.3:_ZN7XdgMenu11qt_metacallEN11QMetaObject4CallEiPPv
libQt5Xdg.so.3:_ZN7XdgMenu11qt_metacastEPKc
libQt5Xdg.so.3:_ZN7XdgMenu12addWatchPathERK7QString
libQt5Xdg.so.3:_ZN7XdgMenu12environmentsEv
libQt5Xdg.so.3:_ZN7XdgMenu15getMenuFileNameERK7QString
libQt5Xdg.so.3:_ZN7XdgMenu15setEnvironmentsERK11QStringList
libQt5Xdg.so.3:_ZN7XdgMenu15setEnvironmentsERK7QString
libQt5Xdg.so.3:_ZN7XdgMenu4readERK7QString
libQt5Xdg.so.3:_ZN7XdgMenu4saveERK7QString
libQt5Xdg.so.3:_ZN7XdgMenu7changedEv
libQt5Xdg.so.3:_ZN7XdgMenu8findMenuER11QDomElementRK7QStringb
libQt5Xdg.so.3:_ZN7XdgMenu9setLogDirERK7QString
libQt5Xdg.so.3:_ZN7XdgMenuC1EP7QObject
libQt5Xdg.so.3:_ZN7XdgMenuC2EP7QObject
libQt5Xdg.so.3:_ZN7XdgMenuD0Ev
libQt5Xdg.so.3:_ZN7XdgMenuD1Ev
libQt5Xdg.so.3:_ZN7XdgMenuD2Ev
libQt5Xdg.so.3:_ZN9XdgAction10updateIconEv
libQt5Xdg.so.3:_ZN9XdgAction11qt_metacallEN11QMetaObject4CallEiPPv
libQt5Xdg.so.3:_ZN9XdgAction11qt_metacastEPKc
libQt5Xdg.so.3:_ZN9XdgAction4loadERK14XdgDesktopFile
libQt5Xdg.so.3:_ZN9XdgActionC1EP7QObject
libQt5Xdg.so.3:_ZN9XdgActionC1EPK14XdgDesktopFileP7QObject
libQt5Xdg.so.3:_ZN9XdgActionC1ERK14XdgDesktopFileP7QObject
libQt5Xdg.so.3:_ZN9XdgActionC1ERK7QStringP7QObject
libQt5Xdg.so.3:_ZN9XdgActionC1ERKS_P7QObject
libQt5Xdg.so.3:_ZN9XdgActionC2EP7QObject
libQt5Xdg.so.3:_ZN9XdgActionC2EPK14XdgDesktopFileP7QObject
libQt5Xdg.so.3:_ZN9XdgActionC2ERK14XdgDesktopFileP7QObject
libQt5Xdg.so.3:_ZN9XdgActionC2ERK7QStringP7QObject
libQt5Xdg.so.3:_ZN9XdgActionC2ERKS_P7QObject
libQt5Xdg.so.3:_ZN9XdgActionD0Ev
libQt5Xdg.so.3:_ZN9XdgActionD1Ev
libQt5Xdg.so.3:_ZN9XdgActionD2Ev
libQt5Xdg.so.3:_ZN9XdgActionaSERKS_
libQt5Xdg.so.3:_ZNK11XdgMimeApps10metaObjectEv
libQt5Xdg.so.3:_ZNK11XdgMimeType4iconEv
libQt5Xdg.so.3:_ZNK11XdgMimeType8iconNameEv
libQt5Xdg.so.3:_ZNK13XdgMenuWidget10metaObjectEv
libQt5Xdg.so.3:_ZNK14XdgDesktopFile10actionIconERK7QStringRK5QIcon
libQt5Xdg.so.3:_ZNK14XdgDesktopFile10actionNameERK7QString
libQt5Xdg.so.3:_ZNK14XdgDesktopFile10categoriesEv
libQt5Xdg.so.3:_ZNK14XdgDesktopFile10isSuitableEbRK7QString
libQt5Xdg.so.3:_ZNK14XdgDesktopFile12localizedKeyERK7QString
libQt5Xdg.so.3:_ZNK14XdgDesktopFile13startDetachedERK11QStringList
libQt5Xdg.so.3:_ZNK14XdgDesktopFile13startDetachedERK7QString
libQt5Xdg.so.3:_ZNK14XdgDesktopFile14actionActivateERK7QStringRK11QStringList
libQt5Xdg.so.3:_ZNK14XdgDesktopFile14actionIconNameERK7QString
libQt5Xdg.so.3:_ZNK14XdgDesktopFile14localizedValueERK7QStringRK8QVariant
libQt5Xdg.so.3:_ZNK14XdgDesktopFile16expandExecStringERK11QStringList
libQt5Xdg.so.3:_ZNK14XdgDesktopFile3urlEv
libQt5Xdg.so.3:_ZNK14XdgDesktopFile4iconERK5QIcon
libQt5Xdg.so.3:_ZNK14XdgDesktopFile4saveEP9QIODevice
libQt5Xdg.so.3:_ZNK14XdgDesktopFile4saveERK7QString
libQt5Xdg.so.3:_ZNK14XdgDesktopFile4typeEv
libQt5Xdg.so.3:_ZNK14XdgDesktopFile5valueERK7QStringRK8QVariant
libQt5Xdg.so.3:_ZNK14XdgDesktopFile7actionsEv
libQt5Xdg.so.3:_ZNK14XdgDesktopFile7isShownERK7QString
libQt5Xdg.so.3:_ZNK14XdgDesktopFile7isValidEv
libQt5Xdg.so.3:_ZNK14XdgDesktopFile8containsERK7QString
libQt5Xdg.so.3:_ZNK14XdgDesktopFile8fileNameEv
libQt5Xdg.so.3:_ZNK14XdgDesktopFile8iconNameEv
libQt5Xdg.so.3:_ZNK14XdgDesktopFile9mimeTypesEv
libQt5Xdg.so.3:_ZNK14XdgDesktopFileeqERKS_
libQt5Xdg.so.3:_ZNK7XdgMenu10isOutDatedEv
libQt5Xdg.so.3:_ZNK7XdgMenu10metaObjectEv
libQt5Xdg.so.3:_ZNK7XdgMenu11errorStringEv
libQt5Xdg.so.3:_ZNK7XdgMenu12menuFileNameEv
libQt5Xdg.so.3:_ZNK7XdgMenu3xmlEv
libQt5Xdg.so.3:_ZNK7XdgMenu6logDirEv
libQt5Xdg.so.3:_ZNK9XdgAction10metaObjectEv
libQt5Xdg.so.3:_ZNK9XdgAction11runConmmandEv
libQt5Xdg.so.3:_ZNK9XdgAction7isValidEv
libQt5Xdg.so.3:_ZThn16_N13XdgMenuWidgetD0Ev
libQt5Xdg.so.3:_ZThn16_N13XdgMenuWidgetD1Ev
libQt5XdgIconLoader.so.3:_ZN13XdgIconLoader20setFollowColorSchemeEb
libQt5XdgIconLoader.so.3:_ZN13XdgIconLoader8instanceEv
libQt5XdgIconLoader.so.3:_ZN19XdgIconLoaderEngine10actualSizeERK5QSizeN5QIcon4ModeENS3_5StateE
libQt5XdgIconLoader.so.3:_ZN19XdgIconLoaderEngine12ensureLoadedEv
libQt5XdgIconLoader.so.3:_ZN19XdgIconLoaderEngine12entryForSizeERK5QSizei
libQt5XdgIconLoader.so.3:_ZN19XdgIconLoaderEngine12virtual_hookEiPv
libQt5XdgIconLoader.so.3:_ZN19XdgIconLoaderEngine4readER11QDataStream
libQt5XdgIconLoader.so.3:_ZN19XdgIconLoaderEngine5paintEP8QPainterRK5QRectN5QIcon4ModeENS5_5StateE
libQt5XdgIconLoader.so.3:_ZN19XdgIconLoaderEngine6pixmapERK5QSizeN5QIcon4ModeENS3_5StateE
libQt5XdgIconLoader.so.3:_ZN19XdgIconLoaderEngineC1ERK7QString
libQt5XdgIconLoader.so.3:_ZN19XdgIconLoaderEngineC1ERKS_
libQt5XdgIconLoader.so.3:_ZN19XdgIconLoaderEngineC2ERK7QString
libQt5XdgIconLoader.so.3:_ZN19XdgIconLoaderEngineC2ERKS_
libQt5XdgIconLoader.so.3:_ZN19XdgIconLoaderEngineD0Ev
libQt5XdgIconLoader.so.3:_ZN19XdgIconLoaderEngineD1Ev
libQt5XdgIconLoader.so.3:_ZN19XdgIconLoaderEngineD2Ev
libQt5XdgIconLoader.so.3:_ZNK13XdgIconLoader14findIconHelperERK7QStringS2_R11QStringListb
libQt5XdgIconLoader.so.3:_ZNK13XdgIconLoader16unthemedFallbackERK7QStringRK11QStringList
libQt5XdgIconLoader.so.3:_ZNK13XdgIconLoader8loadIconERK7QString
libQt5XdgIconLoader.so.3:_ZNK19XdgIconLoaderEngine3keyEv
libQt5XdgIconLoader.so.3:_ZNK19XdgIconLoaderEngine5cloneEv
libQt5XdgIconLoader.so.3:_ZNK19XdgIconLoaderEngine5writeER11QDataStream
libQt5XdgIconLoader.so.3:_ZNK19XdgIconLoaderEngine7hasIconEv
