libdtkwidget.so.2:_Z20qInitResources_iconsv
libdtkwidget.so.2:_Z23qCleanupResources_iconsv
libdtkwidget.so.2:_Z29qInitResources_dui_theme_darkv
libdtkwidget.so.2:_Z30qInitResources_dui_theme_lightv
libdtkwidget.so.2:_Z32qCleanupResources_dui_theme_darkv
libdtkwidget.so.2:_Z33qCleanupResources_dui_theme_lightv
libdtkwidget.so.2:_ZN11ButtonGroup10setButtonsERK11QStringList
libdtkwidget.so.2:_ZN11ButtonGroup11qt_metacallEN11QMetaObject4CallEiPPv
libdtkwidget.so.2:_ZN11ButtonGroup11qt_metacastEPKc
libdtkwidget.so.2:_ZN11ButtonGroup13buttonCheckedEi
libdtkwidget.so.2:_ZN11ButtonGroup16setCheckedButtonEi
libdtkwidget.so.2:_ZN11ButtonGroupC1EP7QWidget
libdtkwidget.so.2:_ZN11ButtonGroupC2EP7QWidget
libdtkwidget.so.2:_ZN11ButtonGroupD0Ev
libdtkwidget.so.2:_ZN11ButtonGroupD1Ev
libdtkwidget.so.2:_ZN11ButtonGroupD2Ev
libdtkwidget.so.2:_ZN12ContentTitle11qt_metacallEN11QMetaObject4CallEiPPv
libdtkwidget.so.2:_ZN12ContentTitle11qt_metacastEPKc
libdtkwidget.so.2:_ZN12ContentTitle8setTitleERK7QString
libdtkwidget.so.2:_ZN12ContentTitleC1EP7QWidget
libdtkwidget.so.2:_ZN12ContentTitleC2EP7QWidget
libdtkwidget.so.2:_ZN12ContentTitleD0Ev
libdtkwidget.so.2:_ZN12ContentTitleD1Ev
libdtkwidget.so.2:_ZN12ContentTitleD2Ev
libdtkwidget.so.2:_ZN12DThemeHelper10themeToQssE7QString
libdtkwidget.so.2:_ZN12DThemeHelper11qt_metacallEN11QMetaObject4CallEiPPv
libdtkwidget.so.2:_ZN12DThemeHelper11qt_metacastEPKc
libdtkwidget.so.2:_ZN12DThemeHelper17trimThemeContentsE7QString
libdtkwidget.so.2:_ZN12DThemeHelperC1EP7QObject
libdtkwidget.so.2:_ZN12DThemeHelperC2EP7QObject
libdtkwidget.so.2:_ZN12ShortcutEdit10paintEventEP11QPaintEvent
libdtkwidget.so.2:_ZN12ShortcutEdit11qt_metacallEN11QMetaObject4CallEiPPv
libdtkwidget.so.2:_ZN12ShortcutEdit11qt_metacastEPKc
libdtkwidget.so.2:_ZN12ShortcutEdit11setShortCutE6QFlagsIN2Qt16KeyboardModifierEENS1_3KeyE
libdtkwidget.so.2:_ZN12ShortcutEdit11setShortCutERK7QString
libdtkwidget.so.2:_ZN12ShortcutEdit12focusInEventEP11QFocusEvent
libdtkwidget.so.2:_ZN12ShortcutEdit13focusOutEventEP11QFocusEvent
libdtkwidget.so.2:_ZN12ShortcutEdit13keyPressEventEP9QKeyEvent
libdtkwidget.so.2:_ZN12ShortcutEdit15shortcutChangedE6QFlagsIN2Qt16KeyboardModifierEENS1_3KeyE
libdtkwidget.so.2:_ZN12ShortcutEdit21mouseDoubleClickEventEP11QMouseEvent
libdtkwidget.so.2:_ZN12ShortcutEdit21notifyShortcutChangedE6QFlagsIN2Qt16KeyboardModifierEENS1_3KeyE
libdtkwidget.so.2:_ZN12ShortcutEdit21shortcutStringChangedERK7QString
libdtkwidget.so.2:_ZN12ShortcutEditC1EP7QWidget
libdtkwidget.so.2:_ZN12ShortcutEditC2EP7QWidget
libdtkwidget.so.2:_ZN12ShortcutEditD0Ev
libdtkwidget.so.2:_ZN12ShortcutEditD1Ev
libdtkwidget.so.2:_ZN12ShortcutEditD2Ev
libdtkwidget.so.2:_ZN13DBusInterface11qt_metacallEN11QMetaObject4CallEiPPv
libdtkwidget.so.2:_ZN13DBusInterface11qt_metacastEPKc
libdtkwidget.so.2:_ZN13DBusInterface12NameAcquiredERK7QString
libdtkwidget.so.2:_ZN13DBusInterface16NameOwnerChangedERK7QStringS2_S2_
libdtkwidget.so.2:_ZN13DBusInterface8NameLostERK7QString
libdtkwidget.so.2:_ZN13DBusInterfaceC1ERK7QStringS2_RK15QDBusConnectionP7QObject
libdtkwidget.so.2:_ZN13DBusInterfaceC2ERK7QStringS2_RK15QDBusConnectionP7QObject
libdtkwidget.so.2:_ZN13DBusInterfaceD0Ev
libdtkwidget.so.2:_ZN13DBusInterfaceD1Ev
libdtkwidget.so.2:_ZN13DBusInterfaceD2Ev
libdtkwidget.so.2:_ZN13DMPRISMonitor11qt_metacallEN11QMetaObject4CallEiPPv
libdtkwidget.so.2:_ZN13DMPRISMonitor11qt_metacastEPKc
libdtkwidget.so.2:_ZN13DMPRISMonitor18onNameOwnerChangedERK7QStringS2_S2_
libdtkwidget.so.2:_ZN13DMPRISMonitor4initEv
libdtkwidget.so.2:_ZN13DMPRISMonitorC1EP7QObject
libdtkwidget.so.2:_ZN13DMPRISMonitorC2EP7QObject
libdtkwidget.so.2:_ZN18NavigationDelegate11qt_metacallEN11QMetaObject4CallEiPPv
libdtkwidget.so.2:_ZN18NavigationDelegate11qt_metacastEPKc
libdtkwidget.so.2:_ZN18NavigationDelegateC1EP7QWidget
libdtkwidget.so.2:_ZN18NavigationDelegateC2EP7QWidget
libdtkwidget.so.2:_ZN18NavigationDelegateD0Ev
libdtkwidget.so.2:_ZN18NavigationDelegateD1Ev
libdtkwidget.so.2:_ZN18NavigationDelegateD2Ev
libdtkwidget.so.2:_ZN26StartupNotificationMonitor10appStartupE7QString
libdtkwidget.so.2:_ZN26StartupNotificationMonitor11qt_metacallEN11QMetaObject4CallEiPPv
libdtkwidget.so.2:_ZN26StartupNotificationMonitor11qt_metacastEPKc
libdtkwidget.so.2:_ZN26StartupNotificationMonitor17nativeEventFilterERK10QByteArrayPvPl
libdtkwidget.so.2:_ZN26StartupNotificationMonitor19appStartupCompletedE7QString
libdtkwidget.so.2:_ZN26StartupNotificationMonitor8instanceEv
libdtkwidget.so.2:_ZN26StartupNotificationMonitorC1Ev
libdtkwidget.so.2:_ZN26StartupNotificationMonitorC2Ev
libdtkwidget.so.2:_ZN26StartupNotificationMonitorD0Ev
libdtkwidget.so.2:_ZN26StartupNotificationMonitorD1Ev
libdtkwidget.so.2:_ZN26StartupNotificationMonitorD2Ev
libdtkwidget.so.2:_ZN3Dtk6Widget10DBoxWidget10updateSizeERK5QSize
libdtkwidget.so.2:_ZN3Dtk6Widget10DBoxWidget11qt_metacallEN11QMetaObject4CallEiPPv
libdtkwidget.so.2:_ZN3Dtk6Widget10DBoxWidget11qt_metacastEPKc
libdtkwidget.so.2:_ZN3Dtk6Widget10DBoxWidget11sizeChangedE5QSize
libdtkwidget.so.2:_ZN3Dtk6Widget10DBoxWidget12setDirectionEN10QBoxLayout9DirectionE
libdtkwidget.so.2:_ZN3Dtk6Widget10DBoxWidget16directionChangedEN10QBoxLayout9DirectionE
libdtkwidget.so.2:_ZN3Dtk6Widget10DBoxWidget5eventEP6QEvent
libdtkwidget.so.2:_ZN3Dtk6Widget10DBoxWidget9addWidgetEP7QWidget
libdtkwidget.so.2:_ZN3Dtk6Widget10DBoxWidgetC1EN10QBoxLayout9DirectionEP7QWidget
libdtkwidget.so.2:_ZN3Dtk6Widget10DBoxWidgetC2EN10QBoxLayout9DirectionEP7QWidget
libdtkwidget.so.2:_ZN3Dtk6Widget10DCrumbEdit10crumbAddedERK7QString
libdtkwidget.so.2:_ZN3Dtk6Widget10DCrumbEdit10paintEventEP11QPaintEvent
libdtkwidget.so.2:_ZN3Dtk6Widget10DCrumbEdit11appendCrumbERK7QString
libdtkwidget.so.2:_ZN3Dtk6Widget10DCrumbEdit11appendCrumbERKNS0_16DCrumbTextFormatE
libdtkwidget.so.2:_ZN3Dtk6Widget10DCrumbEdit11insertCrumbERK7QStringi
libdtkwidget.so.2:_ZN3Dtk6Widget10DCrumbEdit11insertCrumbERKNS0_16DCrumbTextFormatEi
libdtkwidget.so.2:_ZN3Dtk6Widget10DCrumbEdit11qt_metacallEN11QMetaObject4CallEiPPv
libdtkwidget.so.2:_ZN3Dtk6Widget10DCrumbEdit11qt_metacastEPKc
libdtkwidget.so.2:_ZN3Dtk6Widget10DCrumbEdit11setSplitterERK7QString
libdtkwidget.so.2:_ZN3Dtk6Widget10DCrumbEdit12crumbRemovedERK7QString
libdtkwidget.so.2:_ZN3Dtk6Widget10DCrumbEdit13focusOutEventEP11QFocusEvent
libdtkwidget.so.2:_ZN3Dtk6Widget10DCrumbEdit13keyPressEventEP9QKeyEvent
libdtkwidget.so.2:_ZN3Dtk6Widget10DCrumbEdit14setCrumbRadiusEi
libdtkwidget.so.2:_ZN3Dtk6Widget10DCrumbEdit16crumbListChangedEv
libdtkwidget.so.2:_ZN3Dtk6Widget10DCrumbEdit16setCrumbReadOnlyEb
libdtkwidget.so.2:_ZN3Dtk6Widget10DCrumbEdit18insertFromMimeDataEPK9QMimeData
libdtkwidget.so.2:_ZN3Dtk6Widget10DCrumbEdit21mouseDoubleClickEventEP11QMouseEvent
libdtkwidget.so.2:_ZN3Dtk6Widget10DCrumbEdit21setDualClickMakeCrumbEb
libdtkwidget.so.2:_ZN3Dtk6Widget10DCrumbEditC1EP7QWidget
libdtkwidget.so.2:_ZN3Dtk6Widget10DCrumbEditC2EP7QWidget
libdtkwidget.so.2:_ZN3Dtk6Widget10DScrollBar10enterEventEP6QEvent
libdtkwidget.so.2:_ZN3Dtk6Widget10DScrollBar10leaveEventEP6QEvent
libdtkwidget.so.2:_ZN3Dtk6Widget10DScrollBar10paintEventEP11QPaintEvent
libdtkwidget.so.2:_ZN3Dtk6Widget10DScrollBar11qt_metacallEN11QMetaObject4CallEiPPv
libdtkwidget.so.2:_ZN3Dtk6Widget10DScrollBar11qt_metacastEPKc
libdtkwidget.so.2:_ZN3Dtk6Widget10DScrollBar11setAutoHideEb
libdtkwidget.so.2:_ZN3Dtk6Widget10DScrollBar15autoHideChangedEb
libdtkwidget.so.2:_ZN3Dtk6Widget10DScrollBarC1EP7QWidget
libdtkwidget.so.2:_ZN3Dtk6Widget10DScrollBarC2EP7QWidget
libdtkwidget.so.2:_ZN3Dtk6Widget10LoadSlider10paintEventEP11QPaintEvent
libdtkwidget.so.2:_ZN3Dtk6Widget10LoadSlider18setLoadSliderColorERK6QColor
libdtkwidget.so.2:_ZN3Dtk6Widget10LoadSliderC1EP7QWidget
libdtkwidget.so.2:_ZN3Dtk6Widget10LoadSliderC2EP7QWidget
libdtkwidget.so.2:_ZN3Dtk6Widget10Navigation11qt_metacallEN11QMetaObject4CallEiPPv
libdtkwidget.so.2:_ZN3Dtk6Widget10Navigation11qt_metacastEPKc
libdtkwidget.so.2:_ZN3Dtk6Widget10Navigation13onSelectGroupERK7QString
libdtkwidget.so.2:_ZN3Dtk6Widget10Navigation13selectedGroupERK7QString
libdtkwidget.so.2:_ZN3Dtk6Widget10Navigation14updateSettingsERK10QByteArray8QPointerINS_4Core9DSettingsEE
libdtkwidget.so.2:_ZN3Dtk6Widget10NavigationC1EP7QWidget
libdtkwidget.so.2:_ZN3Dtk6Widget10NavigationC2EP7QWidget
libdtkwidget.so.2:_ZN3Dtk6Widget10NavigationD0Ev
libdtkwidget.so.2:_ZN3Dtk6Widget10NavigationD1Ev
libdtkwidget.so.2:_ZN3Dtk6Widget10NavigationD2Ev
libdtkwidget.so.2:_ZN3Dtk6Widget10dropShadowERK7QPixmapdRK6QColor
libdtkwidget.so.2:_ZN3Dtk6Widget11DBaseButton11qt_metacallEN11QMetaObject4CallEiPPv
libdtkwidget.so.2:_ZN3Dtk6Widget11DBaseButton11qt_metacastEPKc
libdtkwidget.so.2:_ZN3Dtk6Widget11DBaseButton15initInsideFrameEv
libdtkwidget.so.2:_ZN3Dtk6Widget11DBaseButtonC1EP7QWidget
libdtkwidget.so.2:_ZN3Dtk6Widget11DBaseButtonC1ERK5QIconRK7QStringP7QWidget
libdtkwidget.so.2:_ZN3Dtk6Widget11DBaseButtonC1ERK7QStringP7QWidget
libdtkwidget.so.2:_ZN3Dtk6Widget11DBaseButtonC2EP7QWidget
libdtkwidget.so.2:_ZN3Dtk6Widget11DBaseButtonC2ERK5QIconRK7QStringP7QWidget
libdtkwidget.so.2:_ZN3Dtk6Widget11DBaseButtonC2ERK7QStringP7QWidget
libdtkwidget.so.2:_ZN3Dtk6Widget11DBaseExpand10setContentEP7QWidget6QFlagsIN2Qt13AlignmentFlagEE
libdtkwidget.so.2:_ZN3Dtk6Widget11DBaseExpand11qt_metacallEN11QMetaObject4CallEiPPv
libdtkwidget.so.2:_ZN3Dtk6Widget11DBaseExpand11qt_metacastEPKc
libdtkwidget.so.2:_ZN3Dtk6Widget11DBaseExpand11resizeEventEP12QResizeEvent
libdtkwidget.so.2:_ZN3Dtk6Widget11DBaseExpand11sizeChangedE5QSize
libdtkwidget.so.2:_ZN3Dtk6Widget11DBaseExpand12expandChangeEb
libdtkwidget.so.2:_ZN3Dtk6Widget11DBaseExpand15setHeaderHeightEi
libdtkwidget.so.2:_ZN3Dtk6Widget11DBaseExpand19setSeparatorVisibleEb
libdtkwidget.so.2:_ZN3Dtk6Widget11DBaseExpand20setAnimationDurationEi
libdtkwidget.so.2:_ZN3Dtk6Widget11DBaseExpand23setAnimationEasingCurveE12QEasingCurve
libdtkwidget.so.2:_ZN3Dtk6Widget11DBaseExpand27setExpandedSeparatorVisibleEb
libdtkwidget.so.2:_ZN3Dtk6Widget11DBaseExpand9setExpandEb
libdtkwidget.so.2:_ZN3Dtk6Widget11DBaseExpand9setHeaderEP7QWidget
libdtkwidget.so.2:_ZN3Dtk6Widget11DBaseExpandC1EP7QWidget
libdtkwidget.so.2:_ZN3Dtk6Widget11DBaseExpandC2EP7QWidget
libdtkwidget.so.2:_ZN3Dtk6Widget11DBaseExpandD0Ev
libdtkwidget.so.2:_ZN3Dtk6Widget11DBaseExpandD1Ev
libdtkwidget.so.2:_ZN3Dtk6Widget11DBaseExpandD2Ev
libdtkwidget.so.2:_ZN3Dtk6Widget11DButtonList10addButtonsERK11QStringList
libdtkwidget.so.2:_ZN3Dtk6Widget11DButtonList11initConnectEv
libdtkwidget.so.2:_ZN3Dtk6Widget11DButtonList11initMarginsEiii
libdtkwidget.so.2:_ZN3Dtk6Widget11DButtonList11qt_metacallEN11QMetaObject4CallEiPPv
libdtkwidget.so.2:_ZN3Dtk6Widget11DButtonList11qt_metacastEPKc
libdtkwidget.so.2:_ZN3Dtk6Widget11DButtonList11setItemSizeE5QSize
libdtkwidget.so.2:_ZN3Dtk6Widget11DButtonList11setItemSizeEii
libdtkwidget.so.2:_ZN3Dtk6Widget11DButtonList12setItemWidthEi
libdtkwidget.so.2:_ZN3Dtk6Widget11DButtonList13buttonCheckedE7QString
libdtkwidget.so.2:_ZN3Dtk6Widget11DButtonList13setItemHeightEi
libdtkwidget.so.2:_ZN3Dtk6Widget11DButtonList16getButtonByIndexEi
libdtkwidget.so.2:_ZN3Dtk6Widget11DButtonList16setButtonCheckedEi
libdtkwidget.so.2:_ZN3Dtk6Widget11DButtonList17buttonMouseLeavedE7QString
libdtkwidget.so.2:_ZN3Dtk6Widget11DButtonList18buttonMouseEnteredE7QString
libdtkwidget.so.2:_ZN3Dtk6Widget11DButtonList18checkButtonByIndexEi
libdtkwidget.so.2:_ZN3Dtk6Widget11DButtonList25buttonCheckedIndexChangedEi
libdtkwidget.so.2:_ZN3Dtk6Widget11DButtonList5clearEv
libdtkwidget.so.2:_ZN3Dtk6Widget11DButtonList9addButtonERK7QString
libdtkwidget.so.2:_ZN3Dtk6Widget11DButtonList9addButtonERK7QStringi
libdtkwidget.so.2:_ZN3Dtk6Widget11DButtonListC1EP7QWidget
libdtkwidget.so.2:_ZN3Dtk6Widget11DButtonListC2EP7QWidget
libdtkwidget.so.2:_ZN3Dtk6Widget11DButtonListD0Ev
libdtkwidget.so.2:_ZN3Dtk6Widget11DButtonListD1Ev
libdtkwidget.so.2:_ZN3Dtk6Widget11DButtonListD2Ev
libdtkwidget.so.2:_ZN3Dtk6Widget11DFileDialog10setVisibleEb
libdtkwidget.so.2:_ZN3Dtk6Widget11DFileDialog11addComboBoxERK7QStringRK11QStringList
libdtkwidget.so.2:_ZN3Dtk6Widget11DFileDialog11addComboBoxERK7QStringRKNS1_16DComboBoxOptionsE
libdtkwidget.so.2:_ZN3Dtk6Widget11DFileDialog11addLineEditERK7QString
libdtkwidget.so.2:_ZN3Dtk6Widget11DFileDialog11addLineEditERK7QStringRKNS1_16DLineEditOptionsE
libdtkwidget.so.2:_ZN3Dtk6Widget11DFileDialog11qt_metacallEN11QMetaObject4CallEiPPv
libdtkwidget.so.2:_ZN3Dtk6Widget11DFileDialog11qt_metacastEPKc
libdtkwidget.so.2:_ZN3Dtk6Widget11DFileDialogC1EP7QWidget6QFlagsIN2Qt10WindowTypeEE
libdtkwidget.so.2:_ZN3Dtk6Widget11DFileDialogC1EP7QWidgetRK7QStringS6_S6_
libdtkwidget.so.2:_ZN3Dtk6Widget11DFileDialogC2EP7QWidget6QFlagsIN2Qt10WindowTypeEE
libdtkwidget.so.2:_ZN3Dtk6Widget11DFileDialogC2EP7QWidgetRK7QStringS6_S6_
libdtkwidget.so.2:_ZN3Dtk6Widget11DFlowLayout10addSpacingEi
libdtkwidget.so.2:_ZN3Dtk6Widget11DFlowLayout10addStretchEi
libdtkwidget.so.2:_ZN3Dtk6Widget11DFlowLayout10insertItemEiP11QLayoutItem
libdtkwidget.so.2:_ZN3Dtk6Widget11DFlowLayout10setSpacingEi
libdtkwidget.so.2:_ZN3Dtk6Widget11DFlowLayout11flowChangedEN9QListView4FlowE
libdtkwidget.so.2:_ZN3Dtk6Widget11DFlowLayout11qt_metacallEN11QMetaObject4CallEiPPv
libdtkwidget.so.2:_ZN3Dtk6Widget11DFlowLayout11qt_metacastEPKc
libdtkwidget.so.2:_ZN3Dtk6Widget11DFlowLayout11setGeometryERK5QRect
libdtkwidget.so.2:_ZN3Dtk6Widget11DFlowLayout12countChangedEi
libdtkwidget.so.2:_ZN3Dtk6Widget11DFlowLayout12insertLayoutEiP7QLayout
libdtkwidget.so.2:_ZN3Dtk6Widget11DFlowLayout12insertWidgetEiP7QWidget
libdtkwidget.so.2:_ZN3Dtk6Widget11DFlowLayout13addSpacerItemEP11QSpacerItem
libdtkwidget.so.2:_ZN3Dtk6Widget11DFlowLayout13insertSpacingEii
libdtkwidget.so.2:_ZN3Dtk6Widget11DFlowLayout13insertStretchEii
libdtkwidget.so.2:_ZN3Dtk6Widget11DFlowLayout16insertSpacerItemEiP11QSpacerItem
libdtkwidget.so.2:_ZN3Dtk6Widget11DFlowLayout18setVerticalSpacingEi
libdtkwidget.so.2:_ZN3Dtk6Widget11DFlowLayout20setHorizontalSpacingEi
libdtkwidget.so.2:_ZN3Dtk6Widget11DFlowLayout22verticalSpacingChangedEi
libdtkwidget.so.2:_ZN3Dtk6Widget11DFlowLayout24horizontalSpacingChangedEi
libdtkwidget.so.2:_ZN3Dtk6Widget11DFlowLayout6takeAtEi
libdtkwidget.so.2:_ZN3Dtk6Widget11DFlowLayout7addItemEP11QLayoutItem
libdtkwidget.so.2:_ZN3Dtk6Widget11DFlowLayout7setFlowEN9QListView4FlowE
libdtkwidget.so.2:_ZN3Dtk6Widget11DFlowLayoutC1EP7QWidget
libdtkwidget.so.2:_ZN3Dtk6Widget11DFlowLayoutC1Ev
libdtkwidget.so.2:_ZN3Dtk6Widget11DFlowLayoutC2EP7QWidget
libdtkwidget.so.2:_ZN3Dtk6Widget11DFlowLayoutC2Ev
libdtkwidget.so.2:_ZN3Dtk6Widget11DFlowLayoutD0Ev
libdtkwidget.so.2:_ZN3Dtk6Widget11DFlowLayoutD1Ev
libdtkwidget.so.2:_ZN3Dtk6Widget11DFlowLayoutD2Ev
libdtkwidget.so.2:_ZN3Dtk6Widget11DHBoxWidget11qt_metacallEN11QMetaObject4CallEiPPv
libdtkwidget.so.2:_ZN3Dtk6Widget11DHBoxWidget11qt_metacastEPKc
libdtkwidget.so.2:_ZN3Dtk6Widget11DHBoxWidgetC1EP7QWidget
libdtkwidget.so.2:_ZN3Dtk6Widget11DHBoxWidgetC2EP7QWidget
libdtkwidget.so.2:_ZN3Dtk6Widget11DHeaderLine10setContentEP7QWidget
libdtkwidget.so.2:_ZN3Dtk6Widget11DHeaderLine11qt_metacallEN11QMetaObject4CallEiPPv
libdtkwidget.so.2:_ZN3Dtk6Widget11DHeaderLine11qt_metacastEPKc
libdtkwidget.so.2:_ZN3Dtk6Widget11DHeaderLine8setTitleERK7QString
libdtkwidget.so.2:_ZN3Dtk6Widget11DHeaderLineC1EP7QWidget
libdtkwidget.so.2:_ZN3Dtk6Widget11DHeaderLineC2EP7QWidget
libdtkwidget.so.2:_ZN3Dtk6Widget11DIconButton10enterEventEP6QEvent
libdtkwidget.so.2:_ZN3Dtk6Widget11DIconButton10leaveEventEP6QEvent
libdtkwidget.so.2:_ZN3Dtk6Widget11DIconButton11initConnectEv
libdtkwidget.so.2:_ZN3Dtk6Widget11DIconButton11mouseLeavedE7QString
libdtkwidget.so.2:_ZN3Dtk6Widget11DIconButton11qt_metacallEN11QMetaObject4CallEiPPv
libdtkwidget.so.2:_ZN3Dtk6Widget11DIconButton11qt_metacastEPKc
libdtkwidget.so.2:_ZN3Dtk6Widget11DIconButton11resizeEventEP12QResizeEvent
libdtkwidget.so.2:_ZN3Dtk6Widget11DIconButton11updateStyleEv
libdtkwidget.so.2:_ZN3Dtk6Widget11DIconButton12mouseEnteredE7QString
libdtkwidget.so.2:_ZN3Dtk6Widget11DIconButton12setIconLabelERK7QString
libdtkwidget.so.2:_ZN3Dtk6Widget11DIconButton13hideIconLabelEv
libdtkwidget.so.2:_ZN3Dtk6Widget11DIconButton13initIconLabelEv
libdtkwidget.so.2:_ZN3Dtk6Widget11DIconButton17setIconLeftMarginEi
libdtkwidget.so.2:_ZN3Dtk6Widget11DIconButtonC1ERK7QStringS4_P7QWidget
libdtkwidget.so.2:_ZN3Dtk6Widget11DIconButtonC2ERK7QStringS4_P7QWidget
libdtkwidget.so.2:_ZN3Dtk6Widget11DLinkButton11qt_metacallEN11QMetaObject4CallEiPPv
libdtkwidget.so.2:_ZN3Dtk6Widget11DLinkButton11qt_metacastEPKc
libdtkwidget.so.2:_ZN3Dtk6Widget11DLinkButtonC1ERK7QStringP7QWidget
libdtkwidget.so.2:_ZN3Dtk6Widget11DLinkButtonC2ERK7QStringP7QWidget
libdtkwidget.so.2:_ZN3Dtk6Widget11DListWidget10addWidgetsERK5QListIP7QWidgetE6QFlagsIN2Qt13AlignmentFlagEE
libdtkwidget.so.2:_ZN3Dtk6Widget11DListWidget10hideWidgetEi
libdtkwidget.so.2:_ZN3Dtk6Widget11DListWidget10setCheckedEib
libdtkwidget.so.2:_ZN3Dtk6Widget11DListWidget10setSpacingEi
libdtkwidget.so.2:_ZN3Dtk6Widget11DListWidget10showWidgetEi
libdtkwidget.so.2:_ZN3Dtk6Widget11DListWidget10updateSizeEv
libdtkwidget.so.2:_ZN3Dtk6Widget11DListWidget11qt_metacallEN11QMetaObject4CallEiPPv
libdtkwidget.so.2:_ZN3Dtk6Widget11DListWidget11qt_metacastEPKc
libdtkwidget.so.2:_ZN3Dtk6Widget11DListWidget11setItemSizeEii
libdtkwidget.so.2:_ZN3Dtk6Widget11DListWidget12countChangedEi
libdtkwidget.so.2:_ZN3Dtk6Widget11DListWidget12insertWidgetEiP7QWidget6QFlagsIN2Qt13AlignmentFlagEE
libdtkwidget.so.2:_ZN3Dtk6Widget11DListWidget12removeWidgetEib
libdtkwidget.so.2:_ZN3Dtk6Widget11DListWidget12setCheckModeENS1_9CheckModeE
libdtkwidget.so.2:_ZN3Dtk6Widget11DListWidget12setCheckableEb
libdtkwidget.so.2:_ZN3Dtk6Widget11DListWidget12setDirectionEN10QBoxLayout9DirectionE
libdtkwidget.so.2:_ZN3Dtk6Widget11DListWidget13insertWidgetsEiRK5QListIP7QWidgetE6QFlagsIN2Qt13AlignmentFlagEE
libdtkwidget.so.2:_ZN3Dtk6Widget11DListWidget13setToggleableEb
libdtkwidget.so.2:_ZN3Dtk6Widget11DListWidget14checkedChangedEib
libdtkwidget.so.2:_ZN3Dtk6Widget11DListWidget15setVisibleCountEi
libdtkwidget.so.2:_ZN3Dtk6Widget11DListWidget16checkableChangedEb
libdtkwidget.so.2:_ZN3Dtk6Widget11DListWidget17mouseReleaseEventEP11QMouseEvent
libdtkwidget.so.2:_ZN3Dtk6Widget11DListWidget17toggleableChangedEb
libdtkwidget.so.2:_ZN3Dtk6Widget11DListWidget18setContentsMarginsERK8QMargins
libdtkwidget.so.2:_ZN3Dtk6Widget11DListWidget18setContentsMarginsEiiii
libdtkwidget.so.2:_ZN3Dtk6Widget11DListWidget19firstCheckedChangedEi
libdtkwidget.so.2:_ZN3Dtk6Widget11DListWidget19visibleCountChangedEi
libdtkwidget.so.2:_ZN3Dtk6Widget11DListWidget23setEnableVerticalScrollEb
libdtkwidget.so.2:_ZN3Dtk6Widget11DListWidget25setEnableHorizontalScrollEb
libdtkwidget.so.2:_ZN3Dtk6Widget11DListWidget27enableVerticalScrollChangedEb
libdtkwidget.so.2:_ZN3Dtk6Widget11DListWidget29enableHorizontalScrollChangedEb
libdtkwidget.so.2:_ZN3Dtk6Widget11DListWidget5clearEb
libdtkwidget.so.2:_ZN3Dtk6Widget11DListWidget7clickedEi
libdtkwidget.so.2:_ZN3Dtk6Widget11DListWidget7indexOfEPK7QWidget
libdtkwidget.so.2:_ZN3Dtk6Widget11DListWidget9addWidgetEP7QWidget6QFlagsIN2Qt13AlignmentFlagEE
libdtkwidget.so.2:_ZN3Dtk6Widget11DListWidgetC1EN10QBoxLayout9DirectionENS1_9CheckModeEP7QWidget
libdtkwidget.so.2:_ZN3Dtk6Widget11DListWidgetC1ENS1_9CheckModeEP7QWidget
libdtkwidget.so.2:_ZN3Dtk6Widget11DListWidgetC1ERNS0_18DListWidgetPrivateEP7QWidget
libdtkwidget.so.2:_ZN3Dtk6Widget11DListWidgetC2EN10QBoxLayout9DirectionENS1_9CheckModeEP7QWidget
libdtkwidget.so.2:_ZN3Dtk6Widget11DListWidgetC2ENS1_9CheckModeEP7QWidget
libdtkwidget.so.2:_ZN3Dtk6Widget11DListWidgetC2ERNS0_18DListWidgetPrivateEP7QWidget
libdtkwidget.so.2:_ZN3Dtk6Widget11DMainWindow11qt_metacallEN11QMetaObject4CallEiPPv
libdtkwidget.so.2:_ZN3Dtk6Widget11DMainWindow11qt_metacastEPKc
libdtkwidget.so.2:_ZN3Dtk6Widget11DMainWindow11setClipPathERK12QPainterPath
libdtkwidget.so.2:_ZN3Dtk6Widget11DMainWindow12setFrameMaskERK7QRegion
libdtkwidget.so.2:_ZN3Dtk6Widget11DMainWindow14setBorderColorERK6QColor
libdtkwidget.so.2:_ZN3Dtk6Widget11DMainWindow14setBorderWidthEi
libdtkwidget.so.2:_ZN3Dtk6Widget11DMainWindow14setShadowColorERK6QColor
libdtkwidget.so.2:_ZN3Dtk6Widget11DMainWindow15clipPathChangedEv
libdtkwidget.so.2:_ZN3Dtk6Widget11DMainWindow15setShadowOffsetERK6QPoint
libdtkwidget.so.2:_ZN3Dtk6Widget11DMainWindow15setShadowRadiusEi
libdtkwidget.so.2:_ZN3Dtk6Widget11DMainWindow15setWindowRadiusEi
libdtkwidget.so.2:_ZN3Dtk6Widget11DMainWindow16frameMaskChangedEv
libdtkwidget.so.2:_ZN3Dtk6Widget11DMainWindow18borderColorChangedEv
libdtkwidget.so.2:_ZN3Dtk6Widget11DMainWindow18borderWidthChangedEv
libdtkwidget.so.2:_ZN3Dtk6Widget11DMainWindow18shadowColorChangedEv
libdtkwidget.so.2:_ZN3Dtk6Widget11DMainWindow19frameMarginsChangedEv
libdtkwidget.so.2:_ZN3Dtk6Widget11DMainWindow19setEnableBlurWindowEb
libdtkwidget.so.2:_ZN3Dtk6Widget11DMainWindow19setEnableSystemMoveEb
libdtkwidget.so.2:_ZN3Dtk6Widget11DMainWindow19shadowOffsetChangedEv
libdtkwidget.so.2:_ZN3Dtk6Widget11DMainWindow19shadowRadiusChangedEv
libdtkwidget.so.2:_ZN3Dtk6Widget11DMainWindow19windowRadiusChangedEv
libdtkwidget.so.2:_ZN3Dtk6Widget11DMainWindow21setEnableSystemResizeEb
libdtkwidget.so.2:_ZN3Dtk6Widget11DMainWindow23enableBlurWindowChangedEv
libdtkwidget.so.2:_ZN3Dtk6Widget11DMainWindow23enableSystemMoveChangedEv
libdtkwidget.so.2:_ZN3Dtk6Widget11DMainWindow24setTranslucentBackgroundEb
libdtkwidget.so.2:_ZN3Dtk6Widget11DMainWindow25enableSystemResizeChangedEv
libdtkwidget.so.2:_ZN3Dtk6Widget11DMainWindow26setAutoInputMaskByClipPathEb
libdtkwidget.so.2:_ZN3Dtk6Widget11DMainWindow28translucentBackgroundChangedEv
libdtkwidget.so.2:_ZN3Dtk6Widget11DMainWindow30autoInputMaskByClipPathChangedEv
libdtkwidget.so.2:_ZN3Dtk6Widget11DMainWindowC1EP7QWidget
libdtkwidget.so.2:_ZN3Dtk6Widget11DMainWindowC1ERNS0_18DMainWindowPrivateEP7QWidget
libdtkwidget.so.2:_ZN3Dtk6Widget11DMainWindowC2EP7QWidget
libdtkwidget.so.2:_ZN3Dtk6Widget11DMainWindowC2ERNS0_18DMainWindowPrivateEP7QWidget
libdtkwidget.so.2:_ZN3Dtk6Widget11DOptionList11qt_metacallEN11QMetaObject4CallEiPPv
libdtkwidget.so.2:_ZN3Dtk6Widget11DOptionList11qt_metacastEPKc
libdtkwidget.so.2:_ZN3Dtk6Widget11DOptionList12insertOptionEiPNS0_7DOptionE
libdtkwidget.so.2:_ZN3Dtk6Widget11DOptionList18setCurrentSelectedERK7QString
libdtkwidget.so.2:_ZN3Dtk6Widget11DOptionList18setCurrentSelectedEi
libdtkwidget.so.2:_ZN3Dtk6Widget11DOptionList9addOptionEPNS0_7DOptionE
libdtkwidget.so.2:_ZN3Dtk6Widget11DOptionListC1EP7QWidget
libdtkwidget.so.2:_ZN3Dtk6Widget11DOptionListC2EP7QWidget
libdtkwidget.so.2:_ZN3Dtk6Widget11DPushButton10enterEventEP6QEvent
libdtkwidget.so.2:_ZN3Dtk6Widget11DPushButton10leaveEventEP6QEvent
libdtkwidget.so.2:_ZN3Dtk6Widget11DPushButton11qt_metacallEN11QMetaObject4CallEiPPv
libdtkwidget.so.2:_ZN3Dtk6Widget11DPushButton11qt_metacastEPKc
libdtkwidget.so.2:_ZN3Dtk6Widget11DPushButton12setHoverIconERK5QIcon
libdtkwidget.so.2:_ZN3Dtk6Widget11DPushButton12setHoverIconERK7QString
libdtkwidget.so.2:_ZN3Dtk6Widget11DPushButton12setPressIconERK5QIcon
libdtkwidget.so.2:_ZN3Dtk6Widget11DPushButton12setPressIconERK7QString
libdtkwidget.so.2:_ZN3Dtk6Widget11DPushButton13setNormalIconERK5QIcon
libdtkwidget.so.2:_ZN3Dtk6Widget11DPushButton13setNormalIconERK7QString
libdtkwidget.so.2:_ZN3Dtk6Widget11DPushButton15mousePressEventEP11QMouseEvent
libdtkwidget.so.2:_ZN3Dtk6Widget11DPushButtonC1EP7QWidget
libdtkwidget.so.2:_ZN3Dtk6Widget11DPushButtonC1ERK7QStringS4_S4_P7QWidget
libdtkwidget.so.2:_ZN3Dtk6Widget11DPushButtonC2EP7QWidget
libdtkwidget.so.2:_ZN3Dtk6Widget11DPushButtonC2ERK7QStringS4_S4_P7QWidget
libdtkwidget.so.2:_ZN3Dtk6Widget11DScrollArea11qt_metacallEN11QMetaObject4CallEiPPv
libdtkwidget.so.2:_ZN3Dtk6Widget11DScrollArea11qt_metacastEPKc
libdtkwidget.so.2:_ZN3Dtk6Widget11DScrollArea13hideScrollBarEP10QScrollBar
libdtkwidget.so.2:_ZN3Dtk6Widget11DScrollArea13showScrollBarEP10QScrollBar
libdtkwidget.so.2:_ZN3Dtk6Widget11DScrollArea20setAutoHideScrollBarEb
libdtkwidget.so.2:_ZN3Dtk6Widget11DScrollArea24autoHideScrollBarChangedEb
libdtkwidget.so.2:_ZN3Dtk6Widget11DScrollAreaC1EP7QWidget
libdtkwidget.so.2:_ZN3Dtk6Widget11DScrollAreaC1ERNS0_18DScrollAreaPrivateEP7QWidget
libdtkwidget.so.2:_ZN3Dtk6Widget11DScrollAreaC2EP7QWidget
libdtkwidget.so.2:_ZN3Dtk6Widget11DScrollAreaC2ERNS0_18DScrollAreaPrivateEP7QWidget
libdtkwidget.so.2:_ZN3Dtk6Widget11DSearchEdit10toEditModeEv
libdtkwidget.so.2:_ZN3Dtk6Widget11DSearchEdit11eventFilterEP7QObjectP6QEvent
libdtkwidget.so.2:_ZN3Dtk6Widget11DSearchEdit11qt_metacallEN11QMetaObject4CallEiPPv
libdtkwidget.so.2:_ZN3Dtk6Widget11DSearchEdit11qt_metacastEPKc
libdtkwidget.so.2:_ZN3Dtk6Widget11DSearchEdit11resizeEventEP12QResizeEvent
libdtkwidget.so.2:_ZN3Dtk6Widget11DSearchEdit11textChangedEv
libdtkwidget.so.2:_ZN3Dtk6Widget11DSearchEdit13returnPressedEv
libdtkwidget.so.2:_ZN3Dtk6Widget11DSearchEdit15editingFinishedEv
libdtkwidget.so.2:_ZN3Dtk6Widget11DSearchEdit15initInsideFrameEv
libdtkwidget.so.2:_ZN3Dtk6Widget11DSearchEdit15mousePressEventEP11QMouseEvent
libdtkwidget.so.2:_ZN3Dtk6Widget11DSearchEdit17mouseReleaseEventEP11QMouseEvent
libdtkwidget.so.2:_ZN3Dtk6Widget11DSearchEdit5eventEP6QEvent
libdtkwidget.so.2:_ZN3Dtk6Widget11DSearchEdit7focusInEv
libdtkwidget.so.2:_ZN3Dtk6Widget11DSearchEdit8focusOutEv
libdtkwidget.so.2:_ZN3Dtk6Widget11DSearchEditC1EP7QWidget
libdtkwidget.so.2:_ZN3Dtk6Widget11DSearchEditC2EP7QWidget
libdtkwidget.so.2:_ZN3Dtk6Widget11DSearchEditD0Ev
libdtkwidget.so.2:_ZN3Dtk6Widget11DSearchEditD1Ev
libdtkwidget.so.2:_ZN3Dtk6Widget11DSearchEditD2Ev
libdtkwidget.so.2:_ZN3Dtk6Widget11DTextButton11qt_metacallEN11QMetaObject4CallEiPPv
libdtkwidget.so.2:_ZN3Dtk6Widget11DTextButton11qt_metacastEPKc
libdtkwidget.so.2:_ZN3Dtk6Widget11DTextButtonC1ERK7QStringP7QWidget
libdtkwidget.so.2:_ZN3Dtk6Widget11DTextButtonC2ERK7QStringP7QWidget
libdtkwidget.so.2:_ZN3Dtk6Widget11DTextButtonD0Ev
libdtkwidget.so.2:_ZN3Dtk6Widget11DTextButtonD1Ev
libdtkwidget.so.2:_ZN3Dtk6Widget11DTextButtonD2Ev
libdtkwidget.so.2:_ZN3Dtk6Widget11DTickEffect11eventFilterEP7QObjectP6QEvent
libdtkwidget.so.2:_ZN3Dtk6Widget11DTickEffect11qt_metacallEN11QMetaObject4CallEiPPv
libdtkwidget.so.2:_ZN3Dtk6Widget11DTickEffect11qt_metacastEPKc
libdtkwidget.so.2:_ZN3Dtk6Widget11DTickEffect11setDurationEi
libdtkwidget.so.2:_ZN3Dtk6Widget11DTickEffect12setDirectionENS1_9DirectionE
libdtkwidget.so.2:_ZN3Dtk6Widget11DTickEffect12stateChangedEv
libdtkwidget.so.2:_ZN3Dtk6Widget11DTickEffect17setFixedPixelMoveEi
libdtkwidget.so.2:_ZN3Dtk6Widget11DTickEffect4drawEP8QPainter
libdtkwidget.so.2:_ZN3Dtk6Widget11DTickEffect4playEv
libdtkwidget.so.2:_ZN3Dtk6Widget11DTickEffect4stopEv
libdtkwidget.so.2:_ZN3Dtk6Widget11DTickEffect5pauseEv
libdtkwidget.so.2:_ZN3Dtk6Widget11DTickEffect6resumeEv
libdtkwidget.so.2:_ZN3Dtk6Widget11DTickEffect8finishedEv
libdtkwidget.so.2:_ZN3Dtk6Widget11DTickEffectC1EP7QWidgetS3_
libdtkwidget.so.2:_ZN3Dtk6Widget11DTickEffectC2EP7QWidgetS3_
libdtkwidget.so.2:_ZN3Dtk6Widget11DVBoxWidget11qt_metacallEN11QMetaObject4CallEiPPv
libdtkwidget.so.2:_ZN3Dtk6Widget11DVBoxWidget11qt_metacastEPKc
libdtkwidget.so.2:_ZN3Dtk6Widget11DVBoxWidgetC1EP7QWidget
libdtkwidget.so.2:_ZN3Dtk6Widget11DVBoxWidgetC2EP7QWidget
libdtkwidget.so.2:_ZN3Dtk6Widget12DAboutDialog10setLicenseERK7QString
libdtkwidget.so.2:_ZN3Dtk6Widget12DAboutDialog10setVersionERK7QString
libdtkwidget.so.2:_ZN3Dtk6Widget12DAboutDialog11qt_metacallEN11QMetaObject4CallEiPPv
libdtkwidget.so.2:_ZN3Dtk6Widget12DAboutDialog11qt_metacastEPKc
libdtkwidget.so.2:_ZN3Dtk6Widget12DAboutDialog13keyPressEventEP9QKeyEvent
libdtkwidget.so.2:_ZN3Dtk6Widget12DAboutDialog14setCompanyLogoERK7QPixmap
libdtkwidget.so.2:_ZN3Dtk6Widget12DAboutDialog14setDescriptionERK7QString
libdtkwidget.so.2:_ZN3Dtk6Widget12DAboutDialog14setProductIconERK5QIcon
libdtkwidget.so.2:_ZN3Dtk6Widget12DAboutDialog14setProductNameERK7QString
libdtkwidget.so.2:_ZN3Dtk6Widget12DAboutDialog14setWebsiteLinkERK7QString
libdtkwidget.so.2:_ZN3Dtk6Widget12DAboutDialog14setWebsiteNameERK7QString
libdtkwidget.so.2:_ZN3Dtk6Widget12DAboutDialog14setWindowTitleERK7QString
libdtkwidget.so.2:_ZN3Dtk6Widget12DAboutDialog22setAcknowledgementLinkERK7QString
libdtkwidget.so.2:_ZN3Dtk6Widget12DAboutDialog25setAcknowledgementVisibleEb
libdtkwidget.so.2:_ZN3Dtk6Widget12DAboutDialog9showEventEP10QShowEvent
libdtkwidget.so.2:_ZN3Dtk6Widget12DAboutDialogC1EP7QWidget
libdtkwidget.so.2:_ZN3Dtk6Widget12DAboutDialogC2EP7QWidget
libdtkwidget.so.2:_ZN3Dtk6Widget12DAnchorsBase10moveBottomEi
libdtkwidget.so.2:_ZN3Dtk6Widget12DAnchorsBase10moveCenterERK6QPoint
libdtkwidget.so.2:_ZN3Dtk6Widget12DAnchorsBase10setEnabledEb
libdtkwidget.so.2:_ZN3Dtk6Widget12DAnchorsBase10setMarginsEi
libdtkwidget.so.2:_ZN3Dtk6Widget12DAnchorsBase10topChangedEPKNS0_11DAnchorInfoE
libdtkwidget.so.2:_ZN3Dtk6Widget12DAnchorsBase10updateFillEv
libdtkwidget.so.2:_ZN3Dtk6Widget12DAnchorsBase11fillChangedEP7QWidget
libdtkwidget.so.2:_ZN3Dtk6Widget12DAnchorsBase11leftChangedEPKNS0_11DAnchorInfoE
libdtkwidget.so.2:_ZN3Dtk6Widget12DAnchorsBase11qt_metacallEN11QMetaObject4CallEiPPv
libdtkwidget.so.2:_ZN3Dtk6Widget12DAnchorsBase11qt_metacastEPKc
libdtkwidget.so.2:_ZN3Dtk6Widget12DAnchorsBase11setCenterInEP7QWidget
libdtkwidget.so.2:_ZN3Dtk6Widget12DAnchorsBase11setCenterInEPS1_
libdtkwidget.so.2:_ZN3Dtk6Widget12DAnchorsBase12clearAnchorsEPK7QWidget
libdtkwidget.so.2:_ZN3Dtk6Widget12DAnchorsBase12rightChangedEPKNS0_11DAnchorInfoE
libdtkwidget.so.2:_ZN3Dtk6Widget12DAnchorsBase12setTopMarginEi
libdtkwidget.so.2:_ZN3Dtk6Widget12DAnchorsBase13bottomChangedEPKNS0_11DAnchorInfoE
libdtkwidget.so.2:_ZN3Dtk6Widget12DAnchorsBase13setLeftMarginEi
libdtkwidget.so.2:_ZN3Dtk6Widget12DAnchorsBase14enabledChangedEb
libdtkwidget.so.2:_ZN3Dtk6Widget12DAnchorsBase14marginsChangedEi
libdtkwidget.so.2:_ZN3Dtk6Widget12DAnchorsBase14setRightMarginEi
libdtkwidget.so.2:_ZN3Dtk6Widget12DAnchorsBase14updateCenterInEv
libdtkwidget.so.2:_ZN3Dtk6Widget12DAnchorsBase14updateVerticalEv
libdtkwidget.so.2:_ZN3Dtk6Widget12DAnchorsBase15centerInChangedEP7QWidget
libdtkwidget.so.2:_ZN3Dtk6Widget12DAnchorsBase15setBottomMarginEi
libdtkwidget.so.2:_ZN3Dtk6Widget12DAnchorsBase16topMarginChangedEi
libdtkwidget.so.2:_ZN3Dtk6Widget12DAnchorsBase16updateHorizontalEv
libdtkwidget.so.2:_ZN3Dtk6Widget12DAnchorsBase17leftMarginChangedEi
libdtkwidget.so.2:_ZN3Dtk6Widget12DAnchorsBase17setVerticalCenterEPKNS0_11DAnchorInfoE
libdtkwidget.so.2:_ZN3Dtk6Widget12DAnchorsBase17setVerticalCenterEiN2Qt11AnchorPointE
libdtkwidget.so.2:_ZN3Dtk6Widget12DAnchorsBase18moveVerticalCenterEi
libdtkwidget.so.2:_ZN3Dtk6Widget12DAnchorsBase18rightMarginChangedEi
libdtkwidget.so.2:_ZN3Dtk6Widget12DAnchorsBase19bottomMarginChangedEi
libdtkwidget.so.2:_ZN3Dtk6Widget12DAnchorsBase19setHorizontalCenterEPKNS0_11DAnchorInfoE
libdtkwidget.so.2:_ZN3Dtk6Widget12DAnchorsBase19setHorizontalCenterEiN2Qt11AnchorPointE
libdtkwidget.so.2:_ZN3Dtk6Widget12DAnchorsBase20moveHorizontalCenterEi
libdtkwidget.so.2:_ZN3Dtk6Widget12DAnchorsBase20setAlignWhenCenteredEb
libdtkwidget.so.2:_ZN3Dtk6Widget12DAnchorsBase21getAnchorBaseByWidgetEPK7QWidget
libdtkwidget.so.2:_ZN3Dtk6Widget12DAnchorsBase21verticalCenterChangedEPKNS0_11DAnchorInfoE
libdtkwidget.so.2:_ZN3Dtk6Widget12DAnchorsBase23horizontalCenterChangedEPKNS0_11DAnchorInfoE
libdtkwidget.so.2:_ZN3Dtk6Widget12DAnchorsBase23setVerticalCenterOffsetEi
libdtkwidget.so.2:_ZN3Dtk6Widget12DAnchorsBase24alignWhenCenteredChangedEb
libdtkwidget.so.2:_ZN3Dtk6Widget12DAnchorsBase25setHorizontalCenterOffsetEi
libdtkwidget.so.2:_ZN3Dtk6Widget12DAnchorsBase27verticalCenterOffsetChangedEi
libdtkwidget.so.2:_ZN3Dtk6Widget12DAnchorsBase29horizontalCenterOffsetChangedEi
libdtkwidget.so.2:_ZN3Dtk6Widget12DAnchorsBase4initEP7QWidget
libdtkwidget.so.2:_ZN3Dtk6Widget12DAnchorsBase6setTopEPKNS0_11DAnchorInfoE
libdtkwidget.so.2:_ZN3Dtk6Widget12DAnchorsBase6setTopEiN2Qt11AnchorPointE
libdtkwidget.so.2:_ZN3Dtk6Widget12DAnchorsBase7moveTopEi
libdtkwidget.so.2:_ZN3Dtk6Widget12DAnchorsBase7setFillEP7QWidget
libdtkwidget.so.2:_ZN3Dtk6Widget12DAnchorsBase7setFillEPS1_
libdtkwidget.so.2:_ZN3Dtk6Widget12DAnchorsBase7setLeftEPKNS0_11DAnchorInfoE
libdtkwidget.so.2:_ZN3Dtk6Widget12DAnchorsBase7setLeftEiN2Qt11AnchorPointE
libdtkwidget.so.2:_ZN3Dtk6Widget12DAnchorsBase8moveLeftEi
libdtkwidget.so.2:_ZN3Dtk6Widget12DAnchorsBase8setRightEPKNS0_11DAnchorInfoE
libdtkwidget.so.2:_ZN3Dtk6Widget12DAnchorsBase8setRightEiN2Qt11AnchorPointE
libdtkwidget.so.2:_ZN3Dtk6Widget12DAnchorsBase9moveRightEi
libdtkwidget.so.2:_ZN3Dtk6Widget12DAnchorsBase9setAnchorEP7QWidgetRKN2Qt11AnchorPointES3_S7_
libdtkwidget.so.2:_ZN3Dtk6Widget12DAnchorsBase9setAnchorERKN2Qt11AnchorPointEP7QWidgetS5_
libdtkwidget.so.2:_ZN3Dtk6Widget12DAnchorsBase9setBottomEPKNS0_11DAnchorInfoE
libdtkwidget.so.2:_ZN3Dtk6Widget12DAnchorsBase9setBottomEiN2Qt11AnchorPointE
libdtkwidget.so.2:_ZN3Dtk6Widget12DAnchorsBaseC1EP7QWidget
libdtkwidget.so.2:_ZN3Dtk6Widget12DAnchorsBaseC1EP7QWidgetb
libdtkwidget.so.2:_ZN3Dtk6Widget12DAnchorsBaseC2EP7QWidget
libdtkwidget.so.2:_ZN3Dtk6Widget12DAnchorsBaseC2EP7QWidgetb
libdtkwidget.so.2:_ZN3Dtk6Widget12DAnchorsBaseD0Ev
libdtkwidget.so.2:_ZN3Dtk6Widget12DAnchorsBaseD1Ev
libdtkwidget.so.2:_ZN3Dtk6Widget12DAnchorsBaseD2Ev
libdtkwidget.so.2:_ZN3Dtk6Widget12DAnchorsRect17setVerticalCenterEdN2Qt11AnchorPointE
libdtkwidget.so.2:_ZN3Dtk6Widget12DAnchorsRect19setHorizontalCenterEdN2Qt11AnchorPointE
libdtkwidget.so.2:_ZN3Dtk6Widget12DAnchorsRect6setTopEiN2Qt11AnchorPointE
libdtkwidget.so.2:_ZN3Dtk6Widget12DAnchorsRect7setLeftEiN2Qt11AnchorPointE
libdtkwidget.so.2:_ZN3Dtk6Widget12DAnchorsRect8setRightEiN2Qt11AnchorPointE
libdtkwidget.so.2:_ZN3Dtk6Widget12DAnchorsRect9setBottomEiN2Qt11AnchorPointE
libdtkwidget.so.2:_ZN3Dtk6Widget12DApplication11aboutDialogEv
libdtkwidget.so.2:_ZN3Dtk6Widget12DApplication11qt_metacallEN11QMetaObject4CallEiPPv
libdtkwidget.so.2:_ZN3Dtk6Widget12DApplication11qt_metacastEPKc
libdtkwidget.so.2:_ZN3Dtk6Widget12DApplication14isDXcbPlatformEv
libdtkwidget.so.2:_ZN3Dtk6Widget12DApplication14loadDXcbPluginEv
libdtkwidget.so.2:_ZN3Dtk6Widget12DApplication14loadTranslatorE5QListI7QLocaleE
libdtkwidget.so.2:_ZN3Dtk6Widget12DApplication14setAboutDialogEPNS0_12DAboutDialogE
libdtkwidget.so.2:_ZN3Dtk6Widget12DApplication14setOOMScoreAdjEi
libdtkwidget.so.2:_ZN3Dtk6Widget12DApplication14setProductIconERK5QIcon
libdtkwidget.so.2:_ZN3Dtk6Widget12DApplication14setProductNameERK7QString
libdtkwidget.so.2:_ZN3Dtk6Widget12DApplication15buildDtkVersionEv
libdtkwidget.so.2:_ZN3Dtk6Widget12DApplication16handleHelpActionEv
libdtkwidget.so.2:_ZN3Dtk6Widget12DApplication16handleQuitActionEv
libdtkwidget.so.2:_ZN3Dtk6Widget12DApplication16iconThemeChangedEv
libdtkwidget.so.2:_ZN3Dtk6Widget12DApplication17handleAboutActionEv
libdtkwidget.so.2:_ZN3Dtk6Widget12DApplication17runtimeDtkVersionEv
libdtkwidget.so.2:_ZN3Dtk6Widget12DApplication17setSingleInstanceERK7QString
libdtkwidget.so.2:_ZN3Dtk6Widget12DApplication17setSingleInstanceERK7QStringNS1_11SingleScopeE
libdtkwidget.so.2:_ZN3Dtk6Widget12DApplication18newInstanceStartedEv
libdtkwidget.so.2:_ZN3Dtk6Widget12DApplication18registerDDESessionEv
libdtkwidget.so.2:_ZN3Dtk6Widget12DApplication18setVisibleMenuIconEb
libdtkwidget.so.2:_ZN3Dtk6Widget12DApplication21setApplicationLicenseERK7QString
libdtkwidget.so.2:_ZN3Dtk6Widget12DApplication22setApplicationHomePageERK7QString
libdtkwidget.so.2:_ZN3Dtk6Widget12DApplication23customQtThemeConfigPathERK7QString
libdtkwidget.so.2:_ZN3Dtk6Widget12DApplication25setApplicationDescriptionERK7QString
libdtkwidget.so.2:_ZN3Dtk6Widget12DApplication26setVisibleMenuShortcutTextEb
libdtkwidget.so.2:_ZN3Dtk6Widget12DApplication27customizedQtThemeConfigPathEv
libdtkwidget.so.2:_ZN3Dtk6Widget12DApplication28setVisibleMenuCheckboxWidgetEb
libdtkwidget.so.2:_ZN3Dtk6Widget12DApplication29screenDevicePixelRatioChangedEP7QScreen
libdtkwidget.so.2:_ZN3Dtk6Widget12DApplication33customQtThemeConfigPathByUserHomeERK7QString
libdtkwidget.so.2:_ZN3Dtk6Widget12DApplication33setApplicationAcknowledgementPageERK7QString
libdtkwidget.so.2:_ZN3Dtk6Widget12DApplication36setApplicationAcknowledgementVisibleEb
libdtkwidget.so.2:_ZN3Dtk6Widget12DApplication6notifyEP7QObjectP6QEvent
libdtkwidget.so.2:_ZN3Dtk6Widget12DApplication8setThemeERK7QString
libdtkwidget.so.2:_ZN3Dtk6Widget12DApplicationC1ERiPPc
libdtkwidget.so.2:_ZN3Dtk6Widget12DApplicationC2ERiPPc
libdtkwidget.so.2:_ZN3Dtk6Widget12DArrowButton10enterEventEP6QEvent
libdtkwidget.so.2:_ZN3Dtk6Widget12DArrowButton10leaveEventEP6QEvent
libdtkwidget.so.2:_ZN3Dtk6Widget12DArrowButton10mouseEnterEv
libdtkwidget.so.2:_ZN3Dtk6Widget12DArrowButton10mouseLeaveEv
libdtkwidget.so.2:_ZN3Dtk6Widget12DArrowButton10mousePressEv
libdtkwidget.so.2:_ZN3Dtk6Widget12DArrowButton11qt_metacallEN11QMetaObject4CallEiPPv
libdtkwidget.so.2:_ZN3Dtk6Widget12DArrowButton11qt_metacastEPKc
libdtkwidget.so.2:_ZN3Dtk6Widget12DArrowButton12mouseReleaseEv
libdtkwidget.so.2:_ZN3Dtk6Widget12DArrowButton14setButtonStateENS1_16ArrowButtonStateE
libdtkwidget.so.2:_ZN3Dtk6Widget12DArrowButton15initButtonStateEv
libdtkwidget.so.2:_ZN3Dtk6Widget12DArrowButton15mousePressEventEP11QMouseEvent
libdtkwidget.so.2:_ZN3Dtk6Widget12DArrowButton15updateIconStateENS1_16ArrowButtonStateE
libdtkwidget.so.2:_ZN3Dtk6Widget12DArrowButton17mouseReleaseEventEP11QMouseEvent
libdtkwidget.so.2:_ZN3Dtk6Widget12DArrowButton17setArrowDirectionENS1_14ArrowDirectionE
libdtkwidget.so.2:_ZN3Dtk6Widget12DArrowButton19updateIconDirectionENS1_14ArrowDirectionE
libdtkwidget.so.2:_ZN3Dtk6Widget12DArrowButtonC1EP7QWidget
libdtkwidget.so.2:_ZN3Dtk6Widget12DArrowButtonC2EP7QWidget
libdtkwidget.so.2:_ZN3Dtk6Widget12DExpandGroup11qt_metacallEN11QMetaObject4CallEiPPv
libdtkwidget.so.2:_ZN3Dtk6Widget12DExpandGroup11qt_metacastEPKc
libdtkwidget.so.2:_ZN3Dtk6Widget12DExpandGroup12removeExpandEPNS0_11DBaseExpandE
libdtkwidget.so.2:_ZN3Dtk6Widget12DExpandGroup15onExpandChangedEb
libdtkwidget.so.2:_ZN3Dtk6Widget12DExpandGroup5setIdEPNS0_11DBaseExpandEi
libdtkwidget.so.2:_ZN3Dtk6Widget12DExpandGroup9addExpandEPNS0_11DBaseExpandEi
libdtkwidget.so.2:_ZN3Dtk6Widget12DExpandGroupC1EP7QObject
libdtkwidget.so.2:_ZN3Dtk6Widget12DExpandGroupC2EP7QObject
libdtkwidget.so.2:_ZN3Dtk6Widget12DHiDPIHelper12loadNxPixmapERK7QString
libdtkwidget.so.2:_ZN3Dtk6Widget12DImageButton10enterEventEP6QEvent
libdtkwidget.so.2:_ZN3Dtk6Widget12DImageButton10leaveEventEP6QEvent
libdtkwidget.so.2:_ZN3Dtk6Widget12DImageButton10setCheckedEb
libdtkwidget.so.2:_ZN3Dtk6Widget12DImageButton10setEnabledEb
libdtkwidget.so.2:_ZN3Dtk6Widget12DImageButton11qt_metacallEN11QMetaObject4CallEiPPv
libdtkwidget.so.2:_ZN3Dtk6Widget12DImageButton11qt_metacastEPKc
libdtkwidget.so.2:_ZN3Dtk6Widget12DImageButton11setDisabledEb
libdtkwidget.so.2:_ZN3Dtk6Widget12DImageButton11setHoverPicERK7QString
libdtkwidget.so.2:_ZN3Dtk6Widget12DImageButton11setPressPicERK7QString
libdtkwidget.so.2:_ZN3Dtk6Widget12DImageButton12setCheckableEb
libdtkwidget.so.2:_ZN3Dtk6Widget12DImageButton12setNormalPicERK7QString
libdtkwidget.so.2:_ZN3Dtk6Widget12DImageButton12stateChangedEv
libdtkwidget.so.2:_ZN3Dtk6Widget12DImageButton13setCheckedPicERK7QString
libdtkwidget.so.2:_ZN3Dtk6Widget12DImageButton14checkedChangedEb
libdtkwidget.so.2:_ZN3Dtk6Widget12DImageButton14mouseMoveEventEP11QMouseEvent
libdtkwidget.so.2:_ZN3Dtk6Widget12DImageButton14setDisabledPicERK7QString
libdtkwidget.so.2:_ZN3Dtk6Widget12DImageButton15mousePressEventEP11QMouseEvent
libdtkwidget.so.2:_ZN3Dtk6Widget12DImageButton17mouseReleaseEventEP11QMouseEvent
libdtkwidget.so.2:_ZN3Dtk6Widget12DImageButton7clickedEv
libdtkwidget.so.2:_ZN3Dtk6Widget12DImageButton8setStateENS1_5StateE
libdtkwidget.so.2:_ZN3Dtk6Widget12DImageButtonC1EP7QWidget
libdtkwidget.so.2:_ZN3Dtk6Widget12DImageButtonC1ERK7QStringS4_S4_P7QWidget
libdtkwidget.so.2:_ZN3Dtk6Widget12DImageButtonC1ERK7QStringS4_S4_S4_P7QWidget
libdtkwidget.so.2:_ZN3Dtk6Widget12DImageButtonC1ERNS0_19DImageButtonPrivateEP7QWidget
libdtkwidget.so.2:_ZN3Dtk6Widget12DImageButtonC2EP7QWidget
libdtkwidget.so.2:_ZN3Dtk6Widget12DImageButtonC2ERK7QStringS4_S4_P7QWidget
libdtkwidget.so.2:_ZN3Dtk6Widget12DImageButtonC2ERK7QStringS4_S4_S4_P7QWidget
libdtkwidget.so.2:_ZN3Dtk6Widget12DImageButtonC2ERNS0_19DImageButtonPrivateEP7QWidget
libdtkwidget.so.2:_ZN3Dtk6Widget12DImageButtonD0Ev
libdtkwidget.so.2:_ZN3Dtk6Widget12DImageButtonD1Ev
libdtkwidget.so.2:_ZN3Dtk6Widget12DImageButtonD2Ev
libdtkwidget.so.2:_ZN3Dtk6Widget12DInputDialog10setIntStepEi
libdtkwidget.so.2:_ZN3Dtk6Widget12DInputDialog11qt_metacallEN11QMetaObject4CallEiPPv
libdtkwidget.so.2:_ZN3Dtk6Widget12DInputDialog11qt_metacastEPKc
libdtkwidget.so.2:_ZN3Dtk6Widget12DInputDialog11setIntRangeEii
libdtkwidget.so.2:_ZN3Dtk6Widget12DInputDialog11setIntValueEi
libdtkwidget.so.2:_ZN3Dtk6Widget12DInputDialog12setInputModeENS1_9InputModeE
libdtkwidget.so.2:_ZN3Dtk6Widget12DInputDialog12setTextAlertEb
libdtkwidget.so.2:_ZN3Dtk6Widget12DInputDialog12setTextValueERK7QString
libdtkwidget.so.2:_ZN3Dtk6Widget12DInputDialog13setIntMaximumEi
libdtkwidget.so.2:_ZN3Dtk6Widget12DInputDialog13setIntMinimumEi
libdtkwidget.so.2:_ZN3Dtk6Widget12DInputDialog14setDoubleRangeEdd
libdtkwidget.so.2:_ZN3Dtk6Widget12DInputDialog14setDoubleValueEd
libdtkwidget.so.2:_ZN3Dtk6Widget12DInputDialog15intValueChangedEi
libdtkwidget.so.2:_ZN3Dtk6Widget12DInputDialog15okButtonClickedEv
libdtkwidget.so.2:_ZN3Dtk6Widget12DInputDialog15setOkButtonTextERK7QString
libdtkwidget.so.2:_ZN3Dtk6Widget12DInputDialog15setTextEchoModeEN9QLineEdit8EchoModeE
libdtkwidget.so.2:_ZN3Dtk6Widget12DInputDialog16intValueSelectedEi
libdtkwidget.so.2:_ZN3Dtk6Widget12DInputDialog16setComboBoxItemsERK11QStringList
libdtkwidget.so.2:_ZN3Dtk6Widget12DInputDialog16setDoubleMaximumEd
libdtkwidget.so.2:_ZN3Dtk6Widget12DInputDialog16setDoubleMinimumEd
libdtkwidget.so.2:_ZN3Dtk6Widget12DInputDialog16textAlertChangedEb
libdtkwidget.so.2:_ZN3Dtk6Widget12DInputDialog16textValueChangedERK7QString
libdtkwidget.so.2:_ZN3Dtk6Widget12DInputDialog17setDoubleDecimalsEi
libdtkwidget.so.2:_ZN3Dtk6Widget12DInputDialog17textValueSelectedERK7QString
libdtkwidget.so.2:_ZN3Dtk6Widget12DInputDialog18doubleValueChangedEd
libdtkwidget.so.2:_ZN3Dtk6Widget12DInputDialog18setOkButtonEnabledEb
libdtkwidget.so.2:_ZN3Dtk6Widget12DInputDialog19cancelButtonClickedEv
libdtkwidget.so.2:_ZN3Dtk6Widget12DInputDialog19doubleValueSelectedEd
libdtkwidget.so.2:_ZN3Dtk6Widget12DInputDialog19setCancelButtonTextERK7QString
libdtkwidget.so.2:_ZN3Dtk6Widget12DInputDialog19setComboBoxEditableEb
libdtkwidget.so.2:_ZN3Dtk6Widget12DInputDialog23setComboBoxCurrentIndexEi
libdtkwidget.so.2:_ZN3Dtk6Widget12DInputDialog27comboBoxCurrentIndexChangedEi
libdtkwidget.so.2:_ZN3Dtk6Widget12DInputDialog6getIntEP7QWidgetRK7QStringS6_iiiiPb6QFlagsIN2Qt10WindowTypeEE
libdtkwidget.so.2:_ZN3Dtk6Widget12DInputDialog7getItemEP7QWidgetRK7QStringS6_RK11QStringListibPb6QFlagsIN2Qt10WindowTypeEESB_INSC_15InputMethodHintEE
libdtkwidget.so.2:_ZN3Dtk6Widget12DInputDialog7getTextEP7QWidgetRK7QStringS6_N9QLineEdit8EchoModeES6_Pb6QFlagsIN2Qt10WindowTypeEESA_INSB_15InputMethodHintEE
libdtkwidget.so.2:_ZN3Dtk6Widget12DInputDialog9getDoubleEP7QWidgetRK7QStringS6_dddiPb6QFlagsIN2Qt10WindowTypeEE
libdtkwidget.so.2:_ZN3Dtk6Widget12DInputDialog9showEventEP10QShowEvent
libdtkwidget.so.2:_ZN3Dtk6Widget12DInputDialogC1EP7QWidget
libdtkwidget.so.2:_ZN3Dtk6Widget12DInputDialogC2EP7QWidget
libdtkwidget.so.2:_ZN3Dtk6Widget12DStackWidget10pushWidgetEP7QWidgetb
libdtkwidget.so.2:_ZN3Dtk6Widget12DStackWidget11busyChangedEb
libdtkwidget.so.2:_ZN3Dtk6Widget12DStackWidget11qt_metacallEN11QMetaObject4CallEiPPv
libdtkwidget.so.2:_ZN3Dtk6Widget12DStackWidget11qt_metacastEPKc
libdtkwidget.so.2:_ZN3Dtk6Widget12DStackWidget12depthChangedEi
libdtkwidget.so.2:_ZN3Dtk6Widget12DStackWidget12insertWidgetEiP7QWidgetb
libdtkwidget.so.2:_ZN3Dtk6Widget12DStackWidget13setTransitionEPNS0_30DAbstractStackWidgetTransitionE
libdtkwidget.so.2:_ZN3Dtk6Widget12DStackWidget15setCurrentIndexEiNS0_30DAbstractStackWidgetTransition14TransitionTypeEb
libdtkwidget.so.2:_ZN3Dtk6Widget12DStackWidget16setAnimationTypeEN12QEasingCurve4TypeE
libdtkwidget.so.2:_ZN3Dtk6Widget12DStackWidget16setCurrentWidgetEP7QWidgetNS0_30DAbstractStackWidgetTransition14TransitionTypeEb
libdtkwidget.so.2:_ZN3Dtk6Widget12DStackWidget18widgetDepthChangedEP7QWidgeti
libdtkwidget.so.2:_ZN3Dtk6Widget12DStackWidget19currentIndexChangedEi
libdtkwidget.so.2:_ZN3Dtk6Widget12DStackWidget20currentWidgetChangedEP7QWidget
libdtkwidget.so.2:_ZN3Dtk6Widget12DStackWidget20setAnimationDurationEi
libdtkwidget.so.2:_ZN3Dtk6Widget12DStackWidget20switchWidgetFinishedEv
libdtkwidget.so.2:_ZN3Dtk6Widget12DStackWidget5clearEv
libdtkwidget.so.2:_ZN3Dtk6Widget12DStackWidget9popWidgetEP7QWidgetbib
libdtkwidget.so.2:_ZN3Dtk6Widget12DStackWidgetC1EP7QWidget
libdtkwidget.so.2:_ZN3Dtk6Widget12DStackWidgetC1ERNS0_19DStackWidgetPrivateEP7QWidget
libdtkwidget.so.2:_ZN3Dtk6Widget12DStackWidgetC2EP7QWidget
libdtkwidget.so.2:_ZN3Dtk6Widget12DStackWidgetC2ERNS0_19DStackWidgetPrivateEP7QWidget
libdtkwidget.so.2:_ZN3Dtk6Widget12DStyleOption4initEP7QWidget
libdtkwidget.so.2:_ZN3Dtk6Widget12DSvgRenderer10setViewBoxERK5QRect
libdtkwidget.so.2:_ZN3Dtk6Widget12DSvgRenderer10setViewBoxERK6QRectF
libdtkwidget.so.2:_ZN3Dtk6Widget12DSvgRenderer4loadERK10QByteArray
libdtkwidget.so.2:_ZN3Dtk6Widget12DSvgRenderer4loadERK7QString
libdtkwidget.so.2:_ZN3Dtk6Widget12DSvgRenderer6renderEP8QPainter
libdtkwidget.so.2:_ZN3Dtk6Widget12DSvgRenderer6renderEP8QPainterRK6QRectF
libdtkwidget.so.2:_ZN3Dtk6Widget12DSvgRenderer6renderEP8QPainterRK7QStringRK6QRectF
libdtkwidget.so.2:_ZN3Dtk6Widget12DSvgRendererC1EP7QObject
libdtkwidget.so.2:_ZN3Dtk6Widget12DSvgRendererC1ERK10QByteArrayP7QObject
libdtkwidget.so.2:_ZN3Dtk6Widget12DSvgRendererC1ERK7QStringP7QObject
libdtkwidget.so.2:_ZN3Dtk6Widget12DSvgRendererC2EP7QObject
libdtkwidget.so.2:_ZN3Dtk6Widget12DSvgRendererC2ERK10QByteArrayP7QObject
libdtkwidget.so.2:_ZN3Dtk6Widget12DSvgRendererC2ERK7QStringP7QObject
libdtkwidget.so.2:_ZN3Dtk6Widget12DSvgRendererD0Ev
libdtkwidget.so.2:_ZN3Dtk6Widget12DSvgRendererD1Ev
libdtkwidget.so.2:_ZN3Dtk6Widget12DSvgRendererD2Ev
libdtkwidget.so.2:_ZN3Dtk6Widget12DVideoWidget10hueChangedEi
libdtkwidget.so.2:_ZN3Dtk6Widget12DVideoWidget10paintEventEP11QPaintEvent
libdtkwidget.so.2:_ZN3Dtk6Widget12DVideoWidget11qt_metacallEN11QMetaObject4CallEiPPv
libdtkwidget.so.2:_ZN3Dtk6Widget12DVideoWidget11qt_metacastEPKc
libdtkwidget.so.2:_ZN3Dtk6Widget12DVideoWidget11setContrastEi
libdtkwidget.so.2:_ZN3Dtk6Widget12DVideoWidget12roundChangedEb
libdtkwidget.so.2:_ZN3Dtk6Widget12DVideoWidget12scaleChangedEd
libdtkwidget.so.2:_ZN3Dtk6Widget12DVideoWidget13setBrightnessEi
libdtkwidget.so.2:_ZN3Dtk6Widget12DVideoWidget13setSaturationEi
libdtkwidget.so.2:_ZN3Dtk6Widget12DVideoWidget15contrastChangedEi
libdtkwidget.so.2:_ZN3Dtk6Widget12DVideoWidget17brightnessChangedEi
libdtkwidget.so.2:_ZN3Dtk6Widget12DVideoWidget17saturationChangedEi
libdtkwidget.so.2:_ZN3Dtk6Widget12DVideoWidget18setAspectRatioModeEN2Qt15AspectRatioModeE
libdtkwidget.so.2:_ZN3Dtk6Widget12DVideoWidget19setMirroredVerticalEb
libdtkwidget.so.2:_ZN3Dtk6Widget12DVideoWidget21setMirroredHorizontalEb
libdtkwidget.so.2:_ZN3Dtk6Widget12DVideoWidget23mirroredVerticalChangedEb
libdtkwidget.so.2:_ZN3Dtk6Widget12DVideoWidget24setSourceVideoPixelRatioEd
libdtkwidget.so.2:_ZN3Dtk6Widget12DVideoWidget25mirroredHorizontalChangedEb
libdtkwidget.so.2:_ZN3Dtk6Widget12DVideoWidget5paintERK11QVideoFrame
libdtkwidget.so.2:_ZN3Dtk6Widget12DVideoWidget6setHueEi
libdtkwidget.so.2:_ZN3Dtk6Widget12DVideoWidget7captureEv
libdtkwidget.so.2:_ZN3Dtk6Widget12DVideoWidget8setRoundEb
libdtkwidget.so.2:_ZN3Dtk6Widget12DVideoWidget8setScaleEd
libdtkwidget.so.2:_ZN3Dtk6Widget12DVideoWidget9setSourceEP12QMediaPlayer
libdtkwidget.so.2:_ZN3Dtk6Widget12DVideoWidget9setSourceEP7QCamera
libdtkwidget.so.2:_ZN3Dtk6Widget12DVideoWidgetC1EP7QWidget
libdtkwidget.so.2:_ZN3Dtk6Widget12DVideoWidgetC2EP7QWidget
libdtkwidget.so.2:_ZN3Dtk6Widget12DialogButton11qt_metacallEN11QMetaObject4CallEiPPv
libdtkwidget.so.2:_ZN3Dtk6Widget12DialogButton11qt_metacastEPKc
libdtkwidget.so.2:_ZN3Dtk6Widget12DialogButton13setButtonTypeEi
libdtkwidget.so.2:_ZN3Dtk6Widget12DialogButton17buttonTypeChangedEi
libdtkwidget.so.2:_ZN3Dtk6Widget12DialogButtonC1ERK7QStringP7QWidget
libdtkwidget.so.2:_ZN3Dtk6Widget12DialogButtonC2ERK7QStringP7QWidget
libdtkwidget.so.2:_ZN3Dtk6Widget12moveToCenterEP7QWidget
libdtkwidget.so.2:_ZN3Dtk6Widget13ContentLoader11qt_metacallEN11QMetaObject4CallEiPPv
libdtkwidget.so.2:_ZN3Dtk6Widget13ContentLoader11qt_metacastEPKc
libdtkwidget.so.2:_ZN3Dtk6Widget13DIpv4LineEdit11eventFilterEP7QObjectP6QEvent
libdtkwidget.so.2:_ZN3Dtk6Widget13DIpv4LineEdit11qt_metacallEN11QMetaObject4CallEiPPv
libdtkwidget.so.2:_ZN3Dtk6Widget13DIpv4LineEdit11qt_metacastEPKc
libdtkwidget.so.2:_ZN3Dtk6Widget13DIpv4LineEdit11setReadOnlyEb
libdtkwidget.so.2:_ZN3Dtk6Widget13DIpv4LineEdit12setSelectionEii
libdtkwidget.so.2:_ZN3Dtk6Widget13DIpv4LineEdit17setCursorPositionEi
libdtkwidget.so.2:_ZN3Dtk6Widget13DIpv4LineEdit9selectAllEv
libdtkwidget.so.2:_ZN3Dtk6Widget13DIpv4LineEditC1EP7QWidget
libdtkwidget.so.2:_ZN3Dtk6Widget13DIpv4LineEditC2EP7QWidget
libdtkwidget.so.2:_ZN3Dtk6Widget13DMPRISControl11qt_metacallEN11QMetaObject4CallEiPPv
libdtkwidget.so.2:_ZN3Dtk6Widget13DMPRISControl11qt_metacastEPKc
libdtkwidget.so.2:_ZN3Dtk6Widget13DMPRISControl14setPictureSizeERK5QSize
libdtkwidget.so.2:_ZN3Dtk6Widget13DMPRISControl17setPictureVisibleEb
libdtkwidget.so.2:_ZN3Dtk6Widget13DMPRISControlC1EP7QWidget
libdtkwidget.so.2:_ZN3Dtk6Widget13DMPRISControlC2EP7QWidget
libdtkwidget.so.2:_ZN3Dtk6Widget13DPasswordEdit11qt_metacallEN11QMetaObject4CallEiPPv
libdtkwidget.so.2:_ZN3Dtk6Widget13DPasswordEdit11qt_metacastEPKc
libdtkwidget.so.2:_ZN3Dtk6Widget13DPasswordEdit11setEchoModeEN9QLineEdit8EchoModeE
libdtkwidget.so.2:_ZN3Dtk6Widget13DPasswordEdit15echoModeChangedEb
libdtkwidget.so.2:_ZN3Dtk6Widget13DPasswordEditC1EP7QWidget
libdtkwidget.so.2:_ZN3Dtk6Widget13DPasswordEditC2EP7QWidget
libdtkwidget.so.2:_ZN3Dtk6Widget13DShortcutEdit10toEchoModeEv
libdtkwidget.so.2:_ZN3Dtk6Widget13DShortcutEdit11eventFilterEP7QObjectP6QEvent
libdtkwidget.so.2:_ZN3Dtk6Widget13DShortcutEdit11qt_metacallEN11QMetaObject4CallEiPPv
libdtkwidget.so.2:_ZN3Dtk6Widget13DShortcutEdit11qt_metacastEPKc
libdtkwidget.so.2:_ZN3Dtk6Widget13DShortcutEdit13setKeyMappingERK4QMapI7QStringS3_E
libdtkwidget.so.2:_ZN3Dtk6Widget13DShortcutEdit14setShortcutKeyERK7QString
libdtkwidget.so.2:_ZN3Dtk6Widget13DShortcutEdit16clearShortcutKeyEv
libdtkwidget.so.2:_ZN3Dtk6Widget13DShortcutEdit16shortcutKeyPressEP9QKeyEvent
libdtkwidget.so.2:_ZN3Dtk6Widget13DShortcutEdit18invalidShortcutKeyERK7QString
libdtkwidget.so.2:_ZN3Dtk6Widget13DShortcutEdit18isValidShortcutKeyERK7QString
libdtkwidget.so.2:_ZN3Dtk6Widget13DShortcutEdit19convertShortcutKeysERK7QString
libdtkwidget.so.2:_ZN3Dtk6Widget13DShortcutEdit19shortcutKeysChangedERK7QString
libdtkwidget.so.2:_ZN3Dtk6Widget13DShortcutEdit20shortcutKeysFinishedERK7QString
libdtkwidget.so.2:_ZN3Dtk6Widget13DShortcutEdit24setBlockShortcutKeysListERK5QListI7QRegExpE
libdtkwidget.so.2:_ZN3Dtk6Widget13DShortcutEditC1EP7QWidget
libdtkwidget.so.2:_ZN3Dtk6Widget13DShortcutEditC2EP7QWidget
libdtkwidget.so.2:_ZN3Dtk6Widget13DSwitchButton10paintEventEP11QPaintEvent
libdtkwidget.so.2:_ZN3Dtk6Widget13DSwitchButton10setCheckedEb
libdtkwidget.so.2:_ZN3Dtk6Widget13DSwitchButton11qt_metacallEN11QMetaObject4CallEiPPv
libdtkwidget.so.2:_ZN3Dtk6Widget13DSwitchButton11qt_metacastEPKc
libdtkwidget.so.2:_ZN3Dtk6Widget13DSwitchButton14checkedChangedEb
libdtkwidget.so.2:_ZN3Dtk6Widget13DSwitchButton15mousePressEventEP11QMouseEvent
libdtkwidget.so.2:_ZN3Dtk6Widget13DSwitchButton17mouseReleaseEventEP11QMouseEvent
libdtkwidget.so.2:_ZN3Dtk6Widget13DSwitchButton20setEnabledBackgroundE6QColor
libdtkwidget.so.2:_ZN3Dtk6Widget13DSwitchButton21setDisabledBackgroundE6QColor
libdtkwidget.so.2:_ZN3Dtk6Widget13DSwitchButtonC1EP7QWidget
libdtkwidget.so.2:_ZN3Dtk6Widget13DSwitchButtonC2EP7QWidget
libdtkwidget.so.2:_ZN3Dtk6Widget13DThemeManager11eventFilterEP7QObjectP6QEvent
libdtkwidget.so.2:_ZN3Dtk6Widget13DThemeManager11qt_metacallEN11QMetaObject4CallEiPPv
libdtkwidget.so.2:_ZN3Dtk6Widget13DThemeManager11qt_metacastEPKc
libdtkwidget.so.2:_ZN3Dtk6Widget13DThemeManager11toThemeTypeERK6QColor
libdtkwidget.so.2:_ZN3Dtk6Widget13DThemeManager12setThemeTypeENS1_9ThemeTypeE
libdtkwidget.so.2:_ZN3Dtk6Widget13DThemeManager12setThemeTypeEP7QWidgetNS1_9ThemeTypeE
libdtkwidget.so.2:_ZN3Dtk6Widget13DThemeManager12themeChangedE7QString
libdtkwidget.so.2:_ZN3Dtk6Widget13DThemeManager14registerWidgetEP7QWidget11QStringList
libdtkwidget.so.2:_ZN3Dtk6Widget13DThemeManager14registerWidgetEP7QWidgetRK7QStringRK11QStringList
libdtkwidget.so.2:_ZN3Dtk6Widget13DThemeManager16themeTypeChangedENS1_9ThemeTypeE
libdtkwidget.so.2:_ZN3Dtk6Widget13DThemeManager18widgetThemeChangedEP7QWidget7QString
libdtkwidget.so.2:_ZN3Dtk6Widget13DThemeManager22windowThemeTypeChangedEP7QWidgetNS1_9ThemeTypeE
libdtkwidget.so.2:_ZN3Dtk6Widget13DThemeManager26updateThemeOnParentChangedEP7QWidget
libdtkwidget.so.2:_ZN3Dtk6Widget13DThemeManager8instanceEv
libdtkwidget.so.2:_ZN3Dtk6Widget13DThemeManager8setThemeE7QString
libdtkwidget.so.2:_ZN3Dtk6Widget13DThemeManager8setThemeEP7QWidget7QString
libdtkwidget.so.2:_ZN3Dtk6Widget13DThemeManager9updateQssEv
libdtkwidget.so.2:_ZN3Dtk6Widget13DThemeManagerC1Ev
libdtkwidget.so.2:_ZN3Dtk6Widget13DThemeManagerC2Ev
libdtkwidget.so.2:_ZN3Dtk6Widget13DToastPrivate6initUIEv
libdtkwidget.so.2:_ZN3Dtk6Widget13DToastPrivateC1EPNS0_6DToastE
libdtkwidget.so.2:_ZN3Dtk6Widget13DToastPrivateC2EPNS0_6DToastE
libdtkwidget.so.2:_ZN3Dtk6Widget13DTrashManager10cleanTrashEv
libdtkwidget.so.2:_ZN3Dtk6Widget13DTrashManager11moveToTrashERK7QStringb
libdtkwidget.so.2:_ZN3Dtk6Widget13DTrashManager8instanceEv
libdtkwidget.so.2:_ZN3Dtk6Widget13DTrashManagerC1Ev
libdtkwidget.so.2:_ZN3Dtk6Widget13DTrashManagerC2Ev
libdtkwidget.so.2:_ZN3Dtk6Widget13select_eventsEP9_XDisplay
libdtkwidget.so.2:_ZN3Dtk6Widget14DDialogPrivate10updateSizeEv
libdtkwidget.so.2:_ZN3Dtk6Widget14DDialogPrivate16getContentLayoutEv
libdtkwidget.so.2:_ZN3Dtk6Widget14DDialogPrivate18_q_onButtonClickedEv
libdtkwidget.so.2:_ZN3Dtk6Widget14DDialogPrivate25_q_defaultButtonTriggeredEv
libdtkwidget.so.2:_ZN3Dtk6Widget14DDialogPrivate4initEv
libdtkwidget.so.2:_ZN3Dtk6Widget14DDialogPrivateC1EPNS0_7DDialogE
libdtkwidget.so.2:_ZN3Dtk6Widget14DDialogPrivateC2EPNS0_7DDialogE
libdtkwidget.so.2:_ZN3Dtk6Widget14DDoubleSpinBox11qt_metacallEN11QMetaObject4CallEiPPv
libdtkwidget.so.2:_ZN3Dtk6Widget14DDoubleSpinBox11qt_metacastEPKc
libdtkwidget.so.2:_ZN3Dtk6Widget14DDoubleSpinBox11resizeEventEP12QResizeEvent
libdtkwidget.so.2:_ZN3Dtk6Widget14DDoubleSpinBox12alertChangedEb
libdtkwidget.so.2:_ZN3Dtk6Widget14DDoubleSpinBox15setDefaultValueEd
libdtkwidget.so.2:_ZN3Dtk6Widget14DDoubleSpinBox19defaultValueChangedEd
libdtkwidget.so.2:_ZN3Dtk6Widget14DDoubleSpinBox8setAlertEb
libdtkwidget.so.2:_ZN3Dtk6Widget14DDoubleSpinBoxC1EP7QWidget
libdtkwidget.so.2:_ZN3Dtk6Widget14DDoubleSpinBoxC2EP7QWidget
libdtkwidget.so.2:_ZN3Dtk6Widget14DForeignWindow10pidChangedEv
libdtkwidget.so.2:_ZN3Dtk6Widget14DForeignWindow11qt_metacallEN11QMetaObject4CallEiPPv
libdtkwidget.so.2:_ZN3Dtk6Widget14DForeignWindow11qt_metacastEPKc
libdtkwidget.so.2:_ZN3Dtk6Widget14DForeignWindow14wmClassChangedEv
libdtkwidget.so.2:_ZN3Dtk6Widget14DForeignWindow5eventEP6QEvent
libdtkwidget.so.2:_ZN3Dtk6Widget14DForeignWindow9fromWinIdEy
libdtkwidget.so.2:_ZN3Dtk6Widget14DForeignWindowC1EP7QWindow
libdtkwidget.so.2:_ZN3Dtk6Widget14DForeignWindowC2EP7QWindow
libdtkwidget.so.2:_ZN3Dtk6Widget14DOptionPrivate10setCheckedEb
libdtkwidget.so.2:_ZN3Dtk6Widget14DOptionPrivate11sizeChangedEP12QResizeEvent
libdtkwidget.so.2:_ZN3Dtk6Widget14DOptionPrivate14setCheckedIconERK7QString
libdtkwidget.so.2:_ZN3Dtk6Widget14DOptionPrivate4initEv
libdtkwidget.so.2:_ZN3Dtk6Widget14DOptionPrivate7setIconERK7QPixmap
libdtkwidget.so.2:_ZN3Dtk6Widget14DOptionPrivate7setIconERK7QString
libdtkwidget.so.2:_ZN3Dtk6Widget14DOptionPrivateC1EPNS0_7DOptionE
libdtkwidget.so.2:_ZN3Dtk6Widget14DOptionPrivateC2EPNS0_7DOptionE
libdtkwidget.so.2:_ZN3Dtk6Widget14DPageIndicator10paintEventEP11QPaintEvent
libdtkwidget.so.2:_ZN3Dtk6Widget14DPageIndicator11qt_metacallEN11QMetaObject4CallEiPPv
libdtkwidget.so.2:_ZN3Dtk6Widget14DPageIndicator11qt_metacastEPKc
libdtkwidget.so.2:_ZN3Dtk6Widget14DPageIndicator12previousPageEv
libdtkwidget.so.2:_ZN3Dtk6Widget14DPageIndicator12setPageCountEi
libdtkwidget.so.2:_ZN3Dtk6Widget14DPageIndicator13setPointColorE6QColor
libdtkwidget.so.2:_ZN3Dtk6Widget14DPageIndicator14setCurrentPageEi
libdtkwidget.so.2:_ZN3Dtk6Widget14DPageIndicator14setPointRadiusEi
libdtkwidget.so.2:_ZN3Dtk6Widget14DPageIndicator16setPointDistanceEi
libdtkwidget.so.2:_ZN3Dtk6Widget14DPageIndicator22setSecondaryPointColorE6QColor
libdtkwidget.so.2:_ZN3Dtk6Widget14DPageIndicator23setSecondaryPointRadiusEi
libdtkwidget.so.2:_ZN3Dtk6Widget14DPageIndicator8nextPageEv
libdtkwidget.so.2:_ZN3Dtk6Widget14DPageIndicatorC1EP7QWidget
libdtkwidget.so.2:_ZN3Dtk6Widget14DPageIndicatorC2EP7QWidget
libdtkwidget.so.2:_ZN3Dtk6Widget14DRegionMonitor11qt_metacallEN11QMetaObject4CallEiPPv
libdtkwidget.so.2:_ZN3Dtk6Widget14DRegionMonitor11qt_metacastEPKc
libdtkwidget.so.2:_ZN3Dtk6Widget14DRegionMonitor14registerRegionEv
libdtkwidget.so.2:_ZN3Dtk6Widget14DRegionMonitor16setWatchedRegionERK7QRegion
libdtkwidget.so.2:_ZN3Dtk6Widget14DRegionMonitor16unregisterRegionEv
libdtkwidget.so.2:_ZN3Dtk6Widget14DRegionMonitor17setCoordinateTypeENS1_14CoordinateTypeE
libdtkwidget.so.2:_ZN3Dtk6Widget14DRegionMonitorC1EP7QObject
libdtkwidget.so.2:_ZN3Dtk6Widget14DRegionMonitorC2EP7QObject
libdtkwidget.so.2:_ZN3Dtk6Widget14DSliderPrivate16getScalePositionEi
libdtkwidget.so.2:_ZN3Dtk6Widget14DSuggestButton10paintEventEP11QPaintEvent
libdtkwidget.so.2:_ZN3Dtk6Widget14DSuggestButton11qt_metacallEN11QMetaObject4CallEiPPv
libdtkwidget.so.2:_ZN3Dtk6Widget14DSuggestButton11qt_metacastEPKc
libdtkwidget.so.2:_ZN3Dtk6Widget14DSuggestButtonC1EP7QWidget
libdtkwidget.so.2:_ZN3Dtk6Widget14DSuggestButtonC1ERK7QStringP7QWidget
libdtkwidget.so.2:_ZN3Dtk6Widget14DSuggestButtonC2EP7QWidget
libdtkwidget.so.2:_ZN3Dtk6Widget14DSuggestButtonC2ERK7QStringP7QWidget
libdtkwidget.so.2:_ZN3Dtk6Widget14DTabBarPrivate10paintEventEP11QPaintEvent
libdtkwidget.so.2:_ZN3Dtk6Widget14DTabBarPrivate10tabRemovedEi
libdtkwidget.so.2:_ZN3Dtk6Widget14DTabBarPrivate11eventFilterEP7QObjectP6QEvent
libdtkwidget.so.2:_ZN3Dtk6Widget14DTabBarPrivate11makeVisibleEi
libdtkwidget.so.2:_ZN3Dtk6Widget14DTabBarPrivate11qt_metacallEN11QMetaObject4CallEiPPv
libdtkwidget.so.2:_ZN3Dtk6Widget14DTabBarPrivate11qt_metacastEPKc
libdtkwidget.so.2:_ZN3Dtk6Widget14DTabBarPrivate11tabInsertedEi
libdtkwidget.so.2:_ZN3Dtk6Widget14DTabBarPrivate13dragMoveEventEP14QDragMoveEvent
libdtkwidget.so.2:_ZN3Dtk6Widget14DTabBarPrivate13layoutWidgetsEi
libdtkwidget.so.2:_ZN3Dtk6Widget14DTabBarPrivate13startTabFlashEv
libdtkwidget.so.2:_ZN3Dtk6Widget14DTabBarPrivate14autoScrollTabsERK6QPoint
libdtkwidget.so.2:_ZN3Dtk6Widget14DTabBarPrivate14dragEnterEventEP15QDragEnterEvent
libdtkwidget.so.2:_ZN3Dtk6Widget14DTabBarPrivate14dragLeaveEventEP15QDragLeaveEvent
libdtkwidget.so.2:_ZN3Dtk6Widget14DTabBarPrivate14mouseMoveEventEP11QMouseEvent
libdtkwidget.so.2:_ZN3Dtk6Widget14DTabBarPrivate15moveTabFinishedEi
libdtkwidget.so.2:_ZN3Dtk6Widget14DTabBarPrivate15setupMovableTabEv
libdtkwidget.so.2:_ZN3Dtk6Widget14DTabBarPrivate15tabLayoutChangeEv
libdtkwidget.so.2:_ZN3Dtk6Widget14DTabBarPrivate16setupDragableTabEv
libdtkwidget.so.2:_ZN3Dtk6Widget14DTabBarPrivate17mouseReleaseEventEP11QMouseEvent
libdtkwidget.so.2:_ZN3Dtk6Widget14DTabBarPrivate18stopAutoScrollTabsEv
libdtkwidget.so.2:_ZN3Dtk6Widget14DTabBarPrivate19setDragingFromOtherEb
libdtkwidget.so.2:_ZN3Dtk6Widget14DTabBarPrivate23tabInsertIndexFromMouseE6QPoint
libdtkwidget.so.2:_ZN3Dtk6Widget14DTabBarPrivate24updateMoveingTabPositionERK6QPoint
libdtkwidget.so.2:_ZN3Dtk6Widget14DTabBarPrivate25ensureScrollTabsAnimationEv
libdtkwidget.so.2:_ZN3Dtk6Widget14DTabBarPrivate5slideEii
libdtkwidget.so.2:_ZN3Dtk6Widget14DTabBarPrivate8stopMoveEv
libdtkwidget.so.2:_ZN3Dtk6Widget14DTabBarPrivate9dropEventEP10QDropEvent
libdtkwidget.so.2:_ZN3Dtk6Widget14DTabBarPrivate9layoutTabEi
libdtkwidget.so.2:_ZN3Dtk6Widget14DTabBarPrivate9showEventEP10QShowEvent
libdtkwidget.so.2:_ZN3Dtk6Widget14DTabBarPrivate9startDragEi
libdtkwidget.so.2:_ZN3Dtk6Widget14DTabBarPrivate9startMoveEi
libdtkwidget.so.2:_ZN3Dtk6Widget14DWaterProgress10paintEventEP11QPaintEvent
libdtkwidget.so.2:_ZN3Dtk6Widget14DWaterProgress11qt_metacallEN11QMetaObject4CallEiPPv
libdtkwidget.so.2:_ZN3Dtk6Widget14DWaterProgress11qt_metacastEPKc
libdtkwidget.so.2:_ZN3Dtk6Widget14DWaterProgress12valueChangedEv
libdtkwidget.so.2:_ZN3Dtk6Widget14DWaterProgress14setTextVisibleEb
libdtkwidget.so.2:_ZN3Dtk6Widget14DWaterProgress4stopEv
libdtkwidget.so.2:_ZN3Dtk6Widget14DWaterProgress5startEv
libdtkwidget.so.2:_ZN3Dtk6Widget14DWaterProgress8setValueEi
libdtkwidget.so.2:_ZN3Dtk6Widget14DWaterProgressC1EP7QWidget
libdtkwidget.so.2:_ZN3Dtk6Widget14DWaterProgressC2EP7QWidget
libdtkwidget.so.2:_ZN3Dtk6Widget14DWaterProgressD0Ev
libdtkwidget.so.2:_ZN3Dtk6Widget14DWaterProgressD1Ev
libdtkwidget.so.2:_ZN3Dtk6Widget14DWaterProgressD2Ev
libdtkwidget.so.2:_ZN3Dtk6Widget14xinput_versionEP9_XDisplay
libdtkwidget.so.2:_ZN3Dtk6Widget15ArrowButtonIcon11qt_metacallEN11QMetaObject4CallEiPPv
libdtkwidget.so.2:_ZN3Dtk6Widget15ArrowButtonIcon11qt_metacastEPKc
libdtkwidget.so.2:_ZN3Dtk6Widget15ArrowButtonIcon14setButtonStateEi
libdtkwidget.so.2:_ZN3Dtk6Widget15ArrowButtonIcon17setArrowDirectionEi
libdtkwidget.so.2:_ZN3Dtk6Widget15ArrowButtonIconC1EP7QWidget
libdtkwidget.so.2:_ZN3Dtk6Widget15ArrowButtonIconC2EP7QWidget
libdtkwidget.so.2:_ZN3Dtk6Widget15ArrowHeaderLine10mousePressEv
libdtkwidget.so.2:_ZN3Dtk6Widget15ArrowHeaderLine11qt_metacallEN11QMetaObject4CallEiPPv
libdtkwidget.so.2:_ZN3Dtk6Widget15ArrowHeaderLine11qt_metacastEPKc
libdtkwidget.so.2:_ZN3Dtk6Widget15ArrowHeaderLine15mousePressEventEP11QMouseEvent
libdtkwidget.so.2:_ZN3Dtk6Widget15ArrowHeaderLine21reverseArrowDirectionEv
libdtkwidget.so.2:_ZN3Dtk6Widget15ArrowHeaderLine9setExpandEb
libdtkwidget.so.2:_ZN3Dtk6Widget15ArrowHeaderLineC1EP7QWidget
libdtkwidget.so.2:_ZN3Dtk6Widget15ArrowHeaderLineC2EP7QWidget
libdtkwidget.so.2:_ZN3Dtk6Widget15DAbstractDialog10paintEventEP11QPaintEvent
libdtkwidget.so.2:_ZN3Dtk6Widget15DAbstractDialog11qt_metacallEN11QMetaObject4CallEiPPv
libdtkwidget.so.2:_ZN3Dtk6Widget15DAbstractDialog11qt_metacastEPKc
libdtkwidget.so.2:_ZN3Dtk6Widget15DAbstractDialog11resizeEventEP12QResizeEvent
libdtkwidget.so.2:_ZN3Dtk6Widget15DAbstractDialog11setGeometryERK5QRect
libdtkwidget.so.2:_ZN3Dtk6Widget15DAbstractDialog11sizeChangedE5QSize
libdtkwidget.so.2:_ZN3Dtk6Widget15DAbstractDialog12moveToCenterEv
libdtkwidget.so.2:_ZN3Dtk6Widget15DAbstractDialog14mouseMoveEventEP11QMouseEvent
libdtkwidget.so.2:_ZN3Dtk6Widget15DAbstractDialog14moveToTopRightEv
libdtkwidget.so.2:_ZN3Dtk6Widget15DAbstractDialog14setBorderColorE6QColor
libdtkwidget.so.2:_ZN3Dtk6Widget15DAbstractDialog15mousePressEventEP11QMouseEvent
libdtkwidget.so.2:_ZN3Dtk6Widget15DAbstractDialog17mouseReleaseEventEP11QMouseEvent
libdtkwidget.so.2:_ZN3Dtk6Widget15DAbstractDialog18moveToCenterByRectERK5QRect
libdtkwidget.so.2:_ZN3Dtk6Widget15DAbstractDialog18setBackgroundColorE6QColor
libdtkwidget.so.2:_ZN3Dtk6Widget15DAbstractDialog18setDisplayPositionENS1_15DisplayPositionE
libdtkwidget.so.2:_ZN3Dtk6Widget15DAbstractDialog20moveToTopRightByRectERK5QRect
libdtkwidget.so.2:_ZN3Dtk6Widget15DAbstractDialog4moveERK6QPoint
libdtkwidget.so.2:_ZN3Dtk6Widget15DAbstractDialog9showEventEP10QShowEvent
libdtkwidget.so.2:_ZN3Dtk6Widget15DAbstractDialogC1EP7QWidget
libdtkwidget.so.2:_ZN3Dtk6Widget15DAbstractDialogC1ERNS0_22DAbstractDialogPrivateEP7QWidget
libdtkwidget.so.2:_ZN3Dtk6Widget15DAbstractDialogC2EP7QWidget
libdtkwidget.so.2:_ZN3Dtk6Widget15DAbstractDialogC2ERNS0_22DAbstractDialogPrivateEP7QWidget
libdtkwidget.so.2:_ZN3Dtk6Widget15DArrowRectangle10paintEventEP11QPaintEvent
libdtkwidget.so.2:_ZN3Dtk6Widget15DArrowRectangle10setContentEP7QWidget
libdtkwidget.so.2:_ZN3Dtk6Widget15DArrowRectangle11qt_metacallEN11QMetaObject4CallEiPPv
libdtkwidget.so.2:_ZN3Dtk6Widget15DArrowRectangle11qt_metacastEPKc
libdtkwidget.so.2:_ZN3Dtk6Widget15DArrowRectangle11resizeEventEP12QResizeEvent
libdtkwidget.so.2:_ZN3Dtk6Widget15DArrowRectangle12getFixedSizeEv
libdtkwidget.so.2:_ZN3Dtk6Widget15DArrowRectangle13setArrowWidthEi
libdtkwidget.so.2:_ZN3Dtk6Widget15DArrowRectangle14setArrowHeightEi
libdtkwidget.so.2:_ZN3Dtk6Widget15DArrowRectangle14setBorderColorERK6QColor
libdtkwidget.so.2:_ZN3Dtk6Widget15DArrowRectangle14setBorderWidthEi
libdtkwidget.so.2:_ZN3Dtk6Widget15DArrowRectangle16setShadowXOffsetERKd
libdtkwidget.so.2:_ZN3Dtk6Widget15DArrowRectangle16setShadowYOffsetERKd
libdtkwidget.so.2:_ZN3Dtk6Widget15DArrowRectangle17resizeWithContentEv
libdtkwidget.so.2:_ZN3Dtk6Widget15DArrowRectangle17setArrowDirectionENS1_14ArrowDirectionE
libdtkwidget.so.2:_ZN3Dtk6Widget15DArrowRectangle18setBackgroundColorENS0_17DBlurEffectWidget13MaskColorTypeE
libdtkwidget.so.2:_ZN3Dtk6Widget15DArrowRectangle18setBackgroundColorERK6QColor
libdtkwidget.so.2:_ZN3Dtk6Widget15DArrowRectangle19setShadowBlurRadiusERKd
libdtkwidget.so.2:_ZN3Dtk6Widget15DArrowRectangle4moveEii
libdtkwidget.so.2:_ZN3Dtk6Widget15DArrowRectangle4showEii
libdtkwidget.so.2:_ZN3Dtk6Widget15DArrowRectangle5eventEP6QEvent
libdtkwidget.so.2:_ZN3Dtk6Widget15DArrowRectangle8setWidthEi
libdtkwidget.so.2:_ZN3Dtk6Widget15DArrowRectangle9setArrowXEi
libdtkwidget.so.2:_ZN3Dtk6Widget15DArrowRectangle9setArrowYEi
libdtkwidget.so.2:_ZN3Dtk6Widget15DArrowRectangle9setHeightEi
libdtkwidget.so.2:_ZN3Dtk6Widget15DArrowRectangle9setMarginEi
libdtkwidget.so.2:_ZN3Dtk6Widget15DArrowRectangle9setRadiusEi
libdtkwidget.so.2:_ZN3Dtk6Widget15DArrowRectangleC1ENS1_14ArrowDirectionENS1_9FloatModeEP7QWidget
libdtkwidget.so.2:_ZN3Dtk6Widget15DArrowRectangleC1ENS1_14ArrowDirectionEP7QWidget
libdtkwidget.so.2:_ZN3Dtk6Widget15DArrowRectangleC2ENS1_14ArrowDirectionENS1_9FloatModeEP7QWidget
libdtkwidget.so.2:_ZN3Dtk6Widget15DArrowRectangleC2ENS1_14ArrowDirectionEP7QWidget
libdtkwidget.so.2:_ZN3Dtk6Widget15DArrowRectangleD0Ev
libdtkwidget.so.2:_ZN3Dtk6Widget15DArrowRectangleD1Ev
libdtkwidget.so.2:_ZN3Dtk6Widget15DArrowRectangleD2Ev
libdtkwidget.so.2:_ZN3Dtk6Widget15DCircleProgress10enterEventEP6QEvent
libdtkwidget.so.2:_ZN3Dtk6Widget15DCircleProgress10leaveEventEP6QEvent
libdtkwidget.so.2:_ZN3Dtk6Widget15DCircleProgress10paintEventEP11QPaintEvent
libdtkwidget.so.2:_ZN3Dtk6Widget15DCircleProgress11bottomLabelEv
libdtkwidget.so.2:_ZN3Dtk6Widget15DCircleProgress11mouseLeavedEv
libdtkwidget.so.2:_ZN3Dtk6Widget15DCircleProgress11qt_metacallEN11QMetaObject4CallEiPPv
libdtkwidget.so.2:_ZN3Dtk6Widget15DCircleProgress11qt_metacastEPKc
libdtkwidget.so.2:_ZN3Dtk6Widget15DCircleProgress12mouseEnteredEv
libdtkwidget.so.2:_ZN3Dtk6Widget15DCircleProgress12setLineWidthEi
libdtkwidget.so.2:_ZN3Dtk6Widget15DCircleProgress13setChunkColorERK6QColor
libdtkwidget.so.2:_ZN3Dtk6Widget15DCircleProgress17mouseReleaseEventEP11QMouseEvent
libdtkwidget.so.2:_ZN3Dtk6Widget15DCircleProgress18setBackgroundColorERK6QColor
libdtkwidget.so.2:_ZN3Dtk6Widget15DCircleProgress7clickedEv
libdtkwidget.so.2:_ZN3Dtk6Widget15DCircleProgress7setTextERK7QString
libdtkwidget.so.2:_ZN3Dtk6Widget15DCircleProgress8setValueEi
libdtkwidget.so.2:_ZN3Dtk6Widget15DCircleProgress8topLabelEv
libdtkwidget.so.2:_ZN3Dtk6Widget15DCircleProgressC1EP7QWidget
libdtkwidget.so.2:_ZN3Dtk6Widget15DCircleProgressC2EP7QWidget
libdtkwidget.so.2:_ZN3Dtk6Widget15DEnhancedWidget10setEnabledEb
libdtkwidget.so.2:_ZN3Dtk6Widget15DEnhancedWidget11eventFilterEP7QObjectP6QEvent
libdtkwidget.so.2:_ZN3Dtk6Widget15DEnhancedWidget11qt_metacallEN11QMetaObject4CallEiPPv
libdtkwidget.so.2:_ZN3Dtk6Widget15DEnhancedWidget11qt_metacastEPKc
libdtkwidget.so.2:_ZN3Dtk6Widget15DEnhancedWidget11sizeChangedERK5QSize
libdtkwidget.so.2:_ZN3Dtk6Widget15DEnhancedWidget12widthChangedEi
libdtkwidget.so.2:_ZN3Dtk6Widget15DEnhancedWidget13heightChangedEi
libdtkwidget.so.2:_ZN3Dtk6Widget15DEnhancedWidget13targetChangedEP7QWidget
libdtkwidget.so.2:_ZN3Dtk6Widget15DEnhancedWidget14enabledChangedEb
libdtkwidget.so.2:_ZN3Dtk6Widget15DEnhancedWidget15positionChangedERK6QPoint
libdtkwidget.so.2:_ZN3Dtk6Widget15DEnhancedWidget6showedEv
libdtkwidget.so.2:_ZN3Dtk6Widget15DEnhancedWidget8xChangedEi
libdtkwidget.so.2:_ZN3Dtk6Widget15DEnhancedWidget8yChangedEi
libdtkwidget.so.2:_ZN3Dtk6Widget15DEnhancedWidget9setTargetEP7QWidget
libdtkwidget.so.2:_ZN3Dtk6Widget15DEnhancedWidgetC1EP7QWidgetP7QObject
libdtkwidget.so.2:_ZN3Dtk6Widget15DEnhancedWidgetC1EPNS0_22DEnhancedWidgetPrivateEP7QWidgetP7QObject
libdtkwidget.so.2:_ZN3Dtk6Widget15DEnhancedWidgetC2EP7QWidgetP7QObject
libdtkwidget.so.2:_ZN3Dtk6Widget15DEnhancedWidgetC2EPNS0_22DEnhancedWidgetPrivateEP7QWidgetP7QObject
libdtkwidget.so.2:_ZN3Dtk6Widget15DEnhancedWidgetD0Ev
libdtkwidget.so.2:_ZN3Dtk6Widget15DEnhancedWidgetD1Ev
libdtkwidget.so.2:_ZN3Dtk6Widget15DEnhancedWidgetD2Ev
libdtkwidget.so.2:_ZN3Dtk6Widget15DSettingsDialog11qt_metacallEN11QMetaObject4CallEiPPv
libdtkwidget.so.2:_ZN3Dtk6Widget15DSettingsDialog11qt_metacastEPKc
libdtkwidget.so.2:_ZN3Dtk6Widget15DSettingsDialog14updateSettingsEPNS_4Core9DSettingsE
libdtkwidget.so.2:_ZN3Dtk6Widget15DSettingsDialog14updateSettingsERK10QByteArrayPNS_4Core9DSettingsE
libdtkwidget.so.2:_ZN3Dtk6Widget15DSettingsDialogC1EP7QWidget
libdtkwidget.so.2:_ZN3Dtk6Widget15DSettingsDialogC2EP7QWidget
libdtkwidget.so.2:_ZN3Dtk6Widget15DSettingsDialogD0Ev
libdtkwidget.so.2:_ZN3Dtk6Widget15DSettingsDialogD1Ev
libdtkwidget.so.2:_ZN3Dtk6Widget15DSettingsDialogD2Ev
libdtkwidget.so.2:_ZN3Dtk6Widget15DSimpleListItem11qt_metacallEN11QMetaObject4CallEiPPv
libdtkwidget.so.2:_ZN3Dtk6Widget15DSimpleListItem11qt_metacastEPKc
libdtkwidget.so.2:_ZN3Dtk6Widget15DSimpleListItemC1Ev
libdtkwidget.so.2:_ZN3Dtk6Widget15DSimpleListItemC2Ev
libdtkwidget.so.2:_ZN3Dtk6Widget15DSimpleListView10clearItemsEv
libdtkwidget.so.2:_ZN3Dtk6Widget15DSimpleListView10leaveEventEP6QEvent
libdtkwidget.so.2:_ZN3Dtk6Widget15DSimpleListView10paintEventEP11QPaintEvent
libdtkwidget.so.2:_ZN3Dtk6Widget15DSimpleListView10removeItemEPNS0_15DSimpleListItemE
libdtkwidget.so.2:_ZN3Dtk6Widget15DSimpleListView10wheelEventEP11QWheelEvent
libdtkwidget.so.2:_ZN3Dtk6Widget15DSimpleListView11eventFilterEP7QObjectP6QEvent
libdtkwidget.so.2:_ZN3Dtk6Widget15DSimpleListView11qt_metacallEN11QMetaObject4CallEiPPv
libdtkwidget.so.2:_ZN3Dtk6Widget15DSimpleListView11qt_metacastEPKc
libdtkwidget.so.2:_ZN3Dtk6Widget15DSimpleListView12refreshItemsE5QListIPNS0_15DSimpleListItemEE
libdtkwidget.so.2:_ZN3Dtk6Widget15DSimpleListView12scrollPageUpEv
libdtkwidget.so.2:_ZN3Dtk6Widget15DSimpleListView12setRowHeightEi
libdtkwidget.so.2:_ZN3Dtk6Widget15DSimpleListView13addSelectionsE5QListIPNS0_15DSimpleListItemEEb
libdtkwidget.so.2:_ZN3Dtk6Widget15DSimpleListView13getScrollbarYEv
libdtkwidget.so.2:_ZN3Dtk6Widget15DSimpleListView13getSelectionsEv
libdtkwidget.so.2:_ZN3Dtk6Widget15DSimpleListView13hideScrollbarEv
libdtkwidget.so.2:_ZN3Dtk6Widget15DSimpleListView13keyPressEventEP9QKeyEvent
libdtkwidget.so.2:_ZN3Dtk6Widget15DSimpleListView13setClipRadiusEi
libdtkwidget.so.2:_ZN3Dtk6Widget15DSimpleListView14mouseMoveEventEP11QMouseEvent
libdtkwidget.so.2:_ZN3Dtk6Widget15DSimpleListView14paintScrollbarEP8QPainter
libdtkwidget.so.2:_ZN3Dtk6Widget15DSimpleListView14scrollPageDownEv
libdtkwidget.so.2:_ZN3Dtk6Widget15DSimpleListView14selectAllItemsEv
libdtkwidget.so.2:_ZN3Dtk6Widget15DSimpleListView14selectLastItemEv
libdtkwidget.so.2:_ZN3Dtk6Widget15DSimpleListView14selectNextItemEv
libdtkwidget.so.2:_ZN3Dtk6Widget15DSimpleListView14selectPrevItemEv
libdtkwidget.so.2:_ZN3Dtk6Widget15DSimpleListView15changeHoverItemE6QPointPNS0_15DSimpleListItemEi
libdtkwidget.so.2:_ZN3Dtk6Widget15DSimpleListView15clearSelectionsEb
libdtkwidget.so.2:_ZN3Dtk6Widget15DSimpleListView15ctrlScrollToEndEv
libdtkwidget.so.2:_ZN3Dtk6Widget15DSimpleListView15getRenderWidthsEv
libdtkwidget.so.2:_ZN3Dtk6Widget15DSimpleListView15mousePressEventEP11QMouseEvent
libdtkwidget.so.2:_ZN3Dtk6Widget15DSimpleListView15rightClickItemsE6QPoint5QListIPNS0_15DSimpleListItemEE
libdtkwidget.so.2:_ZN3Dtk6Widget15DSimpleListView15selectFirstItemEv
libdtkwidget.so.2:_ZN3Dtk6Widget15DSimpleListView15setSingleSelectEb
libdtkwidget.so.2:_ZN3Dtk6Widget15DSimpleListView16ctrlScrollPageUpEv
libdtkwidget.so.2:_ZN3Dtk6Widget15DSimpleListView16ctrlScrollToHomeEv
libdtkwidget.so.2:_ZN3Dtk6Widget15DSimpleListView16shiftSelectToEndEv
libdtkwidget.so.2:_ZN3Dtk6Widget15DSimpleListView17mouseHoverChangedEPNS0_15DSimpleListItemES3_i6QPoint
libdtkwidget.so.2:_ZN3Dtk6Widget15DSimpleListView17mousePressChangedEPNS0_15DSimpleListItemEi6QPoint
libdtkwidget.so.2:_ZN3Dtk6Widget15DSimpleListView17mouseReleaseEventEP11QMouseEvent
libdtkwidget.so.2:_ZN3Dtk6Widget15DSimpleListView17shiftSelectPageUpEv
libdtkwidget.so.2:_ZN3Dtk6Widget15DSimpleListView17shiftSelectToHomeEv
libdtkwidget.so.2:_ZN3Dtk6Widget15DSimpleListView17shiftSelectToNextEv
libdtkwidget.so.2:_ZN3Dtk6Widget15DSimpleListView17shiftSelectToPrevEv
libdtkwidget.so.2:_ZN3Dtk6Widget15DSimpleListView18adjustRenderOffsetEi
libdtkwidget.so.2:_ZN3Dtk6Widget15DSimpleListView18ctrlScrollPageDownEv
libdtkwidget.so.2:_ZN3Dtk6Widget15DSimpleListView18getScrollbarHeightEv
libdtkwidget.so.2:_ZN3Dtk6Widget15DSimpleListView18isMouseAtTitleAreaEi
libdtkwidget.so.2:_ZN3Dtk6Widget15DSimpleListView18setColumnHideFlagsE5QListIbEi
libdtkwidget.so.2:_ZN3Dtk6Widget15DSimpleListView18setColumnTitleInfoE5QListI7QStringES2_IiEi
libdtkwidget.so.2:_ZN3Dtk6Widget15DSimpleListView18setSearchAlgorithmEPFbPKNS0_15DSimpleListItemE7QStringE
libdtkwidget.so.2:_ZN3Dtk6Widget15DSimpleListView19changeColumnVisibleEib5QListIbE
libdtkwidget.so.2:_ZN3Dtk6Widget15DSimpleListView19changeSortingStatusEib
libdtkwidget.so.2:_ZN3Dtk6Widget15DSimpleListView19getScrollAreaHeightEv
libdtkwidget.so.2:_ZN3Dtk6Widget15DSimpleListView19isMouseAtScrollAreaEi
libdtkwidget.so.2:_ZN3Dtk6Widget15DSimpleListView19mouseReleaseChangedEPNS0_15DSimpleListItemEi6QPoint
libdtkwidget.so.2:_ZN3Dtk6Widget15DSimpleListView19shiftSelectPageDownEv
libdtkwidget.so.2:_ZN3Dtk6Widget15DSimpleListView21getBottomRenderOffsetEv
libdtkwidget.so.2:_ZN3Dtk6Widget15DSimpleListView23startScrollbarHideTimerEv
libdtkwidget.so.2:_ZN3Dtk6Widget15DSimpleListView24keepSelectWhenClickBlankEb
libdtkwidget.so.2:_ZN3Dtk6Widget15DSimpleListView24selectNextItemWithOffsetEi
libdtkwidget.so.2:_ZN3Dtk6Widget15DSimpleListView24selectPrevItemWithOffsetEi
libdtkwidget.so.2:_ZN3Dtk6Widget15DSimpleListView25shiftSelectItemsWithBoundEii
libdtkwidget.so.2:_ZN3Dtk6Widget15DSimpleListView26setColumnSortingAlgorithmsEP5QListIPFbPKNS0_15DSimpleListItemES5_bEEib
libdtkwidget.so.2:_ZN3Dtk6Widget15DSimpleListView29shiftSelectNextItemWithOffsetEi
libdtkwidget.so.2:_ZN3Dtk6Widget15DSimpleListView29shiftSelectPrevItemWithOffsetEi
libdtkwidget.so.2:_ZN3Dtk6Widget15DSimpleListView6searchE7QString
libdtkwidget.so.2:_ZN3Dtk6Widget15DSimpleListView8addItemsE5QListIPNS0_15DSimpleListItemEE
libdtkwidget.so.2:_ZN3Dtk6Widget15DSimpleListView8setFrameEb6QColord
libdtkwidget.so.2:_ZN3Dtk6Widget15DSimpleListViewC1EP7QWidget
libdtkwidget.so.2:_ZN3Dtk6Widget15DSimpleListViewC2EP7QWidget
libdtkwidget.so.2:_ZN3Dtk6Widget15DSimpleListViewD0Ev
libdtkwidget.so.2:_ZN3Dtk6Widget15DSimpleListViewD1Ev
libdtkwidget.so.2:_ZN3Dtk6Widget15DSimpleListViewD2Ev
libdtkwidget.so.2:_ZN3Dtk6Widget15DSpinBoxPrivate20_q_resizeInsideFrameERK5QSize
libdtkwidget.so.2:_ZN3Dtk6Widget15DSpinBoxPrivate4initEv
libdtkwidget.so.2:_ZN3Dtk6Widget15DSpinBoxPrivateC1EPNS0_8DSpinBoxE
libdtkwidget.so.2:_ZN3Dtk6Widget15DSpinBoxPrivateC2EPNS0_8DSpinBoxE
libdtkwidget.so.2:_ZN3Dtk6Widget15DSpinnerPrivate31createDefaultIndicatorColorListE6QColor
libdtkwidget.so.2:_ZN3Dtk6Widget15DSpinnerPrivateC1EPNS0_8DSpinnerE
libdtkwidget.so.2:_ZN3Dtk6Widget15DSpinnerPrivateC2EPNS0_8DSpinnerE
libdtkwidget.so.2:_ZN3Dtk6Widget15EnvReplaceGuardC1Ei
libdtkwidget.so.2:_ZN3Dtk6Widget15EnvReplaceGuardC2Ei
libdtkwidget.so.2:_ZN3Dtk6Widget15EnvReplaceGuardD1Ev
libdtkwidget.so.2:_ZN3Dtk6Widget15EnvReplaceGuardD2Ev
libdtkwidget.so.2:_ZN3Dtk6Widget15FilterMouseMove11eventFilterEP7QObjectP6QEvent
libdtkwidget.so.2:_ZN3Dtk6Widget15FilterMouseMove11qt_metacallEN11QMetaObject4CallEiPPv
libdtkwidget.so.2:_ZN3Dtk6Widget15FilterMouseMove11qt_metacastEPKc
libdtkwidget.so.2:_ZN3Dtk6Widget15FilterMouseMoveC1EP7QObject
libdtkwidget.so.2:_ZN3Dtk6Widget15FilterMouseMoveC2EP7QObject
libdtkwidget.so.2:_ZN3Dtk6Widget15FilterMouseMoveD0Ev
libdtkwidget.so.2:_ZN3Dtk6Widget15FilterMouseMoveD1Ev
libdtkwidget.so.2:_ZN3Dtk6Widget15FilterMouseMoveD2Ev
libdtkwidget.so.2:_ZN3Dtk6Widget16DArrowLineExpand10headerLineEv
libdtkwidget.so.2:_ZN3Dtk6Widget16DArrowLineExpand11qt_metacallEN11QMetaObject4CallEiPPv
libdtkwidget.so.2:_ZN3Dtk6Widget16DArrowLineExpand11qt_metacastEPKc
libdtkwidget.so.2:_ZN3Dtk6Widget16DArrowLineExpand11resizeEventEP12QResizeEvent
libdtkwidget.so.2:_ZN3Dtk6Widget16DArrowLineExpand8setTitleERK7QString
libdtkwidget.so.2:_ZN3Dtk6Widget16DArrowLineExpand9setExpandEb
libdtkwidget.so.2:_ZN3Dtk6Widget16DArrowLineExpand9setHeaderEP7QWidget
libdtkwidget.so.2:_ZN3Dtk6Widget16DArrowLineExpandC1EP7QWidget
libdtkwidget.so.2:_ZN3Dtk6Widget16DArrowLineExpandC2EP7QWidget
libdtkwidget.so.2:_ZN3Dtk6Widget16DBackgroundGroup10paintEventEP11QPaintEvent
libdtkwidget.so.2:_ZN3Dtk6Widget16DBackgroundGroup11qt_metacallEN11QMetaObject4CallEiPPv
libdtkwidget.so.2:_ZN3Dtk6Widget16DBackgroundGroup11qt_metacastEPKc
libdtkwidget.so.2:_ZN3Dtk6Widget16DCrumbTextFormat11setTagColorERK6QColor
libdtkwidget.so.2:_ZN3Dtk6Widget16DCrumbTextFormat12setTextColorERK6QColor
libdtkwidget.so.2:_ZN3Dtk6Widget16DCrumbTextFormat13setBackgroundERK6QBrush
libdtkwidget.so.2:_ZN3Dtk6Widget16DCrumbTextFormat19setBackgroundRadiusEi
libdtkwidget.so.2:_ZN3Dtk6Widget16DCrumbTextFormat7setTextERK7QString
libdtkwidget.so.2:_ZN3Dtk6Widget16DCrumbTextFormatC1ERK11QTextFormat
libdtkwidget.so.2:_ZN3Dtk6Widget16DCrumbTextFormatC1Ei
libdtkwidget.so.2:_ZN3Dtk6Widget16DCrumbTextFormatC1Ev
libdtkwidget.so.2:_ZN3Dtk6Widget16DCrumbTextFormatC2ERK11QTextFormat
libdtkwidget.so.2:_ZN3Dtk6Widget16DCrumbTextFormatC2Ei
libdtkwidget.so.2:_ZN3Dtk6Widget16DCrumbTextFormatC2Ev
libdtkwidget.so.2:_ZN3Dtk6Widget16DDesktopServices10showFolderE4QUrlRK7QString
libdtkwidget.so.2:_ZN3Dtk6Widget16DDesktopServices10showFolderE7QStringRKS2_
libdtkwidget.so.2:_ZN3Dtk6Widget16DDesktopServices11showFoldersE5QListI4QUrlERK7QString
libdtkwidget.so.2:_ZN3Dtk6Widget16DDesktopServices11showFoldersE5QListI7QStringERKS3_
libdtkwidget.so.2:_ZN3Dtk6Widget16DDesktopServices12errorMessageEv
libdtkwidget.so.2:_ZN3Dtk6Widget16DDesktopServices12showFileItemE4QUrlRK7QString
libdtkwidget.so.2:_ZN3Dtk6Widget16DDesktopServices12showFileItemE7QStringRKS2_
libdtkwidget.so.2:_ZN3Dtk6Widget16DDesktopServices13showFileItemsE5QListI4QUrlERK7QString
libdtkwidget.so.2:_ZN3Dtk6Widget16DDesktopServices13showFileItemsE5QListI7QStringERKS3_
libdtkwidget.so.2:_ZN3Dtk6Widget16DDesktopServices19getNameByEffectTypeERKNS1_17SystemSoundEffectE
libdtkwidget.so.2:_ZN3Dtk6Widget16DDesktopServices21playSystemSoundEffectERK7QString
libdtkwidget.so.2:_ZN3Dtk6Widget16DDesktopServices21playSystemSoundEffectERKNS1_17SystemSoundEffectE
libdtkwidget.so.2:_ZN3Dtk6Widget16DDesktopServices21showFileItemPropertieE4QUrlRK7QString
libdtkwidget.so.2:_ZN3Dtk6Widget16DDesktopServices21showFileItemPropertieE7QStringRKS2_
libdtkwidget.so.2:_ZN3Dtk6Widget16DDesktopServices22showFileItemPropertiesE5QListI4QUrlERK7QString
libdtkwidget.so.2:_ZN3Dtk6Widget16DDesktopServices22showFileItemPropertiesE5QListI7QStringERKS3_
libdtkwidget.so.2:_ZN3Dtk6Widget16DDesktopServices24previewSystemSoundEffectERK7QString
libdtkwidget.so.2:_ZN3Dtk6Widget16DDesktopServices24previewSystemSoundEffectERKNS1_17SystemSoundEffectE
libdtkwidget.so.2:_ZN3Dtk6Widget16DDesktopServices5trashE4QUrl
libdtkwidget.so.2:_ZN3Dtk6Widget16DDesktopServices5trashE5QListI4QUrlE
libdtkwidget.so.2:_ZN3Dtk6Widget16DDesktopServices5trashE5QListI7QStringE
libdtkwidget.so.2:_ZN3Dtk6Widget16DDesktopServices5trashE7QString
libdtkwidget.so.2:_ZN3Dtk6Widget16DFileChooserEdit11fileChoosedERK7QString
libdtkwidget.so.2:_ZN3Dtk6Widget16DFileChooserEdit11qt_metacallEN11QMetaObject4CallEiPPv
libdtkwidget.so.2:_ZN3Dtk6Widget16DFileChooserEdit11qt_metacastEPKc
libdtkwidget.so.2:_ZN3Dtk6Widget16DFileChooserEdit11setFileModeEN11QFileDialog8FileModeE
libdtkwidget.so.2:_ZN3Dtk6Widget16DFileChooserEdit12dialogClosedEi
libdtkwidget.so.2:_ZN3Dtk6Widget16DFileChooserEdit12dialogOpenedEv
libdtkwidget.so.2:_ZN3Dtk6Widget16DFileChooserEdit14setNameFiltersERK11QStringList
libdtkwidget.so.2:_ZN3Dtk6Widget16DFileChooserEdit24setDialogDisplayPositionENS1_21DialogDisplayPositionE
libdtkwidget.so.2:_ZN3Dtk6Widget16DFileChooserEditC1EP7QWidget
libdtkwidget.so.2:_ZN3Dtk6Widget16DFileChooserEditC2EP7QWidget
libdtkwidget.so.2:_ZN3Dtk6Widget16DFontSizeManager16setFontPixelSizeENS1_8SizeTypeEt
libdtkwidget.so.2:_ZN3Dtk6Widget16DFontSizeManager23setFontGenericPixelSizeEt
libdtkwidget.so.2:_ZN3Dtk6Widget16DFontSizeManager4bindEP7QWidgetNS1_8SizeTypeE
libdtkwidget.so.2:_ZN3Dtk6Widget16DFontSizeManager6unbindEP7QWidget
libdtkwidget.so.2:_ZN3Dtk6Widget16DFontSizeManager8instanceEv
libdtkwidget.so.2:_ZN3Dtk6Widget16DFontSizeManagerC1Ev
libdtkwidget.so.2:_ZN3Dtk6Widget16DFontSizeManagerC2Ev
libdtkwidget.so.2:_ZN3Dtk6Widget16DKeyboardMonitor11isNumlockOnEv
libdtkwidget.so.2:_ZN3Dtk6Widget16DKeyboardMonitor11qt_metacallEN11QMetaObject4CallEiPPv
libdtkwidget.so.2:_ZN3Dtk6Widget16DKeyboardMonitor11qt_metacastEPKc
libdtkwidget.so.2:_ZN3Dtk6Widget16DKeyboardMonitor12isCapslockOnEv
libdtkwidget.so.2:_ZN3Dtk6Widget16DKeyboardMonitor16setNumlockStatusERKb
libdtkwidget.so.2:_ZN3Dtk6Widget16DKeyboardMonitor20numlockStatusChangedEb
libdtkwidget.so.2:_ZN3Dtk6Widget16DKeyboardMonitor21capslockStatusChangedEb
libdtkwidget.so.2:_ZN3Dtk6Widget16DKeyboardMonitor3runEv
libdtkwidget.so.2:_ZN3Dtk6Widget16DKeyboardMonitor6listenEP9_XDisplay
libdtkwidget.so.2:_ZN3Dtk6Widget16DKeyboardMonitor8instanceEv
libdtkwidget.so.2:_ZN3Dtk6Widget16DKeyboardMonitorC1Ev
libdtkwidget.so.2:_ZN3Dtk6Widget16DKeyboardMonitorC2Ev
libdtkwidget.so.2:_ZN3Dtk6Widget16DLineEditPrivate4initEv
libdtkwidget.so.2:_ZN3Dtk6Widget16DLineEditPrivateC1EPNS0_9DLineEditE
libdtkwidget.so.2:_ZN3Dtk6Widget16DLineEditPrivateC2EPNS0_9DLineEditE
libdtkwidget.so.2:_ZN3Dtk6Widget16DListViewPrivate20onOrientationChangedEv
libdtkwidget.so.2:_ZN3Dtk6Widget16DListViewPrivate4initEv
libdtkwidget.so.2:_ZN3Dtk6Widget16DListViewPrivateC1EPNS0_9DListViewE
libdtkwidget.so.2:_ZN3Dtk6Widget16DListViewPrivateC2EPNS0_9DListViewE
libdtkwidget.so.2:_ZN3Dtk6Widget16DListViewPrivateD0Ev
libdtkwidget.so.2:_ZN3Dtk6Widget16DListViewPrivateD1Ev
libdtkwidget.so.2:_ZN3Dtk6Widget16DListViewPrivateD2Ev
libdtkwidget.so.2:_ZN3Dtk6Widget16DTabBarAddButton10paintEventEP11QPaintEvent
libdtkwidget.so.2:_ZN3Dtk6Widget16DTextEditPrivate4initEv
libdtkwidget.so.2:_ZN3Dtk6Widget16DTextEditPrivateC1EPNS0_9DTextEditE
libdtkwidget.so.2:_ZN3Dtk6Widget16DTextEditPrivateC2EPNS0_9DTextEditE
libdtkwidget.so.2:_ZN3Dtk6Widget16DTitlebarPrivate12targetWindowEv
libdtkwidget.so.2:_ZN3Dtk6Widget16DTitlebarPrivate16_q_showMinimizedEv
libdtkwidget.so.2:_ZN3Dtk6Widget16DTitlebarPrivate16hideOnFullscreenEv
libdtkwidget.so.2:_ZN3Dtk6Widget16DTitlebarPrivate16showOnFullscreenEv
libdtkwidget.so.2:_ZN3Dtk6Widget16DTitlebarPrivate16updateFullscreenEv
libdtkwidget.so.2:_ZN3Dtk6Widget16DTitlebarPrivate17updateButtonsFuncEv
libdtkwidget.so.2:_ZN3Dtk6Widget16DTitlebarPrivate18updateButtonsStateE6QFlagsIN2Qt10WindowTypeEE
libdtkwidget.so.2:_ZN3Dtk6Widget16DTitlebarPrivate20_q_toggleWindowStateEv
libdtkwidget.so.2:_ZN3Dtk6Widget16DTitlebarPrivate21isVisableOnFullscreenEv
libdtkwidget.so.2:_ZN3Dtk6Widget16DTitlebarPrivate22_q_addDefaultMenuItemsEv
libdtkwidget.so.2:_ZN3Dtk6Widget16DTitlebarPrivate22_q_helpActionTriggeredEv
libdtkwidget.so.2:_ZN3Dtk6Widget16DTitlebarPrivate22_q_quitActionTriggeredEv
libdtkwidget.so.2:_ZN3Dtk6Widget16DTitlebarPrivate23_q_aboutActionTriggeredEv
libdtkwidget.so.2:_ZN3Dtk6Widget16DTitlebarPrivate26handleParentWindowIdChangeEv
libdtkwidget.so.2:_ZN3Dtk6Widget16DTitlebarPrivate29handleParentWindowStateChangeEv
libdtkwidget.so.2:_ZN3Dtk6Widget16DTitlebarPrivate31_q_onTopWindowMotifHintsChangedEj
libdtkwidget.so.2:_ZN3Dtk6Widget16DTitlebarPrivate4initEv
libdtkwidget.so.2:_ZN3Dtk6Widget16DTitlebarPrivateC1EPNS0_9DTitlebarE
libdtkwidget.so.2:_ZN3Dtk6Widget16DTitlebarPrivateC2EPNS0_9DTitlebarE
libdtkwidget.so.2:_ZN3Dtk6Widget16DWindowMaxButton11qt_metacallEN11QMetaObject4CallEiPPv
libdtkwidget.so.2:_ZN3Dtk6Widget16DWindowMaxButton11qt_metacastEPKc
libdtkwidget.so.2:_ZN3Dtk6Widget16DWindowMaxButton12setMaximizedEb
libdtkwidget.so.2:_ZN3Dtk6Widget16DWindowMaxButton16maximizedChangedEb
libdtkwidget.so.2:_ZN3Dtk6Widget16DWindowMaxButtonC1EP7QWidget
libdtkwidget.so.2:_ZN3Dtk6Widget16DWindowMaxButtonC2EP7QWidget
libdtkwidget.so.2:_ZN3Dtk6Widget16DWindowMinButton11qt_metacallEN11QMetaObject4CallEiPPv
libdtkwidget.so.2:_ZN3Dtk6Widget16DWindowMinButton11qt_metacastEPKc
libdtkwidget.so.2:_ZN3Dtk6Widget16DWindowMinButtonC1EP7QWidget
libdtkwidget.so.2:_ZN3Dtk6Widget16DWindowMinButtonC2EP7QWidget
libdtkwidget.so.2:_ZN3Dtk6Widget16VideoFormatProxy11qt_metacallEN11QMetaObject4CallEiPPv
libdtkwidget.so.2:_ZN3Dtk6Widget16VideoFormatProxy11qt_metacastEPKc
libdtkwidget.so.2:_ZN3Dtk6Widget16VideoFormatProxy19currentFrameChangedEv
libdtkwidget.so.2:_ZN3Dtk6Widget16VideoFormatProxy7presentERK11QVideoFrame
libdtkwidget.so.2:_ZN3Dtk6Widget16VideoFormatProxyC1EP7QObject
libdtkwidget.so.2:_ZN3Dtk6Widget16VideoFormatProxyC2EP7QObject
libdtkwidget.so.2:_ZN3Dtk6Widget17DBlurEffectWidget10paintEventEP11QPaintEvent
libdtkwidget.so.2:_ZN3Dtk6Widget17DBlurEffectWidget11changeEventEP6QEvent
libdtkwidget.so.2:_ZN3Dtk6Widget17DBlurEffectWidget11fullChangedEb
libdtkwidget.so.2:_ZN3Dtk6Widget17DBlurEffectWidget11modeChangedENS1_8BlurModeE
libdtkwidget.so.2:_ZN3Dtk6Widget17DBlurEffectWidget11qt_metacallEN11QMetaObject4CallEiPPv
libdtkwidget.so.2:_ZN3Dtk6Widget17DBlurEffectWidget11qt_metacastEPKc
libdtkwidget.so.2:_ZN3Dtk6Widget17DBlurEffectWidget11resizeEventEP12QResizeEvent
libdtkwidget.so.2:_ZN3Dtk6Widget17DBlurEffectWidget11setMaskPathERK12QPainterPath
libdtkwidget.so.2:_ZN3Dtk6Widget17DBlurEffectWidget12setBlendModeENS1_9BlendModeE
libdtkwidget.so.2:_ZN3Dtk6Widget17DBlurEffectWidget12setMaskAlphaEh
libdtkwidget.so.2:_ZN3Dtk6Widget17DBlurEffectWidget12setMaskColorE6QColor
libdtkwidget.so.2:_ZN3Dtk6Widget17DBlurEffectWidget12setMaskColorENS1_13MaskColorTypeE
libdtkwidget.so.2:_ZN3Dtk6Widget17DBlurEffectWidget13radiusChangedEi
libdtkwidget.so.2:_ZN3Dtk6Widget17DBlurEffectWidget14setBlurEnabledEb
libdtkwidget.so.2:_ZN3Dtk6Widget17DBlurEffectWidget16blendModeChangedENS1_9BlendModeE
libdtkwidget.so.2:_ZN3Dtk6Widget17DBlurEffectWidget16maskAlphaChangedEh
libdtkwidget.so.2:_ZN3Dtk6Widget17DBlurEffectWidget16maskColorChangedE6QColor
libdtkwidget.so.2:_ZN3Dtk6Widget17DBlurEffectWidget18blurEnabledChangedEb
libdtkwidget.so.2:_ZN3Dtk6Widget17DBlurEffectWidget18setBlurRectXRadiusEi
libdtkwidget.so.2:_ZN3Dtk6Widget17DBlurEffectWidget18setBlurRectYRadiusEi
libdtkwidget.so.2:_ZN3Dtk6Widget17DBlurEffectWidget22blurRectXRadiusChangedEi
libdtkwidget.so.2:_ZN3Dtk6Widget17DBlurEffectWidget22blurRectYRadiusChangedEi
libdtkwidget.so.2:_ZN3Dtk6Widget17DBlurEffectWidget7setFullEb
libdtkwidget.so.2:_ZN3Dtk6Widget17DBlurEffectWidget7setModeENS1_8BlurModeE
libdtkwidget.so.2:_ZN3Dtk6Widget17DBlurEffectWidget9hideEventEP10QHideEvent
libdtkwidget.so.2:_ZN3Dtk6Widget17DBlurEffectWidget9moveEventEP10QMoveEvent
libdtkwidget.so.2:_ZN3Dtk6Widget17DBlurEffectWidget9setRadiusEi
libdtkwidget.so.2:_ZN3Dtk6Widget17DBlurEffectWidget9showEventEP10QShowEvent
libdtkwidget.so.2:_ZN3Dtk6Widget17DBlurEffectWidgetC1EP7QWidget
libdtkwidget.so.2:_ZN3Dtk6Widget17DBlurEffectWidgetC1ERNS0_24DBlurEffectWidgetPrivateEP7QWidget
libdtkwidget.so.2:_ZN3Dtk6Widget17DBlurEffectWidgetC2EP7QWidget
libdtkwidget.so.2:_ZN3Dtk6Widget17DBlurEffectWidgetC2ERNS0_24DBlurEffectWidgetPrivateEP7QWidget
libdtkwidget.so.2:_ZN3Dtk6Widget17DBlurEffectWidgetD0Ev
libdtkwidget.so.2:_ZN3Dtk6Widget17DBlurEffectWidgetD1Ev
libdtkwidget.so.2:_ZN3Dtk6Widget17DBlurEffectWidgetD2Ev
libdtkwidget.so.2:_ZN3Dtk6Widget17DBorderlessWidget10adjustSizeEv
libdtkwidget.so.2:_ZN3Dtk6Widget17DBorderlessWidget10closeEventEP11QCloseEvent
libdtkwidget.so.2:_ZN3Dtk6Widget17DBorderlessWidget10enterEventEP6QEvent
libdtkwidget.so.2:_ZN3Dtk6Widget17DBorderlessWidget10leaveEventEP6QEvent
libdtkwidget.so.2:_ZN3Dtk6Widget17DBorderlessWidget10moveWindowEN2Qt11MouseButtonE
libdtkwidget.so.2:_ZN3Dtk6Widget17DBorderlessWidget10paintEventEP11QPaintEvent
libdtkwidget.so.2:_ZN3Dtk6Widget17DBorderlessWidget10showNormalEv
libdtkwidget.so.2:_ZN3Dtk6Widget17DBorderlessWidget11changeEventEP6QEvent
libdtkwidget.so.2:_ZN3Dtk6Widget17DBorderlessWidget11qt_metacallEN11QMetaObject4CallEiPPv
libdtkwidget.so.2:_ZN3Dtk6Widget17DBorderlessWidget11qt_metacastEPKc
libdtkwidget.so.2:_ZN3Dtk6Widget17DBorderlessWidget11resizeEventEP12QResizeEvent
libdtkwidget.so.2:_ZN3Dtk6Widget17DBorderlessWidget11windowFlagsEv
libdtkwidget.so.2:_ZN3Dtk6Widget17DBorderlessWidget12removeLayoutEv
libdtkwidget.so.2:_ZN3Dtk6Widget17DBorderlessWidget12setFixedSizeERK5QSize
libdtkwidget.so.2:_ZN3Dtk6Widget17DBorderlessWidget12setFixedSizeEii
libdtkwidget.so.2:_ZN3Dtk6Widget17DBorderlessWidget12setTitleIconERK7QPixmap
libdtkwidget.so.2:_ZN3Dtk6Widget17DBorderlessWidget13optionClickedEv
libdtkwidget.so.2:_ZN3Dtk6Widget17DBorderlessWidget13setFixedWidthEi
libdtkwidget.so.2:_ZN3Dtk6Widget17DBorderlessWidget13showMaximizedEv
libdtkwidget.so.2:_ZN3Dtk6Widget17DBorderlessWidget13showMinimizedEv
libdtkwidget.so.2:_ZN3Dtk6Widget17DBorderlessWidget14mouseMoveEventEP11QMouseEvent
libdtkwidget.so.2:_ZN3Dtk6Widget17DBorderlessWidget14setShadowColorE6QColor
libdtkwidget.so.2:_ZN3Dtk6Widget17DBorderlessWidget14setShadowWidthEi
libdtkwidget.so.2:_ZN3Dtk6Widget17DBorderlessWidget14setWindowFlagsE6QFlagsIN2Qt10WindowTypeEE
libdtkwidget.so.2:_ZN3Dtk6Widget17DBorderlessWidget14showFullScreenEv
libdtkwidget.so.2:_ZN3Dtk6Widget17DBorderlessWidget15decorationFlagsEv
libdtkwidget.so.2:_ZN3Dtk6Widget17DBorderlessWidget15mousePressEventEP11QMouseEvent
libdtkwidget.so.2:_ZN3Dtk6Widget17DBorderlessWidget15setShadowOffsetE6QPoint
libdtkwidget.so.2:_ZN3Dtk6Widget17DBorderlessWidget15setTitlebarMenuEP5QMenu
libdtkwidget.so.2:_ZN3Dtk6Widget17DBorderlessWidget16drawShadowPixmapEv
libdtkwidget.so.2:_ZN3Dtk6Widget17DBorderlessWidget17mouseReleaseEventEP11QMouseEvent
libdtkwidget.so.2:_ZN3Dtk6Widget17DBorderlessWidget17setTitlebarWidgetEP7QWidgetN2Qt13AlignmentFlagEb
libdtkwidget.so.2:_ZN3Dtk6Widget17DBorderlessWidget17setTitlebarWidgetEP7QWidgetb
libdtkwidget.so.2:_ZN3Dtk6Widget17DBorderlessWidget18setBackgroundColorE6QColor
libdtkwidget.so.2:_ZN3Dtk6Widget17DBorderlessWidget18setBackgroundImageERK7QPixmap
libdtkwidget.so.2:_ZN3Dtk6Widget17DBorderlessWidget18setContentsMarginsERK8QMargins
libdtkwidget.so.2:_ZN3Dtk6Widget17DBorderlessWidget18setContentsMarginsEiiii
libdtkwidget.so.2:_ZN3Dtk6Widget17DBorderlessWidget18setDecorationFlagsE6QFlagsINS1_14DecorationFlagEE
libdtkwidget.so.2:_ZN3Dtk6Widget17DBorderlessWidget18shadowColorChangedE6QColor
libdtkwidget.so.2:_ZN3Dtk6Widget17DBorderlessWidget19shadowOffsetChangedE6QPoint
libdtkwidget.so.2:_ZN3Dtk6Widget17DBorderlessWidget21toggleMaximizedWindowEv
libdtkwidget.so.2:_ZN3Dtk6Widget17DBorderlessWidget22backgroundColorChangedE6QColor
libdtkwidget.so.2:_ZN3Dtk6Widget17DBorderlessWidget22setTitlebarFixedHeightEi
libdtkwidget.so.2:_ZN3Dtk6Widget17DBorderlessWidget4moveERK6QPoint
libdtkwidget.so.2:_ZN3Dtk6Widget17DBorderlessWidget4moveEii
libdtkwidget.so.2:_ZN3Dtk6Widget17DBorderlessWidget6resizeERK5QSize
libdtkwidget.so.2:_ZN3Dtk6Widget17DBorderlessWidget6resizeEii
libdtkwidget.so.2:_ZN3Dtk6Widget17DBorderlessWidget8setTitleERK7QString
libdtkwidget.so.2:_ZN3Dtk6Widget17DBorderlessWidget9setBorderEi
libdtkwidget.so.2:_ZN3Dtk6Widget17DBorderlessWidget9setLayoutEP7QLayout
libdtkwidget.so.2:_ZN3Dtk6Widget17DBorderlessWidget9setRadiusEi
libdtkwidget.so.2:_ZN3Dtk6Widget17DBorderlessWidget9showEventEP10QShowEvent
libdtkwidget.so.2:_ZN3Dtk6Widget17DBorderlessWidgetC1EP7QWidget
libdtkwidget.so.2:_ZN3Dtk6Widget17DBorderlessWidgetC1ERNS0_24DBorderlessWidgetPrivateEP7QWidget
libdtkwidget.so.2:_ZN3Dtk6Widget17DBorderlessWidgetC2EP7QWidget
libdtkwidget.so.2:_ZN3Dtk6Widget17DBorderlessWidgetC2ERNS0_24DBorderlessWidgetPrivateEP7QWidget
libdtkwidget.so.2:_ZN3Dtk6Widget17DBorderlessWindow11qt_metacallEN11QMetaObject4CallEiPPv
libdtkwidget.so.2:_ZN3Dtk6Widget17DBorderlessWindow11qt_metacastEPKc
libdtkwidget.so.2:_ZN3Dtk6Widget17DBorderlessWindow16setContentLayoutEP7QLayout
libdtkwidget.so.2:_ZN3Dtk6Widget17DBorderlessWindow16setContentWidgetEP7QWidget
libdtkwidget.so.2:_ZN3Dtk6Widget17DBorderlessWindow9setParentEP7QWidget
libdtkwidget.so.2:_ZN3Dtk6Widget17DBorderlessWindowC1EP7QWidget
libdtkwidget.so.2:_ZN3Dtk6Widget17DBorderlessWindowC2EP7QWidget
libdtkwidget.so.2:_ZN3Dtk6Widget17DBoxWidgetPrivate4initEv
libdtkwidget.so.2:_ZN3Dtk6Widget17DBoxWidgetPrivateC1EPNS0_10DBoxWidgetE
libdtkwidget.so.2:_ZN3Dtk6Widget17DBoxWidgetPrivateC2EPNS0_10DBoxWidgetE
libdtkwidget.so.2:_ZN3Dtk6Widget17DClipEffectWidget10paintEventEP11QPaintEvent
libdtkwidget.so.2:_ZN3Dtk6Widget17DClipEffectWidget10setMarginsE8QMargins
libdtkwidget.so.2:_ZN3Dtk6Widget17DClipEffectWidget11eventFilterEP7QObjectP6QEvent
libdtkwidget.so.2:_ZN3Dtk6Widget17DClipEffectWidget11qt_metacallEN11QMetaObject4CallEiPPv
libdtkwidget.so.2:_ZN3Dtk6Widget17DClipEffectWidget11qt_metacastEPKc
libdtkwidget.so.2:_ZN3Dtk6Widget17DClipEffectWidget11resizeEventEP12QResizeEvent
libdtkwidget.so.2:_ZN3Dtk6Widget17DClipEffectWidget11setClipPathERK12QPainterPath
libdtkwidget.so.2:_ZN3Dtk6Widget17DClipEffectWidget14marginsChangedE8QMargins
libdtkwidget.so.2:_ZN3Dtk6Widget17DClipEffectWidget15clipPathChangedE12QPainterPath
libdtkwidget.so.2:_ZN3Dtk6Widget17DClipEffectWidget9hideEventEP10QHideEvent
libdtkwidget.so.2:_ZN3Dtk6Widget17DClipEffectWidget9showEventEP10QShowEvent
libdtkwidget.so.2:_ZN3Dtk6Widget17DClipEffectWidgetC1EP7QWidget
libdtkwidget.so.2:_ZN3Dtk6Widget17DClipEffectWidgetC2EP7QWidget
libdtkwidget.so.2:_ZN3Dtk6Widget17DFileIconProvider14globalProviderEv
libdtkwidget.so.2:_ZN3Dtk6Widget17DFileIconProviderC1Ev
libdtkwidget.so.2:_ZN3Dtk6Widget17DFileIconProviderC2Ev
libdtkwidget.so.2:_ZN3Dtk6Widget17DFileIconProviderD0Ev
libdtkwidget.so.2:_ZN3Dtk6Widget17DFileIconProviderD1Ev
libdtkwidget.so.2:_ZN3Dtk6Widget17DFileIconProviderD2Ev
libdtkwidget.so.2:_ZN3Dtk6Widget17DLoadingIndicator10setLoadingEb
libdtkwidget.so.2:_ZN3Dtk6Widget17DLoadingIndicator11qt_metacallEN11QMetaObject4CallEiPPv
libdtkwidget.so.2:_ZN3Dtk6Widget17DLoadingIndicator11qt_metacastEPKc
libdtkwidget.so.2:_ZN3Dtk6Widget17DLoadingIndicator11resizeEventEP12QResizeEvent
libdtkwidget.so.2:_ZN3Dtk6Widget17DLoadingIndicator12setDirectionENS1_17RotationDirectionE
libdtkwidget.so.2:_ZN3Dtk6Widget17DLoadingIndicator13rotateChangedEd
libdtkwidget.so.2:_ZN3Dtk6Widget17DLoadingIndicator14setAniDurationEi
libdtkwidget.so.2:_ZN3Dtk6Widget17DLoadingIndicator14setImageSourceERK7QPixmap
libdtkwidget.so.2:_ZN3Dtk6Widget17DLoadingIndicator15setWidgetSourceEP7QWidget
libdtkwidget.so.2:_ZN3Dtk6Widget17DLoadingIndicator16directionChangedENS1_17RotationDirectionE
libdtkwidget.so.2:_ZN3Dtk6Widget17DLoadingIndicator16setAniEasingTypeEN12QEasingCurve4TypeE
libdtkwidget.so.2:_ZN3Dtk6Widget17DLoadingIndicator17setAniEasingCurveERK12QEasingCurve
libdtkwidget.so.2:_ZN3Dtk6Widget17DLoadingIndicator18setBackgroundColorERK6QColor
libdtkwidget.so.2:_ZN3Dtk6Widget17DLoadingIndicator4stopEv
libdtkwidget.so.2:_ZN3Dtk6Widget17DLoadingIndicator5startEv
libdtkwidget.so.2:_ZN3Dtk6Widget17DLoadingIndicator9setRotateE8QVariant
libdtkwidget.so.2:_ZN3Dtk6Widget17DLoadingIndicator9setSmoothEb
libdtkwidget.so.2:_ZN3Dtk6Widget17DLoadingIndicatorC1EP7QWidget
libdtkwidget.so.2:_ZN3Dtk6Widget17DLoadingIndicatorC2EP7QWidget
libdtkwidget.so.2:_ZN3Dtk6Widget17DLoadingIndicatorD0Ev
libdtkwidget.so.2:_ZN3Dtk6Widget17DLoadingIndicatorD1Ev
libdtkwidget.so.2:_ZN3Dtk6Widget17DLoadingIndicatorD2Ev
libdtkwidget.so.2:_ZN3Dtk6Widget17DMovableTabWidget10paintEventEP11QPaintEvent
libdtkwidget.so.2:_ZN3Dtk6Widget17DMovableTabWidget9setPixmapERK7QPixmap
libdtkwidget.so.2:_ZN3Dtk6Widget17DMovableTabWidgetC1EP7QWidget
libdtkwidget.so.2:_ZN3Dtk6Widget17DMovableTabWidgetC2EP7QWidget
libdtkwidget.so.2:_ZN3Dtk6Widget17DScrollBarPrivate10setOpacityEd
libdtkwidget.so.2:_ZN3Dtk6Widget17DScrollBarPrivate16_q_updateOpacityEv
libdtkwidget.so.2:_ZN3Dtk6Widget17DScrollBarPrivate4initEv
libdtkwidget.so.2:_ZN3Dtk6Widget17DScrollBarPrivate9_q_hiddenEv
libdtkwidget.so.2:_ZN3Dtk6Widget17DScrollBarPrivateC1EPNS0_10DScrollBarE
libdtkwidget.so.2:_ZN3Dtk6Widget17DScrollBarPrivateC2EPNS0_10DScrollBarE
libdtkwidget.so.2:_ZN3Dtk6Widget17DSegmentedControl11eventFilterEP7QObjectP6QEvent
libdtkwidget.so.2:_ZN3Dtk6Widget17DSegmentedControl11qt_metacallEN11QMetaObject4CallEiPPv
libdtkwidget.so.2:_ZN3Dtk6Widget17DSegmentedControl11qt_metacastEPKc
libdtkwidget.so.2:_ZN3Dtk6Widget17DSegmentedControl11resizeEventEP12QResizeEvent
libdtkwidget.so.2:_ZN3Dtk6Widget17DSegmentedControl12addSegmentedERK11QStringList
libdtkwidget.so.2:_ZN3Dtk6Widget17DSegmentedControl12addSegmentedERK5QIconRK7QString
libdtkwidget.so.2:_ZN3Dtk6Widget17DSegmentedControl12addSegmentedERK5QListI5QIconERK11QStringList
libdtkwidget.so.2:_ZN3Dtk6Widget17DSegmentedControl12addSegmentedERK7QString
libdtkwidget.so.2:_ZN3Dtk6Widget17DSegmentedControl13buttonClickedEv
libdtkwidget.so.2:_ZN3Dtk6Widget17DSegmentedControl14currentChangedEi
libdtkwidget.so.2:_ZN3Dtk6Widget17DSegmentedControl15insertSegmentedEiRK5QIconRK7QString
libdtkwidget.so.2:_ZN3Dtk6Widget17DSegmentedControl15insertSegmentedEiRK7QString
libdtkwidget.so.2:_ZN3Dtk6Widget17DSegmentedControl15removeSegmentedEi
libdtkwidget.so.2:_ZN3Dtk6Widget17DSegmentedControl15setCurrentIndexEi
libdtkwidget.so.2:_ZN3Dtk6Widget17DSegmentedControl16setAnimationTypeEN12QEasingCurve4TypeE
libdtkwidget.so.2:_ZN3Dtk6Widget17DSegmentedControl19currentTitleChangedE7QString
libdtkwidget.so.2:_ZN3Dtk6Widget17DSegmentedControl20setAnimationDurationEi
libdtkwidget.so.2:_ZN3Dtk6Widget17DSegmentedControl22setCurrentIndexByTitleERK7QString
libdtkwidget.so.2:_ZN3Dtk6Widget17DSegmentedControl23updateHighlightGeometryEb
libdtkwidget.so.2:_ZN3Dtk6Widget17DSegmentedControl24animationDurationChangedEi
libdtkwidget.so.2:_ZN3Dtk6Widget17DSegmentedControl5clearEv
libdtkwidget.so.2:_ZN3Dtk6Widget17DSegmentedControl7setIconEiRK5QIcon
libdtkwidget.so.2:_ZN3Dtk6Widget17DSegmentedControl7setTextEiRK7QString
libdtkwidget.so.2:_ZN3Dtk6Widget17DSegmentedControlC1EP7QWidget
libdtkwidget.so.2:_ZN3Dtk6Widget17DSegmentedControlC2EP7QWidget
libdtkwidget.so.2:_ZN3Dtk6Widget17DSwitchHeaderLine11qt_metacallEN11QMetaObject4CallEiPPv
libdtkwidget.so.2:_ZN3Dtk6Widget17DSwitchHeaderLine11qt_metacastEPKc
libdtkwidget.so.2:_ZN3Dtk6Widget17DSwitchHeaderLine14checkedChangedEb
libdtkwidget.so.2:_ZN3Dtk6Widget17DSwitchHeaderLine15mousePressEventEP11QMouseEvent
libdtkwidget.so.2:_ZN3Dtk6Widget17DSwitchHeaderLine9setExpandEb
libdtkwidget.so.2:_ZN3Dtk6Widget17DSwitchHeaderLineC1EP7QWidget
libdtkwidget.so.2:_ZN3Dtk6Widget17DSwitchHeaderLineC2EP7QWidget
libdtkwidget.so.2:_ZN3Dtk6Widget17DSwitchLineExpand11qt_metacallEN11QMetaObject4CallEiPPv
libdtkwidget.so.2:_ZN3Dtk6Widget17DSwitchLineExpand11qt_metacastEPKc
libdtkwidget.so.2:_ZN3Dtk6Widget17DSwitchLineExpand11resizeEventEP12QResizeEvent
libdtkwidget.so.2:_ZN3Dtk6Widget17DSwitchLineExpand6headerEv
libdtkwidget.so.2:_ZN3Dtk6Widget17DSwitchLineExpand8setTitleERK7QString
libdtkwidget.so.2:_ZN3Dtk6Widget17DSwitchLineExpand9setExpandEb
libdtkwidget.so.2:_ZN3Dtk6Widget17DSwitchLineExpand9setHeaderEP7QWidget
libdtkwidget.so.2:_ZN3Dtk6Widget17DSwitchLineExpandC1EP7QWidget
libdtkwidget.so.2:_ZN3Dtk6Widget17DSwitchLineExpandC2EP7QWidget
libdtkwidget.so.2:_ZN3Dtk6Widget17DVariantListModel10insertRowsEiiRK11QModelIndex
libdtkwidget.so.2:_ZN3Dtk6Widget17DVariantListModel10removeRowsEiiRK11QModelIndex
libdtkwidget.so.2:_ZN3Dtk6Widget17DVariantListModel7setDataERK11QModelIndexRK8QVarianti
libdtkwidget.so.2:_ZN3Dtk6Widget17DVariantListModelC1EP7QObject
libdtkwidget.so.2:_ZN3Dtk6Widget17DVariantListModelC2EP7QObject
libdtkwidget.so.2:_ZN3Dtk6Widget18DFlowLayoutPrivateC1EPNS0_11DFlowLayoutE
libdtkwidget.so.2:_ZN3Dtk6Widget18DFlowLayoutPrivateC2EPNS0_11DFlowLayoutE
libdtkwidget.so.2:_ZN3Dtk6Widget18DListWidgetPrivate4initEv
libdtkwidget.so.2:_ZN3Dtk6Widget18DListWidgetPrivateC1EPNS0_11DListWidgetE
libdtkwidget.so.2:_ZN3Dtk6Widget18DListWidgetPrivateC2EPNS0_11DListWidgetE
libdtkwidget.so.2:_ZN3Dtk6Widget18DListWidgetPrivateD0Ev
libdtkwidget.so.2:_ZN3Dtk6Widget18DListWidgetPrivateD1Ev
libdtkwidget.so.2:_ZN3Dtk6Widget18DListWidgetPrivateD2Ev
libdtkwidget.so.2:_ZN3Dtk6Widget18DMainWindowPrivate4initEv
libdtkwidget.so.2:_ZN3Dtk6Widget18DMainWindowPrivateC1EPNS0_11DMainWindowE
libdtkwidget.so.2:_ZN3Dtk6Widget18DMainWindowPrivateC2EPNS0_11DMainWindowE
libdtkwidget.so.2:_ZN3Dtk6Widget18DOptionListPrivate12insertOptionEiPNS0_7DOptionE
libdtkwidget.so.2:_ZN3Dtk6Widget18DOptionListPrivate18setCurrentSelectedERK7QString
libdtkwidget.so.2:_ZN3Dtk6Widget18DOptionListPrivate18setCurrentSelectedEi
libdtkwidget.so.2:_ZN3Dtk6Widget18DOptionListPrivate21_q_currentItemChangedEP15QListWidgetItemS3_
libdtkwidget.so.2:_ZN3Dtk6Widget18DOptionListPrivate4initEv
libdtkwidget.so.2:_ZN3Dtk6Widget18DOptionListPrivate9addOptionEPNS0_7DOptionE
libdtkwidget.so.2:_ZN3Dtk6Widget18DOptionListPrivateC1EPNS0_11DOptionListE
libdtkwidget.so.2:_ZN3Dtk6Widget18DOptionListPrivateC2EPNS0_11DOptionListE
libdtkwidget.so.2:_ZN3Dtk6Widget18DPushButtonPrivateC1EPNS0_11DPushButtonE
libdtkwidget.so.2:_ZN3Dtk6Widget18DPushButtonPrivateC2EPNS0_11DPushButtonE
libdtkwidget.so.2:_ZN3Dtk6Widget18DScrollAreaPrivate4initEv
libdtkwidget.so.2:_ZN3Dtk6Widget18DScrollAreaPrivateC1EPNS0_11DScrollAreaE
libdtkwidget.so.2:_ZN3Dtk6Widget18DScrollAreaPrivateC2EPNS0_11DScrollAreaE
libdtkwidget.so.2:_ZN3Dtk6Widget18DScrollAreaPrivateD0Ev
libdtkwidget.so.2:_ZN3Dtk6Widget18DScrollAreaPrivateD1Ev
libdtkwidget.so.2:_ZN3Dtk6Widget18DScrollAreaPrivateD2Ev
libdtkwidget.so.2:_ZN3Dtk6Widget18DSeparatorVertical11qt_metacallEN11QMetaObject4CallEiPPv
libdtkwidget.so.2:_ZN3Dtk6Widget18DSeparatorVertical11qt_metacastEPKc
libdtkwidget.so.2:_ZN3Dtk6Widget18DSeparatorVerticalC1EP7QWidget
libdtkwidget.so.2:_ZN3Dtk6Widget18DSeparatorVerticalC2EP7QWidget
libdtkwidget.so.2:_ZN3Dtk6Widget18DShortcutEditLabel10enterEventEP6QEvent
libdtkwidget.so.2:_ZN3Dtk6Widget18DShortcutEditLabel10leaveEventEP6QEvent
libdtkwidget.so.2:_ZN3Dtk6Widget18DShortcutEditLabel11qt_metacallEN11QMetaObject4CallEiPPv
libdtkwidget.so.2:_ZN3Dtk6Widget18DShortcutEditLabel11qt_metacastEPKc
libdtkwidget.so.2:_ZN3Dtk6Widget18DShortcutEditLabel12setEchoStateENS1_9EchoStateE
libdtkwidget.so.2:_ZN3Dtk6Widget18DShortcutEditLabel18colorSettingChangeEv
libdtkwidget.so.2:_ZN3Dtk6Widget18DShortcutEditLabelC1EP7QWidget
libdtkwidget.so.2:_ZN3Dtk6Widget18DShortcutEditLabelC2EP7QWidget
libdtkwidget.so.2:_ZN3Dtk6Widget18DSpinBox_getButtonERK7QString
libdtkwidget.so.2:_ZN3Dtk6Widget18DThumbnailProvider11qt_metacallEN11QMetaObject4CallEiPPv
libdtkwidget.so.2:_ZN3Dtk6Widget18DThumbnailProvider11qt_metacastEPKc
libdtkwidget.so.2:_ZN3Dtk6Widget18DThumbnailProvider12setSizeLimitERK9QMimeTypex
libdtkwidget.so.2:_ZN3Dtk6Widget18DThumbnailProvider15createThumbnailERK9QFileInfoNS1_4SizeE
libdtkwidget.so.2:_ZN3Dtk6Widget18DThumbnailProvider19setDefaultSizeLimitEx
libdtkwidget.so.2:_ZN3Dtk6Widget18DThumbnailProvider20appendToProduceQueueERK9QFileInfoNS1_4SizeESt8functionIFvRK7QStringEE
libdtkwidget.so.2:_ZN3Dtk6Widget18DThumbnailProvider20removeInProduceQueueERK9QFileInfoNS1_4SizeE
libdtkwidget.so.2:_ZN3Dtk6Widget18DThumbnailProvider3runEv
libdtkwidget.so.2:_ZN3Dtk6Widget18DThumbnailProvider8instanceEv
libdtkwidget.so.2:_ZN3Dtk6Widget18DThumbnailProviderC1EP7QObject
libdtkwidget.so.2:_ZN3Dtk6Widget18DThumbnailProviderC2EP7QObject
libdtkwidget.so.2:_ZN3Dtk6Widget18DThumbnailProviderD0Ev
libdtkwidget.so.2:_ZN3Dtk6Widget18DThumbnailProviderD1Ev
libdtkwidget.so.2:_ZN3Dtk6Widget18DThumbnailProviderD2Ev
libdtkwidget.so.2:_ZN3Dtk6Widget18DTickEffectPrivate13initDirectionEv
libdtkwidget.so.2:_ZN3Dtk6Widget18DTickEffectPrivate4initEv
libdtkwidget.so.2:_ZN3Dtk6Widget18DTickEffectPrivateC1EPNS0_11DTickEffectE
libdtkwidget.so.2:_ZN3Dtk6Widget18DTickEffectPrivateC2EPNS0_11DTickEffectE
libdtkwidget.so.2:_ZN3Dtk6Widget18DTickEffectPrivateD0Ev
libdtkwidget.so.2:_ZN3Dtk6Widget18DTickEffectPrivateD1Ev
libdtkwidget.so.2:_ZN3Dtk6Widget18DTickEffectPrivateD2Ev
libdtkwidget.so.2:_ZN3Dtk6Widget18DWindowCloseButton11qt_metacallEN11QMetaObject4CallEiPPv
libdtkwidget.so.2:_ZN3Dtk6Widget18DWindowCloseButton11qt_metacastEPKc
libdtkwidget.so.2:_ZN3Dtk6Widget18DWindowCloseButtonC1EP7QWidget
libdtkwidget.so.2:_ZN3Dtk6Widget18DWindowCloseButtonC2EP7QWidget
libdtkwidget.so.2:_ZN3Dtk6Widget18DWindowGroupLeader12removeWindowEP7QWidget
libdtkwidget.so.2:_ZN3Dtk6Widget18DWindowGroupLeader12removeWindowEP7QWindow
libdtkwidget.so.2:_ZN3Dtk6Widget18DWindowGroupLeader9addWindowEP7QWidget
libdtkwidget.so.2:_ZN3Dtk6Widget18DWindowGroupLeader9addWindowEP7QWindow
libdtkwidget.so.2:_ZN3Dtk6Widget18DWindowGroupLeaderC1Ej
libdtkwidget.so.2:_ZN3Dtk6Widget18DWindowGroupLeaderC2Ej
libdtkwidget.so.2:_ZN3Dtk6Widget18DWindowGroupLeaderD1Ev
libdtkwidget.so.2:_ZN3Dtk6Widget18DWindowGroupLeaderD2Ev
libdtkwidget.so.2:_ZN3Dtk6Widget19DAboutDialogPrivate10loadPixmapERK7QString
libdtkwidget.so.2:_ZN3Dtk6Widget19DAboutDialogPrivate15initWebsiteInfoEv
libdtkwidget.so.2:_ZN3Dtk6Widget19DAboutDialogPrivate18_q_onLinkActivatedERK7QString
libdtkwidget.so.2:_ZN3Dtk6Widget19DAboutDialogPrivate18updateWebsiteLabelEv
libdtkwidget.so.2:_ZN3Dtk6Widget19DAboutDialogPrivate26updateAcknowledgementLabelEv
libdtkwidget.so.2:_ZN3Dtk6Widget19DAboutDialogPrivate4initEv
libdtkwidget.so.2:_ZN3Dtk6Widget19DAboutDialogPrivateC1EPNS0_12DAboutDialogE
libdtkwidget.so.2:_ZN3Dtk6Widget19DAboutDialogPrivateC2EPNS0_12DAboutDialogE
libdtkwidget.so.2:_ZN3Dtk6Widget19DApplicationPrivate14loadTranslatorE5QListINS_4Core8DPathBufEERK7QStringS2_I7QLocaleE
libdtkwidget.so.2:_ZN3Dtk6Widget19DApplicationPrivate17loadDtkTranslatorE5QListI7QLocaleE
libdtkwidget.so.2:_ZN3Dtk6Widget19DApplicationPrivate18isUserManualExistsEv
libdtkwidget.so.2:_ZN3Dtk6Widget19DApplicationPrivate20resetWindowThemeTypeEP7QWidget
libdtkwidget.so.2:_ZN3Dtk6Widget19DApplicationPrivate23setSingleInstanceByDbusERK7QString
libdtkwidget.so.2:_ZN3Dtk6Widget19DApplicationPrivate25resetApplicationThemeTypeEv
libdtkwidget.so.2:_ZN3Dtk6Widget19DApplicationPrivate28setSingleInstanceBySemaphoreERK7QString
libdtkwidget.so.2:_ZN3Dtk6Widget19DApplicationPrivate8setThemeERK7QString
libdtkwidget.so.2:_ZN3Dtk6Widget19DApplicationPrivateC1EPNS0_12DApplicationE
libdtkwidget.so.2:_ZN3Dtk6Widget19DApplicationPrivateC2EPNS0_12DApplicationE
libdtkwidget.so.2:_ZN3Dtk6Widget19DApplicationPrivateD0Ev
libdtkwidget.so.2:_ZN3Dtk6Widget19DApplicationPrivateD1Ev
libdtkwidget.so.2:_ZN3Dtk6Widget19DApplicationPrivateD2Ev
libdtkwidget.so.2:_ZN3Dtk6Widget19DGraphicsClipEffect10setMarginsERK8QMargins
libdtkwidget.so.2:_ZN3Dtk6Widget19DGraphicsClipEffect11qt_metacallEN11QMetaObject4CallEiPPv
libdtkwidget.so.2:_ZN3Dtk6Widget19DGraphicsClipEffect11qt_metacastEPKc
libdtkwidget.so.2:_ZN3Dtk6Widget19DGraphicsClipEffect11setClipPathERK12QPainterPath
libdtkwidget.so.2:_ZN3Dtk6Widget19DGraphicsClipEffect14marginsChangedE8QMargins
libdtkwidget.so.2:_ZN3Dtk6Widget19DGraphicsClipEffect15clipPathChangedE12QPainterPath
libdtkwidget.so.2:_ZN3Dtk6Widget19DGraphicsClipEffect4drawEP8QPainter
libdtkwidget.so.2:_ZN3Dtk6Widget19DGraphicsClipEffectC1EP7QObject
libdtkwidget.so.2:_ZN3Dtk6Widget19DGraphicsClipEffectC2EP7QObject
libdtkwidget.so.2:_ZN3Dtk6Widget19DGraphicsGlowEffect11qt_metacallEN11QMetaObject4CallEiPPv
libdtkwidget.so.2:_ZN3Dtk6Widget19DGraphicsGlowEffect11qt_metacastEPKc
libdtkwidget.so.2:_ZN3Dtk6Widget19DGraphicsGlowEffect4drawEP8QPainter
libdtkwidget.so.2:_ZN3Dtk6Widget19DGraphicsGlowEffectC1EP7QObject
libdtkwidget.so.2:_ZN3Dtk6Widget19DGraphicsGlowEffectC2EP7QObject
libdtkwidget.so.2:_ZN3Dtk6Widget19DImageButtonPrivate10loadPixmapERK7QString
libdtkwidget.so.2:_ZN3Dtk6Widget19DImageButtonPrivate10updateIconEv
libdtkwidget.so.2:_ZN3Dtk6Widget19DImageButtonPrivate8setStateENS0_12DImageButton5StateE
libdtkwidget.so.2:_ZN3Dtk6Widget19DImageButtonPrivateC1EPNS0_12DImageButtonE
libdtkwidget.so.2:_ZN3Dtk6Widget19DImageButtonPrivateC2EPNS0_12DImageButtonE
libdtkwidget.so.2:_ZN3Dtk6Widget19DImageButtonPrivateD0Ev
libdtkwidget.so.2:_ZN3Dtk6Widget19DImageButtonPrivateD1Ev
libdtkwidget.so.2:_ZN3Dtk6Widget19DImageButtonPrivateD2Ev
libdtkwidget.so.2:_ZN3Dtk6Widget19DInputDialogPrivate4initEv
libdtkwidget.so.2:_ZN3Dtk6Widget19DInputDialogPrivateC1EPNS0_12DInputDialogE
libdtkwidget.so.2:_ZN3Dtk6Widget19DInputDialogPrivateC2EPNS0_12DInputDialogE
libdtkwidget.so.2:_ZN3Dtk6Widget19DPasswdEditAnimated11eventFilterEP7QObjectP6QEvent
libdtkwidget.so.2:_ZN3Dtk6Widget19DPasswdEditAnimated11qt_metacallEN11QMetaObject4CallEiPPv
libdtkwidget.so.2:_ZN3Dtk6Widget19DPasswdEditAnimated11qt_metacastEPKc
libdtkwidget.so.2:_ZN3Dtk6Widget19DPasswdEditAnimated11setEchoModeEN9QLineEdit8EchoModeE
libdtkwidget.so.2:_ZN3Dtk6Widget19DPasswdEditAnimated12alertChangedEb
libdtkwidget.so.2:_ZN3Dtk6Widget19DPasswdEditAnimated13setSubmitIconERK7QStringS4_S4_
libdtkwidget.so.2:_ZN3Dtk6Widget19DPasswdEditAnimated14invalidMessageEv
libdtkwidget.so.2:_ZN3Dtk6Widget19DPasswdEditAnimated16editFocusChangedEb
libdtkwidget.so.2:_ZN3Dtk6Widget19DPasswdEditAnimated16loadingAnimationEv
libdtkwidget.so.2:_ZN3Dtk6Widget19DPasswdEditAnimated17setLoadAnimEnableEb
libdtkwidget.so.2:_ZN3Dtk6Widget19DPasswdEditAnimated18loadingEffectColorEv
libdtkwidget.so.2:_ZN3Dtk6Widget19DPasswdEditAnimated18setEyeButtonEnableEb
libdtkwidget.so.2:_ZN3Dtk6Widget19DPasswdEditAnimated19updateAlertPositionEv
libdtkwidget.so.2:_ZN3Dtk6Widget19DPasswdEditAnimated21keyboardButtonClickedEv
libdtkwidget.so.2:_ZN3Dtk6Widget19DPasswdEditAnimated21setLoadingEffectColorERK6QColor
libdtkwidget.so.2:_ZN3Dtk6Widget19DPasswdEditAnimated21setSubmitButtonEnableEb
libdtkwidget.so.2:_ZN3Dtk6Widget19DPasswdEditAnimated23setKeyboardButtonEnableEb
libdtkwidget.so.2:_ZN3Dtk6Widget19DPasswdEditAnimated26setCapslockIndicatorEnableEb
libdtkwidget.so.2:_ZN3Dtk6Widget19DPasswdEditAnimated5abortEv
libdtkwidget.so.2:_ZN3Dtk6Widget19DPasswdEditAnimated5alertEv
libdtkwidget.so.2:_ZN3Dtk6Widget19DPasswdEditAnimated6submitERK7QString
libdtkwidget.so.2:_ZN3Dtk6Widget19DPasswdEditAnimated8lineEditEv
libdtkwidget.so.2:_ZN3Dtk6Widget19DPasswdEditAnimated9abortAuthEv
libdtkwidget.so.2:_ZN3Dtk6Widget19DPasswdEditAnimated9hideAlertEv
libdtkwidget.so.2:_ZN3Dtk6Widget19DPasswdEditAnimated9hideEventEP10QHideEvent
libdtkwidget.so.2:_ZN3Dtk6Widget19DPasswdEditAnimated9showAlertERK7QString
libdtkwidget.so.2:_ZN3Dtk6Widget19DPasswdEditAnimated9showEventEP10QShowEvent
libdtkwidget.so.2:_ZN3Dtk6Widget19DPasswdEditAnimatedC1EP7QWidget
libdtkwidget.so.2:_ZN3Dtk6Widget19DPasswdEditAnimatedC2EP7QWidget
libdtkwidget.so.2:_ZN3Dtk6Widget19DSegmentedHighlight11qt_metacallEN11QMetaObject4CallEiPPv
libdtkwidget.so.2:_ZN3Dtk6Widget19DSegmentedHighlight11qt_metacastEPKc
libdtkwidget.so.2:_ZN3Dtk6Widget19DSegmentedHighlightC1EP7QWidget
libdtkwidget.so.2:_ZN3Dtk6Widget19DSegmentedHighlightC2EP7QWidget
libdtkwidget.so.2:_ZN3Dtk6Widget19DStackWidgetPrivate15setCurrentIndexEi
libdtkwidget.so.2:_ZN3Dtk6Widget19DStackWidgetPrivate4initEv
libdtkwidget.so.2:_ZN3Dtk6Widget19DStackWidgetPrivateC1EPNS0_12DStackWidgetE
libdtkwidget.so.2:_ZN3Dtk6Widget19DStackWidgetPrivateC2EPNS0_12DStackWidgetE
libdtkwidget.so.2:_ZN3Dtk6Widget19DStackWidgetPrivateD0Ev
libdtkwidget.so.2:_ZN3Dtk6Widget19DStackWidgetPrivateD1Ev
libdtkwidget.so.2:_ZN3Dtk6Widget19DStackWidgetPrivateD2Ev
libdtkwidget.so.2:_ZN3Dtk6Widget19DSvgRendererPrivateC1EPNS_4Core7DObjectE
libdtkwidget.so.2:_ZN3Dtk6Widget19DSvgRendererPrivateC2EPNS_4Core7DObjectE
libdtkwidget.so.2:_ZN3Dtk6Widget19DVideoWidgetPrivateC1EPNS0_12DVideoWidgetE
libdtkwidget.so.2:_ZN3Dtk6Widget19DVideoWidgetPrivateC2EPNS0_12DVideoWidgetE
libdtkwidget.so.2:_ZN3Dtk6Widget19DWindowOptionButton11qt_metacallEN11QMetaObject4CallEiPPv
libdtkwidget.so.2:_ZN3Dtk6Widget19DWindowOptionButton11qt_metacastEPKc
libdtkwidget.so.2:_ZN3Dtk6Widget19DWindowOptionButtonC1EP7QWidget
libdtkwidget.so.2:_ZN3Dtk6Widget19DWindowOptionButtonC2EP7QWidget
libdtkwidget.so.2:_ZN3Dtk6Widget20CrumbObjectInterface10drawObjectEP8QPainterRK6QRectFP13QTextDocumentiRK11QTextFormat
libdtkwidget.so.2:_ZN3Dtk6Widget20CrumbObjectInterface11qt_metacallEN11QMetaObject4CallEiPPv
libdtkwidget.so.2:_ZN3Dtk6Widget20CrumbObjectInterface11qt_metacastEPKc
libdtkwidget.so.2:_ZN3Dtk6Widget20CrumbObjectInterface13intrinsicSizeEP13QTextDocumentiRK11QTextFormat
libdtkwidget.so.2:_ZN3Dtk6Widget20DIpv4LineEditPrivate20_q_setIpLineEditTextERK7QString
libdtkwidget.so.2:_ZN3Dtk6Widget20DIpv4LineEditPrivate21_q_updateLineEditTextEv
libdtkwidget.so.2:_ZN3Dtk6Widget20DIpv4LineEditPrivate4initEv
libdtkwidget.so.2:_ZN3Dtk6Widget20DIpv4LineEditPrivate7getEditEv
libdtkwidget.so.2:_ZN3Dtk6Widget20DIpv4LineEditPrivate8getLabelEv
libdtkwidget.so.2:_ZN3Dtk6Widget20DIpv4LineEditPrivate8setFocusEb
libdtkwidget.so.2:_ZN3Dtk6Widget20DIpv4LineEditPrivateC1EPNS0_13DIpv4LineEditE
libdtkwidget.so.2:_ZN3Dtk6Widget20DIpv4LineEditPrivateC2EPNS0_13DIpv4LineEditE
libdtkwidget.so.2:_ZN3Dtk6Widget20DMPRISControlPrivate16_q_loadMPRISPathERK7QString
libdtkwidget.so.2:_ZN3Dtk6Widget20DMPRISControlPrivate16_q_onNextClickedEv
libdtkwidget.so.2:_ZN3Dtk6Widget20DMPRISControlPrivate16_q_onPlayClickedEv
libdtkwidget.so.2:_ZN3Dtk6Widget20DMPRISControlPrivate16_q_onPrevClickedEv
libdtkwidget.so.2:_ZN3Dtk6Widget20DMPRISControlPrivate17_q_onPauseClickedEv
libdtkwidget.so.2:_ZN3Dtk6Widget20DMPRISControlPrivate18_q_removeMPRISPathERK7QString
libdtkwidget.so.2:_ZN3Dtk6Widget20DMPRISControlPrivate20_q_onMetaDataChangedEv
libdtkwidget.so.2:_ZN3Dtk6Widget20DMPRISControlPrivate22_q_onCanControlChangedEb
libdtkwidget.so.2:_ZN3Dtk6Widget20DMPRISControlPrivate26_q_onPlaybackStatusChangedEv
libdtkwidget.so.2:_ZN3Dtk6Widget20DMPRISControlPrivate4initEv
libdtkwidget.so.2:_ZN3Dtk6Widget20DMPRISControlPrivateC1EPNS0_13DMPRISControlE
libdtkwidget.so.2:_ZN3Dtk6Widget20DMPRISControlPrivateC2EPNS0_13DMPRISControlE
libdtkwidget.so.2:_ZN3Dtk6Widget20DPasswordEditPrivate17_q_toggleEchoModeEv
libdtkwidget.so.2:_ZN3Dtk6Widget20DPasswordEditPrivate4initEv
libdtkwidget.so.2:_ZN3Dtk6Widget20DPasswordEditPrivateC1EPNS0_13DPasswordEditE
libdtkwidget.so.2:_ZN3Dtk6Widget20DPasswordEditPrivateC2EPNS0_13DPasswordEditE
libdtkwidget.so.2:_ZN3Dtk6Widget20DPictureSequenceView11qt_metacallEN11QMetaObject4CallEiPPv
libdtkwidget.so.2:_ZN3Dtk6Widget20DPictureSequenceView11qt_metacastEPKc
libdtkwidget.so.2:_ZN3Dtk6Widget20DPictureSequenceView13setSingleShotEb
libdtkwidget.so.2:_ZN3Dtk6Widget20DPictureSequenceView18setPictureSequenceERK11QStringListb
libdtkwidget.so.2:_ZN3Dtk6Widget20DPictureSequenceView18setPictureSequenceERK5QListI7QPixmapEb
libdtkwidget.so.2:_ZN3Dtk6Widget20DPictureSequenceView18setPictureSequenceERK7QStringRK5QPairIiiEib
libdtkwidget.so.2:_ZN3Dtk6Widget20DPictureSequenceView4playEv
libdtkwidget.so.2:_ZN3Dtk6Widget20DPictureSequenceView4stopEv
libdtkwidget.so.2:_ZN3Dtk6Widget20DPictureSequenceView5pauseEv
libdtkwidget.so.2:_ZN3Dtk6Widget20DPictureSequenceView8setSpeedEi
libdtkwidget.so.2:_ZN3Dtk6Widget20DPictureSequenceViewC1EP7QWidget
libdtkwidget.so.2:_ZN3Dtk6Widget20DPictureSequenceViewC2EP7QWidget
libdtkwidget.so.2:_ZN3Dtk6Widget20DSeparatorHorizontal11qt_metacallEN11QMetaObject4CallEiPPv
libdtkwidget.so.2:_ZN3Dtk6Widget20DSeparatorHorizontal11qt_metacastEPKc
libdtkwidget.so.2:_ZN3Dtk6Widget20DSeparatorHorizontalC1EP7QWidget
libdtkwidget.so.2:_ZN3Dtk6Widget20DSeparatorHorizontalC2EP7QWidget
libdtkwidget.so.2:_ZN3Dtk6Widget20DStyleOptionLineEdit4initEP7QWidget
libdtkwidget.so.2:_ZN3Dtk6Widget20DSwitchButtonPrivate4initEv
libdtkwidget.so.2:_ZN3Dtk6Widget20DSwitchButtonPrivateC1EPNS0_13DSwitchButtonE
libdtkwidget.so.2:_ZN3Dtk6Widget20DSwitchButtonPrivateC2EPNS0_13DSwitchButtonE
libdtkwidget.so.2:_ZN3Dtk6Widget20DSwitchButtonPrivateD0Ev
libdtkwidget.so.2:_ZN3Dtk6Widget20DSwitchButtonPrivateD1Ev
libdtkwidget.so.2:_ZN3Dtk6Widget20DSwitchButtonPrivateD2Ev
libdtkwidget.so.2:_ZN3Dtk6Widget20DTrashManagerPrivate15removeFileOrDirERK7QString
libdtkwidget.so.2:_ZN3Dtk6Widget20DTrashManagerPrivate18removeFromIteratorER12QDirIterator
libdtkwidget.so.2:_ZN3Dtk6Widget20DWindowManagerHelper11qt_metacallEN11QMetaObject4CallEiPPv
libdtkwidget.so.2:_ZN3Dtk6Widget20DWindowManagerHelper11qt_metacastEPKc
libdtkwidget.so.2:_ZN3Dtk6Widget20DWindowManagerHelper17getMotifFunctionsEPK7QWindow
libdtkwidget.so.2:_ZN3Dtk6Widget20DWindowManagerHelper17setMotifFunctionsEPK7QWindow6QFlagsINS1_13MotifFunctionEE
libdtkwidget.so.2:_ZN3Dtk6Widget20DWindowManagerHelper17setMotifFunctionsEPK7QWindow6QFlagsINS1_13MotifFunctionEEb
libdtkwidget.so.2:_ZN3Dtk6Widget20DWindowManagerHelper17windowListChangedEv
libdtkwidget.so.2:_ZN3Dtk6Widget20DWindowManagerHelper19getMotifDecorationsEPK7QWindow
libdtkwidget.so.2:_ZN3Dtk6Widget20DWindowManagerHelper19hasCompositeChangedEv
libdtkwidget.so.2:_ZN3Dtk6Widget20DWindowManagerHelper19setMotifDecorationsEPK7QWindow6QFlagsINS1_15MotifDecorationEE
libdtkwidget.so.2:_ZN3Dtk6Widget20DWindowManagerHelper19setMotifDecorationsEPK7QWindow6QFlagsINS1_15MotifDecorationEEb
libdtkwidget.so.2:_ZN3Dtk6Widget20DWindowManagerHelper20hasBlurWindowChangedEv
libdtkwidget.so.2:_ZN3Dtk6Widget20DWindowManagerHelper20hasNoTitlebarChangedEv
libdtkwidget.so.2:_ZN3Dtk6Widget20DWindowManagerHelper20windowManagerChangedEv
libdtkwidget.so.2:_ZN3Dtk6Widget20DWindowManagerHelper21popupSystemWindowMenuEPK7QWindow
libdtkwidget.so.2:_ZN3Dtk6Widget20DWindowManagerHelper25windowMotifWMHintsChangedEj
libdtkwidget.so.2:_ZN3Dtk6Widget20DWindowManagerHelper8instanceEv
libdtkwidget.so.2:_ZN3Dtk6Widget20DWindowManagerHelperC1EP7QObject
libdtkwidget.so.2:_ZN3Dtk6Widget20DWindowManagerHelperC2EP7QObject
libdtkwidget.so.2:_ZN3Dtk6Widget20DWindowManagerHelperD0Ev
libdtkwidget.so.2:_ZN3Dtk6Widget20DWindowManagerHelperD1Ev
libdtkwidget.so.2:_ZN3Dtk6Widget20DWindowManagerHelperD2Ev
libdtkwidget.so.2:_ZN3Dtk6Widget21DDoubleSpinBoxPrivate20_q_resizeInsideFrameERK5QSize
libdtkwidget.so.2:_ZN3Dtk6Widget21DDoubleSpinBoxPrivate4initEv
libdtkwidget.so.2:_ZN3Dtk6Widget21DDoubleSpinBoxPrivateC1EPNS0_14DDoubleSpinBoxE
libdtkwidget.so.2:_ZN3Dtk6Widget21DDoubleSpinBoxPrivateC2EPNS0_14DDoubleSpinBoxE
libdtkwidget.so.2:_ZN3Dtk6Widget21DPageIndicatorPrivate12previousPageEv
libdtkwidget.so.2:_ZN3Dtk6Widget21DPageIndicatorPrivate12setPageCountEi
libdtkwidget.so.2:_ZN3Dtk6Widget21DPageIndicatorPrivate14setCurrentPageEi
libdtkwidget.so.2:_ZN3Dtk6Widget21DPageIndicatorPrivate8nextPageEv
libdtkwidget.so.2:_ZN3Dtk6Widget21DPageIndicatorPrivateC1EPNS0_14DPageIndicatorE
libdtkwidget.so.2:_ZN3Dtk6Widget21DPageIndicatorPrivateC2EPNS0_14DPageIndicatorE
libdtkwidget.so.2:_ZN3Dtk6Widget21DPlatformWindowHandle11eventFilterEP7QObjectP6QEvent
libdtkwidget.so.2:_ZN3Dtk6Widget21DPlatformWindowHandle11qt_metacallEN11QMetaObject4CallEiPPv
libdtkwidget.so.2:_ZN3Dtk6Widget21DPlatformWindowHandle11qt_metacastEPKc
libdtkwidget.so.2:_ZN3Dtk6Widget21DPlatformWindowHandle11setClipPathERK12QPainterPath
libdtkwidget.so.2:_ZN3Dtk6Widget21DPlatformWindowHandle12setFrameMaskERK7QRegion
libdtkwidget.so.2:_ZN3Dtk6Widget21DPlatformWindowHandle13isEnabledDXcbEPK7QWidget
libdtkwidget.so.2:_ZN3Dtk6Widget21DPlatformWindowHandle13isEnabledDXcbEPK7QWindow
libdtkwidget.so.2:_ZN3Dtk6Widget21DPlatformWindowHandle13pluginVersionEv
libdtkwidget.so.2:_ZN3Dtk6Widget21DPlatformWindowHandle14setBorderColorERK6QColor
libdtkwidget.so.2:_ZN3Dtk6Widget21DPlatformWindowHandle14setBorderWidthEi
libdtkwidget.so.2:_ZN3Dtk6Widget21DPlatformWindowHandle14setShadowColorERK6QColor
libdtkwidget.so.2:_ZN3Dtk6Widget21DPlatformWindowHandle15clipPathChangedEv
libdtkwidget.so.2:_ZN3Dtk6Widget21DPlatformWindowHandle15setShadowOffsetERK6QPoint
libdtkwidget.so.2:_ZN3Dtk6Widget21DPlatformWindowHandle15setShadowRadiusEi
libdtkwidget.so.2:_ZN3Dtk6Widget21DPlatformWindowHandle15setWindowRadiusEi
libdtkwidget.so.2:_ZN3Dtk6Widget21DPlatformWindowHandle16frameMaskChangedEv
libdtkwidget.so.2:_ZN3Dtk6Widget21DPlatformWindowHandle18borderColorChangedEv
libdtkwidget.so.2:_ZN3Dtk6Widget21DPlatformWindowHandle18borderWidthChangedEv
libdtkwidget.so.2:_ZN3Dtk6Widget21DPlatformWindowHandle18isEnableNoTitlebarEPK7QWindow
libdtkwidget.so.2:_ZN3Dtk6Widget21DPlatformWindowHandle18shadowColorChangedEv
libdtkwidget.so.2:_ZN3Dtk6Widget21DPlatformWindowHandle19enableDXcbForWindowEP7QWidget
libdtkwidget.so.2:_ZN3Dtk6Widget21DPlatformWindowHandle19enableDXcbForWindowEP7QWidgetb
libdtkwidget.so.2:_ZN3Dtk6Widget21DPlatformWindowHandle19enableDXcbForWindowEP7QWindow
libdtkwidget.so.2:_ZN3Dtk6Widget21DPlatformWindowHandle19enableDXcbForWindowEP7QWindowb
libdtkwidget.so.2:_ZN3Dtk6Widget21DPlatformWindowHandle19frameMarginsChangedEv
libdtkwidget.so.2:_ZN3Dtk6Widget21DPlatformWindowHandle19setEnableBlurWindowEb
libdtkwidget.so.2:_ZN3Dtk6Widget21DPlatformWindowHandle19setEnableSystemMoveEb
libdtkwidget.so.2:_ZN3Dtk6Widget21DPlatformWindowHandle19shadowOffsetChangedEv
libdtkwidget.so.2:_ZN3Dtk6Widget21DPlatformWindowHandle19shadowRadiusChangedEv
libdtkwidget.so.2:_ZN3Dtk6Widget21DPlatformWindowHandle19windowRadiusChangedEv
libdtkwidget.so.2:_ZN3Dtk6Widget21DPlatformWindowHandle21setEnableSystemResizeEb
libdtkwidget.so.2:_ZN3Dtk6Widget21DPlatformWindowHandle21setWindowBlurAreaByWMEP7QWidgetRK5QListI12QPainterPathE
libdtkwidget.so.2:_ZN3Dtk6Widget21DPlatformWindowHandle21setWindowBlurAreaByWMEP7QWidgetRK7QVectorINS1_10WMBlurAreaEE
libdtkwidget.so.2:_ZN3Dtk6Widget21DPlatformWindowHandle21setWindowBlurAreaByWMEP7QWindowRK5QListI12QPainterPathE
libdtkwidget.so.2:_ZN3Dtk6Widget21DPlatformWindowHandle21setWindowBlurAreaByWMEP7QWindowRK7QVectorINS1_10WMBlurAreaEE
libdtkwidget.so.2:_ZN3Dtk6Widget21DPlatformWindowHandle21setWindowBlurAreaByWMERK5QListI12QPainterPathE
libdtkwidget.so.2:_ZN3Dtk6Widget21DPlatformWindowHandle21setWindowBlurAreaByWMERK7QVectorINS1_10WMBlurAreaEE
libdtkwidget.so.2:_ZN3Dtk6Widget21DPlatformWindowHandle23enableBlurWindowChangedEv
libdtkwidget.so.2:_ZN3Dtk6Widget21DPlatformWindowHandle23enableSystemMoveChangedEv
libdtkwidget.so.2:_ZN3Dtk6Widget21DPlatformWindowHandle24setTranslucentBackgroundEb
libdtkwidget.so.2:_ZN3Dtk6Widget21DPlatformWindowHandle25enableSystemResizeChangedEv
libdtkwidget.so.2:_ZN3Dtk6Widget21DPlatformWindowHandle26setAutoInputMaskByClipPathEb
libdtkwidget.so.2:_ZN3Dtk6Widget21DPlatformWindowHandle27connectHasBlurWindowChangedEP7QObjectSt8functionIFvvEE
libdtkwidget.so.2:_ZN3Dtk6Widget21DPlatformWindowHandle28setEnableNoTitlebarForWindowEP7QWindowb
libdtkwidget.so.2:_ZN3Dtk6Widget21DPlatformWindowHandle28translucentBackgroundChangedEv
libdtkwidget.so.2:_ZN3Dtk6Widget21DPlatformWindowHandle30autoInputMaskByClipPathChangedEv
libdtkwidget.so.2:_ZN3Dtk6Widget21DPlatformWindowHandle30setDisableWindowOverrideCursorEP7QWindowb
libdtkwidget.so.2:_ZN3Dtk6Widget21DPlatformWindowHandle33connectWindowManagerChangedSignalEP7QObjectSt8functionIFvvEE
libdtkwidget.so.2:_ZN3Dtk6Widget21DPlatformWindowHandleC1EP7QWidgetP7QObject
libdtkwidget.so.2:_ZN3Dtk6Widget21DPlatformWindowHandleC1EP7QWindowP7QObject
libdtkwidget.so.2:_ZN3Dtk6Widget21DPlatformWindowHandleC2EP7QWidgetP7QObject
libdtkwidget.so.2:_ZN3Dtk6Widget21DPlatformWindowHandleC2EP7QWindowP7QObject
libdtkwidget.so.2:_ZN3Dtk6Widget21DRegionMonitorPrivate11_q_KeyPressERK7QStringiiS4_
libdtkwidget.so.2:_ZN3Dtk6Widget21DRegionMonitorPrivate13_q_CursorMoveEiiRK7QString
libdtkwidget.so.2:_ZN3Dtk6Widget21DRegionMonitorPrivate13_q_KeyReleaseERK7QStringiiS4_
libdtkwidget.so.2:_ZN3Dtk6Widget21DRegionMonitorPrivate14_q_ButtonPressEiiiRK7QString
libdtkwidget.so.2:_ZN3Dtk6Widget21DRegionMonitorPrivate16_q_ButtonReleaseEiiiRK7QString
libdtkwidget.so.2:_ZN3Dtk6Widget21DRegionMonitorPrivate21registerMonitorRegionEv
libdtkwidget.so.2:_ZN3Dtk6Widget21DRegionMonitorPrivate23unregisterMonitorRegionEv
libdtkwidget.so.2:_ZN3Dtk6Widget21DRegionMonitorPrivate4initEv
libdtkwidget.so.2:_ZN3Dtk6Widget21DRegionMonitorPrivateC1EPNS0_14DRegionMonitorE
libdtkwidget.so.2:_ZN3Dtk6Widget21DRegionMonitorPrivateC2EPNS0_14DRegionMonitorE
libdtkwidget.so.2:_ZN3Dtk6Widget21DRegionMonitorPrivateD0Ev
libdtkwidget.so.2:_ZN3Dtk6Widget21DRegionMonitorPrivateD1Ev
libdtkwidget.so.2:_ZN3Dtk6Widget21DRegionMonitorPrivateD2Ev
libdtkwidget.so.2:_ZN3Dtk6Widget21DWaterProgressPrivate12resizePixmapE5QSize
libdtkwidget.so.2:_ZN3Dtk6Widget21DWaterProgressPrivate5paintEP8QPainter
libdtkwidget.so.2:_ZN3Dtk6Widget21DWaterProgressPrivate6initUIEv
libdtkwidget.so.2:_ZN3Dtk6Widget21DWaterProgressPrivate8setValueEi
libdtkwidget.so.2:_ZN3Dtk6Widget21createUnsupportHandleEP7QObject
libdtkwidget.so.2:_ZN3Dtk6Widget22DAbstractDialogPrivate4initEv
libdtkwidget.so.2:_ZN3Dtk6Widget22DAbstractDialogPrivateC1EPNS0_15DAbstractDialogE
libdtkwidget.so.2:_ZN3Dtk6Widget22DAbstractDialogPrivateC2EPNS0_15DAbstractDialogE
libdtkwidget.so.2:_ZN3Dtk6Widget22DArrowRectanglePrivate10paintEventEP11QPaintEvent
libdtkwidget.so.2:_ZN3Dtk6Widget22DArrowRectanglePrivate10setContentEP7QWidget
libdtkwidget.so.2:_ZN3Dtk6Widget22DArrowRectanglePrivate11resizeEventEP12QResizeEvent
libdtkwidget.so.2:_ZN3Dtk6Widget22DArrowRectanglePrivate12verticalMoveEii
libdtkwidget.so.2:_ZN3Dtk6Widget22DArrowRectanglePrivate13radiusEnabledEv
libdtkwidget.so.2:_ZN3Dtk6Widget22DArrowRectanglePrivate14horizontalMoveEii
libdtkwidget.so.2:_ZN3Dtk6Widget22DArrowRectanglePrivate14updateClipPathEv
libdtkwidget.so.2:_ZN3Dtk6Widget22DArrowRectanglePrivate16getTopCornerPathEv
libdtkwidget.so.2:_ZN3Dtk6Widget22DArrowRectanglePrivate17currentScreenRectEii
libdtkwidget.so.2:_ZN3Dtk6Widget22DArrowRectanglePrivate17getLeftCornerPathEv
libdtkwidget.so.2:_ZN3Dtk6Widget22DArrowRectanglePrivate17resizeWithContentEv
libdtkwidget.so.2:_ZN3Dtk6Widget22DArrowRectanglePrivate18getRightCornerPathEv
libdtkwidget.so.2:_ZN3Dtk6Widget22DArrowRectanglePrivate19getBottomCornerPathEv
libdtkwidget.so.2:_ZN3Dtk6Widget22DArrowRectanglePrivate4initENS0_15DArrowRectangle9FloatModeE
libdtkwidget.so.2:_ZN3Dtk6Widget22DArrowRectanglePrivate4showEii
libdtkwidget.so.2:_ZN3Dtk6Widget22DArrowRectanglePrivateC1ENS0_15DArrowRectangle14ArrowDirectionEPS2_
libdtkwidget.so.2:_ZN3Dtk6Widget22DArrowRectanglePrivateC2ENS0_15DArrowRectangle14ArrowDirectionEPS2_
libdtkwidget.so.2:_ZN3Dtk6Widget22DCircleProgressPrivate5paintEP8QPainter
libdtkwidget.so.2:_ZN3Dtk6Widget22DCircleProgressPrivateC1EPNS0_15DCircleProgressE
libdtkwidget.so.2:_ZN3Dtk6Widget22DCircleProgressPrivateC2EPNS0_15DCircleProgressE
libdtkwidget.so.2:_ZN3Dtk6Widget22DSettingsWidgetFactory11qt_metacallEN11QMetaObject4CallEiPPv
libdtkwidget.so.2:_ZN3Dtk6Widget22DSettingsWidgetFactory11qt_metacastEPKc
libdtkwidget.so.2:_ZN3Dtk6Widget22DSettingsWidgetFactory12createWidgetE8QPointerINS_4Core15DSettingsOptionEE
libdtkwidget.so.2:_ZN3Dtk6Widget22DSettingsWidgetFactory12createWidgetERK10QByteArray8QPointerINS_4Core15DSettingsOptionEE
libdtkwidget.so.2:_ZN3Dtk6Widget22DSettingsWidgetFactory14registerWidgetERK7QStringSt8functionIFP7QWidgetP7QObjectEE
libdtkwidget.so.2:_ZN3Dtk6Widget22DSettingsWidgetFactory20createTwoColumWidgetEPNS_4Core15DSettingsOptionEP7QWidget
libdtkwidget.so.2:_ZN3Dtk6Widget22DSettingsWidgetFactory20createTwoColumWidgetERK10QByteArrayPNS_4Core15DSettingsOptionEP7QWidget
libdtkwidget.so.2:_ZN3Dtk6Widget22DSettingsWidgetFactoryC1EP7QObject
libdtkwidget.so.2:_ZN3Dtk6Widget22DSettingsWidgetFactoryC2EP7QObject
libdtkwidget.so.2:_ZN3Dtk6Widget22DSettingsWidgetFactoryD0Ev
libdtkwidget.so.2:_ZN3Dtk6Widget22DSettingsWidgetFactoryD1Ev
libdtkwidget.so.2:_ZN3Dtk6Widget22DSettingsWidgetFactoryD2Ev
libdtkwidget.so.2:_ZN3Dtk6Widget22DSimpleListViewPrivate14getSearchItemsE5QListIPNS0_15DSimpleListItemEE
libdtkwidget.so.2:_ZN3Dtk6Widget22DSimpleListViewPrivate17sortItemsByColumnEib
libdtkwidget.so.2:_ZN3Dtk6Widget22DSimpleListViewPrivate18getTopRenderOffsetEv
libdtkwidget.so.2:_ZN3Dtk6Widget22DSimpleListViewPrivate19getItemsTotalHeightEv
libdtkwidget.so.2:_ZN3Dtk6Widget23DFileChooserEditPrivate24_q_showFileChooserDialogEv
libdtkwidget.so.2:_ZN3Dtk6Widget23DFileChooserEditPrivate4initEv
libdtkwidget.so.2:_ZN3Dtk6Widget23DFileChooserEditPrivateC1EPNS0_16DFileChooserEditE
libdtkwidget.so.2:_ZN3Dtk6Widget23DFileChooserEditPrivateC2EPNS0_16DFileChooserEditE
libdtkwidget.so.2:_ZN3Dtk6Widget24DBlurEffectWidgetPrivate12setMaskAlphaEh
libdtkwidget.so.2:_ZN3Dtk6Widget24DBlurEffectWidgetPrivate12setMaskColorERK6QColor
libdtkwidget.so.2:_ZN3Dtk6Widget24DBlurEffectWidgetPrivate20updateWindowBlurAreaEP7QWidget
libdtkwidget.so.2:_ZN3Dtk6Widget24DBlurEffectWidgetPrivate20updateWindowBlurAreaEv
libdtkwidget.so.2:_ZN3Dtk6Widget24DBlurEffectWidgetPrivate25addToBlurEffectWidgetHashEv
libdtkwidget.so.2:_ZN3Dtk6Widget24DBlurEffectWidgetPrivate30removeFromBlurEffectWidgetHashEv
libdtkwidget.so.2:_ZN3Dtk6Widget24DBlurEffectWidgetPrivateC1EPNS0_17DBlurEffectWidgetE
libdtkwidget.so.2:_ZN3Dtk6Widget24DBlurEffectWidgetPrivateC2EPNS0_17DBlurEffectWidgetE
libdtkwidget.so.2:_ZN3Dtk6Widget24DBorderlessWidgetPrivate21updateContentsMarginsEv
libdtkwidget.so.2:_ZN3Dtk6Widget24DBorderlessWidgetPrivate4initEv
libdtkwidget.so.2:_ZN3Dtk6Widget24DBorderlessWidgetPrivateC1EPNS0_17DBorderlessWidgetE
libdtkwidget.so.2:_ZN3Dtk6Widget24DBorderlessWidgetPrivateC2EPNS0_17DBorderlessWidgetE
libdtkwidget.so.2:_ZN3Dtk6Widget24DBorderlessWindowPrivate4initEv
libdtkwidget.so.2:_ZN3Dtk6Widget24DBorderlessWindowPrivateC1EPNS0_17DBorderlessWindowE
libdtkwidget.so.2:_ZN3Dtk6Widget24DBorderlessWindowPrivateC2EPNS0_17DBorderlessWindowE
libdtkwidget.so.2:_ZN3Dtk6Widget24DClipEffectWidgetPrivateC1EPNS0_17DClipEffectWidgetE
libdtkwidget.so.2:_ZN3Dtk6Widget24DClipEffectWidgetPrivateC2EPNS0_17DClipEffectWidgetE
libdtkwidget.so.2:_ZN3Dtk6Widget24DFileIconProviderPrivate4initEv
libdtkwidget.so.2:_ZN3Dtk6Widget24DFileIconProviderPrivateC1EPNS0_17DFileIconProviderE
libdtkwidget.so.2:_ZN3Dtk6Widget24DFileIconProviderPrivateC2EPNS0_17DFileIconProviderE
libdtkwidget.so.2:_ZN3Dtk6Widget24DLoadingIndicatorPrivate14setLoadingItemEP13QGraphicsItem
libdtkwidget.so.2:_ZN3Dtk6Widget24DLoadingIndicatorPrivate4initEv
libdtkwidget.so.2:_ZN3Dtk6Widget24DLoadingIndicatorPrivateC1EPNS0_17DLoadingIndicatorE
libdtkwidget.so.2:_ZN3Dtk6Widget24DLoadingIndicatorPrivateC2EPNS0_17DLoadingIndicatorE
libdtkwidget.so.2:_ZN3Dtk6Widget24createSliderOptionHandleEP7QObject
libdtkwidget.so.2:_ZN3Dtk6Widget25DStyleOptionSuggestButton4initEP7QWidget
libdtkwidget.so.2:_ZN3Dtk6Widget25DThumbnailProviderPrivate4initEv
libdtkwidget.so.2:_ZN3Dtk6Widget25DThumbnailProviderPrivateC1EPNS0_18DThumbnailProviderE
libdtkwidget.so.2:_ZN3Dtk6Widget25DThumbnailProviderPrivateC2EPNS0_18DThumbnailProviderE
libdtkwidget.so.2:_ZN3Dtk6Widget25DWindowGroupLeaderPrivate17ensureGroupLeaderEv
libdtkwidget.so.2:_ZN3Dtk6Widget25DWindowGroupLeaderPrivate20setWindowGroupLeaderEjj
libdtkwidget.so.2:_ZN3Dtk6Widget26DGraphicsClipEffectPrivateC1EPNS0_19DGraphicsClipEffectE
libdtkwidget.so.2:_ZN3Dtk6Widget26DGraphicsClipEffectPrivateC2EPNS0_19DGraphicsClipEffectE
libdtkwidget.so.2:_ZN3Dtk6Widget26DPasswdEditAnimatedPrivate12_q_inputDoneEv
libdtkwidget.so.2:_ZN3Dtk6Widget26DPasswdEditAnimatedPrivate17_q_hideLoadSliderEv
libdtkwidget.so.2:_ZN3Dtk6Widget26DPasswdEditAnimatedPrivate17_q_showLoadSliderEv
libdtkwidget.so.2:_ZN3Dtk6Widget26DPasswdEditAnimatedPrivate21_q_onEyeButtonClickedEv
libdtkwidget.so.2:_ZN3Dtk6Widget26DPasswdEditAnimatedPrivate21_q_resetCapslockStateEv
libdtkwidget.so.2:_ZN3Dtk6Widget26DPasswdEditAnimatedPrivate26_q_onKeyboardButtonClickedEv
libdtkwidget.so.2:_ZN3Dtk6Widget26DPasswdEditAnimatedPrivate4initEv
libdtkwidget.so.2:_ZN3Dtk6Widget26DPasswdEditAnimatedPrivateC1EPNS0_19DPasswdEditAnimatedE
libdtkwidget.so.2:_ZN3Dtk6Widget26DPasswdEditAnimatedPrivateC2EPNS0_19DPasswdEditAnimatedE
libdtkwidget.so.2:_ZN3Dtk6Widget26createCheckboxOptionHandleEP7QObject
libdtkwidget.so.2:_ZN3Dtk6Widget26createComboBoxOptionHandleEP7QObject
libdtkwidget.so.2:_ZN3Dtk6Widget26createLineEditOptionHandleEP7QObject
libdtkwidget.so.2:_ZN3Dtk6Widget27DPictureSequenceViewPrivate10loadPixmapERK7QString
libdtkwidget.so.2:_ZN3Dtk6Widget27DPictureSequenceViewPrivate17_q_refreshPictureEv
libdtkwidget.so.2:_ZN3Dtk6Widget27DPictureSequenceViewPrivate4initEv
libdtkwidget.so.2:_ZN3Dtk6Widget27DPictureSequenceViewPrivate4playEv
libdtkwidget.so.2:_ZN3Dtk6Widget27DPictureSequenceViewPrivateC1EPNS0_20DPictureSequenceViewE
libdtkwidget.so.2:_ZN3Dtk6Widget27DPictureSequenceViewPrivateC2EPNS0_20DPictureSequenceViewE
libdtkwidget.so.2:_ZN3Dtk6Widget27DPictureSequenceViewPrivateD0Ev
libdtkwidget.so.2:_ZN3Dtk6Widget27DPictureSequenceViewPrivateD1Ev
libdtkwidget.so.2:_ZN3Dtk6Widget27DPictureSequenceViewPrivateD2Ev
libdtkwidget.so.2:_ZN3Dtk6Widget27DSlideStackWidgetTransition11qt_metacallEN11QMetaObject4CallEiPPv
libdtkwidget.so.2:_ZN3Dtk6Widget27DSlideStackWidgetTransition11qt_metacastEPKc
libdtkwidget.so.2:_ZN3Dtk6Widget27DSlideStackWidgetTransition13updateVariantERK8QVariant
libdtkwidget.so.2:_ZN3Dtk6Widget27DSlideStackWidgetTransition15beginTransitionERKNS0_30DAbstractStackWidgetTransition14TransitionInfoE
libdtkwidget.so.2:_ZN3Dtk6Widget27DSlideStackWidgetTransitionC1EP7QObject
libdtkwidget.so.2:_ZN3Dtk6Widget27DSlideStackWidgetTransitionC2EP7QObject
libdtkwidget.so.2:_ZN3Dtk6Widget27DStyleOptionBackgroundGroup4initEP7QWidget
libdtkwidget.so.2:_ZN3Dtk6Widget28createRadioGroupOptionHandleEP7QObject
libdtkwidget.so.2:_ZN3Dtk6Widget28createSpinButtonOptionHandleEP7QObject
libdtkwidget.so.2:_ZN3Dtk6Widget29createButtonGroupOptionHandleEP7QObject
libdtkwidget.so.2:_ZN3Dtk6Widget30DAbstractStackWidgetTransition15beginTransitionERKNS1_14TransitionInfoE
libdtkwidget.so.2:_ZN3Dtk6Widget30DAbstractStackWidgetTransitionC1EP7QObject
libdtkwidget.so.2:_ZN3Dtk6Widget30DAbstractStackWidgetTransitionC1ERNS0_37DAbstractStackWidgetTransitionPrivateEP7QObject
libdtkwidget.so.2:_ZN3Dtk6Widget30DAbstractStackWidgetTransitionC2EP7QObject
libdtkwidget.so.2:_ZN3Dtk6Widget30DAbstractStackWidgetTransitionC2ERNS0_37DAbstractStackWidgetTransitionPrivateEP7QObject
libdtkwidget.so.2:_ZN3Dtk6Widget30createShortcutEditOptionHandleEP7QObject
libdtkwidget.so.2:_ZN3Dtk6Widget37DAbstractStackWidgetTransitionPrivate4initEv
libdtkwidget.so.2:_ZN3Dtk6Widget37DAbstractStackWidgetTransitionPrivateC1EPNS0_30DAbstractStackWidgetTransitionE
libdtkwidget.so.2:_ZN3Dtk6Widget37DAbstractStackWidgetTransitionPrivateC2EPNS0_30DAbstractStackWidgetTransitionE
libdtkwidget.so.2:_ZN3Dtk6Widget37DAbstractStackWidgetTransitionPrivateD0Ev
libdtkwidget.so.2:_ZN3Dtk6Widget37DAbstractStackWidgetTransitionPrivateD1Ev
libdtkwidget.so.2:_ZN3Dtk6Widget37DAbstractStackWidgetTransitionPrivateD2Ev
libdtkwidget.so.2:_ZN3Dtk6Widget6DLabel11qt_metacallEN11QMetaObject4CallEiPPv
libdtkwidget.so.2:_ZN3Dtk6Widget6DLabel11qt_metacastEPKc
libdtkwidget.so.2:_ZN3Dtk6Widget6DLabelC1EP7QWidget6QFlagsIN2Qt10WindowTypeEE
libdtkwidget.so.2:_ZN3Dtk6Widget6DLabelC1ERK7QStringP7QWidget6QFlagsIN2Qt10WindowTypeEE
libdtkwidget.so.2:_ZN3Dtk6Widget6DLabelC2EP7QWidget6QFlagsIN2Qt10WindowTypeEE
libdtkwidget.so.2:_ZN3Dtk6Widget6DLabelC2ERK7QStringP7QWidget6QFlagsIN2Qt10WindowTypeEE
libdtkwidget.so.2:_ZN3Dtk6Widget6DToast10setOpacityEd
libdtkwidget.so.2:_ZN3Dtk6Widget6DToast11qt_metacallEN11QMetaObject4CallEiPPv
libdtkwidget.so.2:_ZN3Dtk6Widget6DToast11qt_metacastEPKc
libdtkwidget.so.2:_ZN3Dtk6Widget6DToast11setDurationEi
libdtkwidget.so.2:_ZN3Dtk6Widget6DToast14visibleChangedEb
libdtkwidget.so.2:_ZN3Dtk6Widget6DToast3popEv
libdtkwidget.so.2:_ZN3Dtk6Widget6DToast4packEv
libdtkwidget.so.2:_ZN3Dtk6Widget6DToast7setIconE5QIcon5QSize
libdtkwidget.so.2:_ZN3Dtk6Widget6DToast7setIconE7QString
libdtkwidget.so.2:_ZN3Dtk6Widget6DToast7setTextE7QString
libdtkwidget.so.2:_ZN3Dtk6Widget6DToast9hideEventEP10QHideEvent
libdtkwidget.so.2:_ZN3Dtk6Widget6DToast9showEventEP10QShowEvent
libdtkwidget.so.2:_ZN3Dtk6Widget6DToastC1EP7QWidget
libdtkwidget.so.2:_ZN3Dtk6Widget6DToastC2EP7QWidget
libdtkwidget.so.2:_ZN3Dtk6Widget6DToastD0Ev
libdtkwidget.so.2:_ZN3Dtk6Widget6DToastD1Ev
libdtkwidget.so.2:_ZN3Dtk6Widget6DToastD2Ev
libdtkwidget.so.2:_ZN3Dtk6Widget6XUtils10MoveWindowEPK7QWidgetN2Qt11MouseButtonE
libdtkwidget.so.2:_ZN3Dtk6Widget6XUtils12SetStayOnTopEPK7QWidgetb
libdtkwidget.so.2:_ZN3Dtk6Widget6XUtils13DisableResizeEPK7QWidget
libdtkwidget.so.2:_ZN3Dtk6Widget6XUtils13GetCornerEdgeEPK7QWidgetiiRK8QMarginsi
libdtkwidget.so.2:_ZN3Dtk6Widget6XUtils13IsCornerEdgetEPK7QWidgetiiRK8QMarginsi
libdtkwidget.so.2:_ZN3Dtk6Widget6XUtils13StartResizingEPK7QWidgetRK6QPointRKNS1_10CornerEdgeE
libdtkwidget.so.2:_ZN3Dtk6Widget6XUtils14SetCursorShapeEPK7QWidgeti
libdtkwidget.so.2:_ZN3Dtk6Widget6XUtils16CancelMoveWindowEPK7QWidgetN2Qt11MouseButtonE
libdtkwidget.so.2:_ZN3Dtk6Widget6XUtils16MoveResizeWindowEPK7QWidgetN2Qt11MouseButtonEiiRK8QMarginsi
libdtkwidget.so.2:_ZN3Dtk6Widget6XUtils16ResetCursorShapeEPK7QWidget
libdtkwidget.so.2:_ZN3Dtk6Widget6XUtils16SetWindowExtentsEPK7QWidgetRK8QMarginsi
libdtkwidget.so.2:_ZN3Dtk6Widget6XUtils16SetWindowExtentsEjRK5QRectRK8QMarginsi
libdtkwidget.so.2:_ZN3Dtk6Widget6XUtils16ShowNormalWindowEPK7QWidget
libdtkwidget.so.2:_ZN3Dtk6Widget6XUtils16SkipTaskbarPagerEPK7QWidget
libdtkwidget.so.2:_ZN3Dtk6Widget6XUtils17UpdateCursorShapeEPK7QWidgetiiRK8QMarginsi
libdtkwidget.so.2:_ZN3Dtk6Widget6XUtils18PropagateSizeHintsEPK7QWidget
libdtkwidget.so.2:_ZN3Dtk6Widget6XUtils19SetMouseTransparentEPK7QWidgetb
libdtkwidget.so.2:_ZN3Dtk6Widget6XUtils19ShowMaximizedWindowEPK7QWidget
libdtkwidget.so.2:_ZN3Dtk6Widget6XUtils19ShowMinimizedWindowEPK7QWidgetb
libdtkwidget.so.2:_ZN3Dtk6Widget6XUtils20ShowFullscreenWindowEPK7QWidgetb
libdtkwidget.so.2:_ZN3Dtk6Widget6XUtils21SendMoveResizeMessageEPK7QWidgetN2Qt11MouseButtonEi
libdtkwidget.so.2:_ZN3Dtk6Widget6XUtils21ToggleMaximizedWindowEPK7QWidget
libdtkwidget.so.2:_ZN3Dtk6Widget6XUtils26ChangeWindowMaximizedStateEPK7QWidgeti
libdtkwidget.so.2:_ZN3Dtk6Widget7Content11qt_metacallEN11QMetaObject4CallEiPPv
libdtkwidget.so.2:_ZN3Dtk6Widget7Content11qt_metacastEPKc
libdtkwidget.so.2:_ZN3Dtk6Widget7Content13scrollToGroupERK7QString
libdtkwidget.so.2:_ZN3Dtk6Widget7Content14mouseMoveEventEP11QMouseEvent
libdtkwidget.so.2:_ZN3Dtk6Widget7Content14updateSettingsERK10QByteArray8QPointerINS_4Core9DSettingsEE
libdtkwidget.so.2:_ZN3Dtk6Widget7Content15onScrollToGroupERK7QString
libdtkwidget.so.2:_ZN3Dtk6Widget7ContentC1EP7QWidget
libdtkwidget.so.2:_ZN3Dtk6Widget7ContentC2EP7QWidget
libdtkwidget.so.2:_ZN3Dtk6Widget7ContentD0Ev
libdtkwidget.so.2:_ZN3Dtk6Widget7ContentD1Ev
libdtkwidget.so.2:_ZN3Dtk6Widget7ContentD2Ev
libdtkwidget.so.2:_ZN3Dtk6Widget7DDialog10addButtonsERK11QStringList
libdtkwidget.so.2:_ZN3Dtk6Widget7DDialog10addContentEP7QWidget6QFlagsIN2Qt13AlignmentFlagEE
libdtkwidget.so.2:_ZN3Dtk6Widget7DDialog10addSpacingEi
libdtkwidget.so.2:_ZN3Dtk6Widget7DDialog10childEventEP11QChildEvent
libdtkwidget.so.2:_ZN3Dtk6Widget7DDialog10closeEventEP11QCloseEvent
libdtkwidget.so.2:_ZN3Dtk6Widget7DDialog10setMessageERK7QString
libdtkwidget.so.2:_ZN3Dtk6Widget7DDialog10setSpacingEi
libdtkwidget.so.2:_ZN3Dtk6Widget7DDialog11qt_metacallEN11QMetaObject4CallEiPPv
libdtkwidget.so.2:_ZN3Dtk6Widget7DDialog11qt_metacastEPKc
libdtkwidget.so.2:_ZN3Dtk6Widget7DDialog11resizeEventEP12QResizeEvent
libdtkwidget.so.2:_ZN3Dtk6Widget7DDialog11sizeChangedE5QSize
libdtkwidget.so.2:_ZN3Dtk6Widget7DDialog12aboutToCloseEv
libdtkwidget.so.2:_ZN3Dtk6Widget7DDialog12clearButtonsEv
libdtkwidget.so.2:_ZN3Dtk6Widget7DDialog12clearSpacingEv
libdtkwidget.so.2:_ZN3Dtk6Widget7DDialog12insertButtonEiP15QAbstractButtonb
libdtkwidget.so.2:_ZN3Dtk6Widget7DDialog12insertButtonEiRK7QStringbNS1_10ButtonTypeE
libdtkwidget.so.2:_ZN3Dtk6Widget7DDialog12removeButtonEP15QAbstractButton
libdtkwidget.so.2:_ZN3Dtk6Widget7DDialog12removeButtonEi
libdtkwidget.so.2:_ZN3Dtk6Widget7DDialog12titleChangedE7QString
libdtkwidget.so.2:_ZN3Dtk6Widget7DDialog13buttonClickedEiRK7QString
libdtkwidget.so.2:_ZN3Dtk6Widget7DDialog13clearContentsEb
libdtkwidget.so.2:_ZN3Dtk6Widget7DDialog13insertButtonsEiRK11QStringList
libdtkwidget.so.2:_ZN3Dtk6Widget7DDialog13insertContentEiP7QWidget6QFlagsIN2Qt13AlignmentFlagEE
libdtkwidget.so.2:_ZN3Dtk6Widget7DDialog13insertSpacingEii
libdtkwidget.so.2:_ZN3Dtk6Widget7DDialog13removeContentEP7QWidgetb
libdtkwidget.so.2:_ZN3Dtk6Widget7DDialog13setButtonIconEiRK5QIcon
libdtkwidget.so.2:_ZN3Dtk6Widget7DDialog13setButtonTextEiRK7QString
libdtkwidget.so.2:_ZN3Dtk6Widget7DDialog13setIconPixmapERK7QPixmap
libdtkwidget.so.2:_ZN3Dtk6Widget7DDialog13setTextFormatEN2Qt10TextFormatE
libdtkwidget.so.2:_ZN3Dtk6Widget7DDialog14messageChangedE7QString
libdtkwidget.so.2:_ZN3Dtk6Widget7DDialog14visibleChangedEb
libdtkwidget.so.2:_ZN3Dtk6Widget7DDialog16setDefaultButtonEP15QAbstractButton
libdtkwidget.so.2:_ZN3Dtk6Widget7DDialog16setDefaultButtonERK7QString
libdtkwidget.so.2:_ZN3Dtk6Widget7DDialog16setDefaultButtonEi
libdtkwidget.so.2:_ZN3Dtk6Widget7DDialog17textFormatChangedEN2Qt10TextFormatE
libdtkwidget.so.2:_ZN3Dtk6Widget7DDialog18removeButtonByTextERK7QString
libdtkwidget.so.2:_ZN3Dtk6Widget7DDialog23setOnButtonClickedCloseEb
libdtkwidget.so.2:_ZN3Dtk6Widget7DDialog31setContentLayoutContentsMarginsERK8QMargins
libdtkwidget.so.2:_ZN3Dtk6Widget7DDialog4execEv
libdtkwidget.so.2:_ZN3Dtk6Widget7DDialog6closedEv
libdtkwidget.so.2:_ZN3Dtk6Widget7DDialog7setIconERK5QIcon
libdtkwidget.so.2:_ZN3Dtk6Widget7DDialog7setIconERK5QIconRK5QSize
libdtkwidget.so.2:_ZN3Dtk6Widget7DDialog8setTitleERK7QString
libdtkwidget.so.2:_ZN3Dtk6Widget7DDialog9addButtonERK7QStringbNS1_10ButtonTypeE
libdtkwidget.so.2:_ZN3Dtk6Widget7DDialog9hideEventEP10QHideEvent
libdtkwidget.so.2:_ZN3Dtk6Widget7DDialog9showEventEP10QShowEvent
libdtkwidget.so.2:_ZN3Dtk6Widget7DDialogC1EP7QWidget
libdtkwidget.so.2:_ZN3Dtk6Widget7DDialogC1ERK7QStringS4_P7QWidget
libdtkwidget.so.2:_ZN3Dtk6Widget7DDialogC1ERNS0_14DDialogPrivateEP7QWidget
libdtkwidget.so.2:_ZN3Dtk6Widget7DDialogC2EP7QWidget
libdtkwidget.so.2:_ZN3Dtk6Widget7DDialogC2ERK7QStringS4_P7QWidget
libdtkwidget.so.2:_ZN3Dtk6Widget7DDialogC2ERNS0_14DDialogPrivateEP7QWidget
libdtkwidget.so.2:_ZN3Dtk6Widget7DOption10setCheckedEb
libdtkwidget.so.2:_ZN3Dtk6Widget7DOption11qt_metacallEN11QMetaObject4CallEiPPv
libdtkwidget.so.2:_ZN3Dtk6Widget7DOption11qt_metacastEPKc
libdtkwidget.so.2:_ZN3Dtk6Widget7DOption11resizeEventEP12QResizeEvent
libdtkwidget.so.2:_ZN3Dtk6Widget7DOption14setCheckedIconERK7QString
libdtkwidget.so.2:_ZN3Dtk6Widget7DOption6layoutEv
libdtkwidget.so.2:_ZN3Dtk6Widget7DOption7setIconERK7QPixmap
libdtkwidget.so.2:_ZN3Dtk6Widget7DOption7setIconERK7QString
libdtkwidget.so.2:_ZN3Dtk6Widget7DOption7setNameERK7QString
libdtkwidget.so.2:_ZN3Dtk6Widget7DOption8setValueERK7QString
libdtkwidget.so.2:_ZN3Dtk6Widget7DOptionC1EP7QWidget
libdtkwidget.so.2:_ZN3Dtk6Widget7DOptionC2EP7QWidget
libdtkwidget.so.2:_ZN3Dtk6Widget7DSlider10paintEventEP11QPaintEvent
libdtkwidget.so.2:_ZN3Dtk6Widget7DSlider10setLeftTipERK7QString
libdtkwidget.so.2:_ZN3Dtk6Widget7DSlider11hoverTimoutEv
libdtkwidget.so.2:_ZN3Dtk6Widget7DSlider11qt_metacallEN11QMetaObject4CallEiPPv
libdtkwidget.so.2:_ZN3Dtk6Widget7DSlider11qt_metacastEPKc
libdtkwidget.so.2:_ZN3Dtk6Widget7DSlider11removeScaleEi
libdtkwidget.so.2:_ZN3Dtk6Widget7DSlider11setRightTipERK7QString
libdtkwidget.so.2:_ZN3Dtk6Widget7DSlider11setTipColorERK6QColor
libdtkwidget.so.2:_ZN3Dtk6Widget7DSlider13setHandleTypeENS1_10HandleTypeE
libdtkwidget.so.2:_ZN3Dtk6Widget7DSlider13setScaleColorERK6QColor
libdtkwidget.so.2:_ZN3Dtk6Widget7DSlider14mouseMoveEventEP11QMouseEvent
libdtkwidget.so.2:_ZN3Dtk6Widget7DSlider15mousePressEventEP11QMouseEvent
libdtkwidget.so.2:_ZN3Dtk6Widget7DSlider17mouseReleaseEventEP11QMouseEvent
libdtkwidget.so.2:_ZN3Dtk6Widget7DSlider17setHoverShowValueEb
libdtkwidget.so.2:_ZN3Dtk6Widget7DSlider18setHoverValueColorE6QColor
libdtkwidget.so.2:_ZN3Dtk6Widget7DSlider25setHoverShowValueIntervalEi
libdtkwidget.so.2:_ZN3Dtk6Widget7DSlider4initEv
libdtkwidget.so.2:_ZN3Dtk6Widget7DSlider8addScaleEi
libdtkwidget.so.2:_ZN3Dtk6Widget7DSliderC1EN2Qt11OrientationEP7QWidget
libdtkwidget.so.2:_ZN3Dtk6Widget7DSliderC1EP7QWidget
libdtkwidget.so.2:_ZN3Dtk6Widget7DSliderC1ERNS0_14DSliderPrivateE
libdtkwidget.so.2:_ZN3Dtk6Widget7DSliderC2EN2Qt11OrientationEP7QWidget
libdtkwidget.so.2:_ZN3Dtk6Widget7DSliderC2EP7QWidget
libdtkwidget.so.2:_ZN3Dtk6Widget7DSliderC2ERNS0_14DSliderPrivateE
libdtkwidget.so.2:_ZN3Dtk6Widget7DSliderD0Ev
libdtkwidget.so.2:_ZN3Dtk6Widget7DSliderD1Ev
libdtkwidget.so.2:_ZN3Dtk6Widget7DSliderD2Ev
libdtkwidget.so.2:_ZN3Dtk6Widget7DTabBar10setMovableEb
libdtkwidget.so.2:_ZN3Dtk6Widget7DTabBar10setTabDataEiRK8QVariant
libdtkwidget.so.2:_ZN3Dtk6Widget7DTabBar10setTabIconEiRK5QIcon
libdtkwidget.so.2:_ZN3Dtk6Widget7DTabBar10setTabTextEiRK7QString
libdtkwidget.so.2:_ZN3Dtk6Widget7DTabBar10tabRemovedEi
libdtkwidget.so.2:_ZN3Dtk6Widget7DTabBar11dragStartedEv
libdtkwidget.so.2:_ZN3Dtk6Widget7DTabBar11qt_metacallEN11QMetaObject4CallEiPPv
libdtkwidget.so.2:_ZN3Dtk6Widget7DTabBar11qt_metacastEPKc
libdtkwidget.so.2:_ZN3Dtk6Widget7DTabBar11resizeEventEP12QResizeEvent
libdtkwidget.so.2:_ZN3Dtk6Widget7DTabBar11setAutoHideEb
libdtkwidget.so.2:_ZN3Dtk6Widget7DTabBar11setDragableEb
libdtkwidget.so.2:_ZN3Dtk6Widget7DTabBar11setDrawBaseEb
libdtkwidget.so.2:_ZN3Dtk6Widget7DTabBar11setIconSizeERK5QSize
libdtkwidget.so.2:_ZN3Dtk6Widget7DTabBar11tabInsertedEi
libdtkwidget.so.2:_ZN3Dtk6Widget7DTabBar12setElideModeEN2Qt13TextElideModeE
libdtkwidget.so.2:_ZN3Dtk6Widget7DTabBar12setExpandingEb
libdtkwidget.so.2:_ZN3Dtk6Widget7DTabBar12setMaskColorE6QColor
libdtkwidget.so.2:_ZN3Dtk6Widget7DTabBar12setTabButtonEiN7QTabBar14ButtonPositionEP7QWidget
libdtkwidget.so.2:_ZN3Dtk6Widget7DTabBar12tabIsRemovedEi
libdtkwidget.so.2:_ZN3Dtk6Widget7DTabBar13dragMoveEventEP14QDragMoveEvent
libdtkwidget.so.2:_ZN3Dtk6Widget7DTabBar13setFlashColorE6QColor
libdtkwidget.so.2:_ZN3Dtk6Widget7DTabBar13setTabEnabledEib
libdtkwidget.so.2:_ZN3Dtk6Widget7DTabBar13setTabToolTipEiRK7QString
libdtkwidget.so.2:_ZN3Dtk6Widget7DTabBar13startTabFlashEi
libdtkwidget.so.2:_ZN3Dtk6Widget7DTabBar13tabBarClickedEi
libdtkwidget.so.2:_ZN3Dtk6Widget7DTabBar13tabIsInsertedEi
libdtkwidget.so.2:_ZN3Dtk6Widget7DTabBar14currentChangedEi
libdtkwidget.so.2:_ZN3Dtk6Widget7DTabBar14dragEnterEventEP15QDragEnterEvent
libdtkwidget.so.2:_ZN3Dtk6Widget7DTabBar14dragLeaveEventEP15QDragLeaveEvent
libdtkwidget.so.2:_ZN3Dtk6Widget7DTabBar15setCurrentIndexEi
libdtkwidget.so.2:_ZN3Dtk6Widget7DTabBar15setDocumentModeEb
libdtkwidget.so.2:_ZN3Dtk6Widget7DTabBar15setTabWhatsThisEiRK7QString
libdtkwidget.so.2:_ZN3Dtk6Widget7DTabBar15setTabsClosableEb
libdtkwidget.so.2:_ZN3Dtk6Widget7DTabBar15tabAddRequestedEv
libdtkwidget.so.2:_ZN3Dtk6Widget7DTabBar15tabLayoutChangeEv
libdtkwidget.so.2:_ZN3Dtk6Widget7DTabBar17dragActionChangedEN2Qt10DropActionE
libdtkwidget.so.2:_ZN3Dtk6Widget7DTabBar17setTabMaximumSizeEiRK5QSize
libdtkwidget.so.2:_ZN3Dtk6Widget7DTabBar17setTabMinimumSizeEiRK5QSize
libdtkwidget.so.2:_ZN3Dtk6Widget7DTabBar17tabCloseRequestedEi
libdtkwidget.so.2:_ZN3Dtk6Widget7DTabBar18insertFromMimeDataEiPK9QMimeData
libdtkwidget.so.2:_ZN3Dtk6Widget7DTabBar19setVisibleAddButtonEb
libdtkwidget.so.2:_ZN3Dtk6Widget7DTabBar19tabBarDoubleClickedEi
libdtkwidget.so.2:_ZN3Dtk6Widget7DTabBar19tabReleaseRequestedEi
libdtkwidget.so.2:_ZN3Dtk6Widget7DTabBar20setStartDragDistanceEi
libdtkwidget.so.2:_ZN3Dtk6Widget7DTabBar20setUsesScrollButtonsEb
libdtkwidget.so.2:_ZN3Dtk6Widget7DTabBar22setChangeCurrentOnDragEb
libdtkwidget.so.2:_ZN3Dtk6Widget7DTabBar28setSelectionBehaviorOnRemoveEN7QTabBar17SelectionBehaviorE
libdtkwidget.so.2:_ZN3Dtk6Widget7DTabBar29insertFromMimeDataOnDragEnterEiPK9QMimeData
libdtkwidget.so.2:_ZN3Dtk6Widget7DTabBar6addTabERK5QIconRK7QString
libdtkwidget.so.2:_ZN3Dtk6Widget7DTabBar6addTabERK7QString
libdtkwidget.so.2:_ZN3Dtk6Widget7DTabBar6d_funcEv
libdtkwidget.so.2:_ZN3Dtk6Widget7DTabBar7dragEndEN2Qt10DropActionE
libdtkwidget.so.2:_ZN3Dtk6Widget7DTabBar7moveTabEii
libdtkwidget.so.2:_ZN3Dtk6Widget7DTabBar8setShapeEN7QTabBar5ShapeE
libdtkwidget.so.2:_ZN3Dtk6Widget7DTabBar8stopDragEN2Qt10DropActionE
libdtkwidget.so.2:_ZN3Dtk6Widget7DTabBar8tabMovedEii
libdtkwidget.so.2:_ZN3Dtk6Widget7DTabBar9dropEventEP10QDropEvent
libdtkwidget.so.2:_ZN3Dtk6Widget7DTabBar9insertTabEiRK5QIconRK7QString
libdtkwidget.so.2:_ZN3Dtk6Widget7DTabBar9insertTabEiRK7QString
libdtkwidget.so.2:_ZN3Dtk6Widget7DTabBar9removeTabEi
libdtkwidget.so.2:_ZN3Dtk6Widget7DTabBar9startDragEi
libdtkwidget.so.2:_ZN3Dtk6Widget7DTabBar9tabDropedEiN2Qt10DropActionEP7QObject
libdtkwidget.so.2:_ZN3Dtk6Widget7DTabBarC1EP7QWidget
libdtkwidget.so.2:_ZN3Dtk6Widget7DTabBarC2EP7QWidget
libdtkwidget.so.2:_ZN3Dtk6Widget8DPalette10setGenericERKS1_
libdtkwidget.so.2:_ZN3Dtk6Widget8DPalette3getEPK7QWidgetRK8QPalette
libdtkwidget.so.2:_ZN3Dtk6Widget8DPalette3setEP7QWidgetRKS1_
libdtkwidget.so.2:_ZN3Dtk6Widget8DPalette8setBrushEN8QPalette10ColorGroupENS1_9ColorTypeERK6QBrush
libdtkwidget.so.2:_ZN3Dtk6Widget8DPaletteC1ERK8QPalette
libdtkwidget.so.2:_ZN3Dtk6Widget8DPaletteC1Ev
libdtkwidget.so.2:_ZN3Dtk6Widget8DPaletteC2ERK8QPalette
libdtkwidget.so.2:_ZN3Dtk6Widget8DPaletteC2Ev
libdtkwidget.so.2:_ZN3Dtk6Widget8DPaletteD1Ev
libdtkwidget.so.2:_ZN3Dtk6Widget8DPaletteD2Ev
libdtkwidget.so.2:_ZN3Dtk6Widget8DSpinBox11qt_metacallEN11QMetaObject4CallEiPPv
libdtkwidget.so.2:_ZN3Dtk6Widget8DSpinBox11qt_metacastEPKc
libdtkwidget.so.2:_ZN3Dtk6Widget8DSpinBox11resizeEventEP12QResizeEvent
libdtkwidget.so.2:_ZN3Dtk6Widget8DSpinBox12alertChangedEb
libdtkwidget.so.2:_ZN3Dtk6Widget8DSpinBox15setDefaultValueEi
libdtkwidget.so.2:_ZN3Dtk6Widget8DSpinBox19defaultValueChangedEi
libdtkwidget.so.2:_ZN3Dtk6Widget8DSpinBox8setAlertEb
libdtkwidget.so.2:_ZN3Dtk6Widget8DSpinBoxC1EP7QWidget
libdtkwidget.so.2:_ZN3Dtk6Widget8DSpinBoxC2EP7QWidget
libdtkwidget.so.2:_ZN3Dtk6Widget8DSpinner10paintEventEP11QPaintEvent
libdtkwidget.so.2:_ZN3Dtk6Widget8DSpinner11qt_metacallEN11QMetaObject4CallEiPPv
libdtkwidget.so.2:_ZN3Dtk6Widget8DSpinner11qt_metacastEPKc
libdtkwidget.so.2:_ZN3Dtk6Widget8DSpinner18setBackgroundColorE6QColor
libdtkwidget.so.2:_ZN3Dtk6Widget8DSpinner4stopEv
libdtkwidget.so.2:_ZN3Dtk6Widget8DSpinner5startEv
libdtkwidget.so.2:_ZN3Dtk6Widget8DSpinnerC1EP7QWidget
libdtkwidget.so.2:_ZN3Dtk6Widget8DSpinnerC2EP7QWidget
libdtkwidget.so.2:_ZN3Dtk6Widget8DSpinnerD0Ev
libdtkwidget.so.2:_ZN3Dtk6Widget8DSpinnerD1Ev
libdtkwidget.so.2:_ZN3Dtk6Widget8DSpinnerD2Ev
libdtkwidget.so.2:_ZN3Dtk6Widget9DBaseLine10leftLayoutEv
libdtkwidget.so.2:_ZN3Dtk6Widget9DBaseLine11qt_metacallEN11QMetaObject4CallEiPPv
libdtkwidget.so.2:_ZN3Dtk6Widget9DBaseLine11qt_metacastEPKc
libdtkwidget.so.2:_ZN3Dtk6Widget9DBaseLine11rightLayoutEv
libdtkwidget.so.2:_ZN3Dtk6Widget9DBaseLine13setLeftMarginEi
libdtkwidget.so.2:_ZN3Dtk6Widget9DBaseLine14setLeftContentEP7QWidget
libdtkwidget.so.2:_ZN3Dtk6Widget9DBaseLine14setRightMarginEi
libdtkwidget.so.2:_ZN3Dtk6Widget9DBaseLine15setRightContentEP7QWidget
libdtkwidget.so.2:_ZN3Dtk6Widget9DBaseLineC1EP7QWidget
libdtkwidget.so.2:_ZN3Dtk6Widget9DBaseLineC2EP7QWidget
libdtkwidget.so.2:_ZN3Dtk6Widget9DLineEdit11eventFilterEP7QObjectP6QEvent
libdtkwidget.so.2:_ZN3Dtk6Widget9DLineEdit11qt_metacallEN11QMetaObject4CallEiPPv
libdtkwidget.so.2:_ZN3Dtk6Widget9DLineEdit11qt_metacastEPKc
libdtkwidget.so.2:_ZN3Dtk6Widget9DLineEdit11resizeEventEP12QResizeEvent
libdtkwidget.so.2:_ZN3Dtk6Widget9DLineEdit12focusInEventEP11QFocusEvent
libdtkwidget.so.2:_ZN3Dtk6Widget9DLineEdit12setHoverIconERK7QString
libdtkwidget.so.2:_ZN3Dtk6Widget9DLineEdit12setPressIconERK7QString
libdtkwidget.so.2:_ZN3Dtk6Widget9DLineEdit13focusOutEventEP11QFocusEvent
libdtkwidget.so.2:_ZN3Dtk6Widget9DLineEdit13setNormalIconERK7QString
libdtkwidget.so.2:_ZN3Dtk6Widget9DLineEdit14setIconVisibleEb
libdtkwidget.so.2:_ZN3Dtk6Widget9DLineEdit16hideAlertMessageEv
libdtkwidget.so.2:_ZN3Dtk6Widget9DLineEdit16showAlertMessageERK7QStringi
libdtkwidget.so.2:_ZN3Dtk6Widget9DLineEdit8setAlertEb
libdtkwidget.so.2:_ZN3Dtk6Widget9DLineEditC1EP7QWidget
libdtkwidget.so.2:_ZN3Dtk6Widget9DLineEditC1ERNS0_16DLineEditPrivateEP7QWidget
libdtkwidget.so.2:_ZN3Dtk6Widget9DLineEditC2EP7QWidget
libdtkwidget.so.2:_ZN3Dtk6Widget9DLineEditC2ERNS0_16DLineEditPrivateEP7QWidget
libdtkwidget.so.2:_ZN3Dtk6Widget9DListView10insertItemEiRK8QVariant
libdtkwidget.so.2:_ZN3Dtk6Widget9DListView10removeItemEi
libdtkwidget.so.2:_ZN3Dtk6Widget9DListView11insertItemsEiRK5QListI8QVariantE
libdtkwidget.so.2:_ZN3Dtk6Widget9DListView11qt_metacallEN11QMetaObject4CallEiPPv
libdtkwidget.so.2:_ZN3Dtk6Widget9DListView11qt_metacastEPKc
libdtkwidget.so.2:_ZN3Dtk6Widget9DListView11removeItemsEii
libdtkwidget.so.2:_ZN3Dtk6Widget9DListView11resizeEventEP12QResizeEvent
libdtkwidget.so.2:_ZN3Dtk6Widget9DListView11setWrappingEb
libdtkwidget.so.2:_ZN3Dtk6Widget9DListView11triggerEditERK11QModelIndex
libdtkwidget.so.2:_ZN3Dtk6Widget9DListView14currentChangedERK11QModelIndex
libdtkwidget.so.2:_ZN3Dtk6Widget9DListView14currentChangedERK11QModelIndexS4_
libdtkwidget.so.2:_ZN3Dtk6Widget9DListView14setOrientationEN9QListView4FlowEb
libdtkwidget.so.2:_ZN3Dtk6Widget9DListView15addFooterWidgetEP7QWidget
libdtkwidget.so.2:_ZN3Dtk6Widget9DListView15addHeaderWidgetEP7QWidget
libdtkwidget.so.2:_ZN3Dtk6Widget9DListView15rowCountChangedEv
libdtkwidget.so.2:_ZN3Dtk6Widget9DListView16takeFooterWidgetEi
libdtkwidget.so.2:_ZN3Dtk6Widget9DListView16takeHeaderWidgetEi
libdtkwidget.so.2:_ZN3Dtk6Widget9DListView18orientationChangedEN2Qt11OrientationE
libdtkwidget.so.2:_ZN3Dtk6Widget9DListView18removeFooterWidgetEi
libdtkwidget.so.2:_ZN3Dtk6Widget9DListView18removeHeaderWidgetEi
libdtkwidget.so.2:_ZN3Dtk6Widget9DListView4editERK11QModelIndex
libdtkwidget.so.2:_ZN3Dtk6Widget9DListView4editERK11QModelIndexN17QAbstractItemView11EditTriggerEP6QEvent
libdtkwidget.so.2:_ZN3Dtk6Widget9DListView7addItemERK8QVariant
libdtkwidget.so.2:_ZN3Dtk6Widget9DListView7setFlowEN9QListView4FlowE
libdtkwidget.so.2:_ZN3Dtk6Widget9DListView8addItemsERK5QListI8QVariantE
libdtkwidget.so.2:_ZN3Dtk6Widget9DListView8setModelEP18QAbstractItemModel
libdtkwidget.so.2:_ZN3Dtk6Widget9DListViewC1EP7QWidget
libdtkwidget.so.2:_ZN3Dtk6Widget9DListViewC2EP7QWidget
libdtkwidget.so.2:_ZN3Dtk6Widget9DTextEdit11qt_metacallEN11QMetaObject4CallEiPPv
libdtkwidget.so.2:_ZN3Dtk6Widget9DTextEdit11qt_metacastEPKc
libdtkwidget.so.2:_ZN3Dtk6Widget9DTextEdit11resizeEventEP12QResizeEvent
libdtkwidget.so.2:_ZN3Dtk6Widget9DTextEditC1EP7QWidget
libdtkwidget.so.2:_ZN3Dtk6Widget9DTextEditC2EP7QWidget
libdtkwidget.so.2:_ZN3Dtk6Widget9DTitlebar10setVisibleEb
libdtkwidget.so.2:_ZN3Dtk6Widget9DTitlebar11eventFilterEP7QObjectP6QEvent
libdtkwidget.so.2:_ZN3Dtk6Widget9DTitlebar11mouseMovingEN2Qt11MouseButtonE
libdtkwidget.so.2:_ZN3Dtk6Widget9DTitlebar11qt_metacallEN11QMetaObject4CallEiPPv
libdtkwidget.so.2:_ZN3Dtk6Widget9DTitlebar11qt_metacastEPKc
libdtkwidget.so.2:_ZN3Dtk6Widget9DTitlebar11resizeEventEP12QResizeEvent
libdtkwidget.so.2:_ZN3Dtk6Widget9DTitlebar12mousePressedE6QFlagsIN2Qt11MouseButtonEE
libdtkwidget.so.2:_ZN3Dtk6Widget9DTitlebar12setEmbedModeEb
libdtkwidget.so.2:_ZN3Dtk6Widget9DTitlebar13doubleClickedEv
libdtkwidget.so.2:_ZN3Dtk6Widget9DTitlebar13optionClickedEv
libdtkwidget.so.2:_ZN3Dtk6Widget9DTitlebar14mouseMoveEventEP11QMouseEvent
libdtkwidget.so.2:_ZN3Dtk6Widget9DTitlebar14setFixedHeightEi
libdtkwidget.so.2:_ZN3Dtk6Widget9DTitlebar14setMenuVisibleEb
libdtkwidget.so.2:_ZN3Dtk6Widget9DTitlebar15mousePressEventEP11QMouseEvent
libdtkwidget.so.2:_ZN3Dtk6Widget9DTitlebar15setCustomWidgetEP7QWidgetN2Qt13AlignmentFlagEb
libdtkwidget.so.2:_ZN3Dtk6Widget9DTitlebar15setCustomWidgetEP7QWidgetb
libdtkwidget.so.2:_ZN3Dtk6Widget9DTitlebar15setDisableFlagsE6QFlagsIN2Qt10WindowTypeEE
libdtkwidget.so.2:_ZN3Dtk6Widget9DTitlebar15setMenuDisabledEb
libdtkwidget.so.2:_ZN3Dtk6Widget9DTitlebar17mouseReleaseEventEP11QMouseEvent
libdtkwidget.so.2:_ZN3Dtk6Widget9DTitlebar17toggleWindowStateEv
libdtkwidget.so.2:_ZN3Dtk6Widget9DTitlebar19setSeparatorVisibleEb
libdtkwidget.so.2:_ZN3Dtk6Widget9DTitlebar21mouseDoubleClickEventEP11QMouseEvent
libdtkwidget.so.2:_ZN3Dtk6Widget9DTitlebar23setAutoHideOnFullscreenEb
libdtkwidget.so.2:_ZN3Dtk6Widget9DTitlebar24setBackgroundTransparentEb
libdtkwidget.so.2:_ZN3Dtk6Widget9DTitlebar6resizeERK5QSize
libdtkwidget.so.2:_ZN3Dtk6Widget9DTitlebar6resizeEii
libdtkwidget.so.2:_ZN3Dtk6Widget9DTitlebar7setIconERK5QIcon
libdtkwidget.so.2:_ZN3Dtk6Widget9DTitlebar7setMenuEP5QMenu
libdtkwidget.so.2:_ZN3Dtk6Widget9DTitlebar8setTitleERK7QString
libdtkwidget.so.2:_ZN3Dtk6Widget9DTitlebar8showMenuEv
libdtkwidget.so.2:_ZN3Dtk6Widget9DTitlebar9showEventEP10QShowEvent
libdtkwidget.so.2:_ZN3Dtk6Widget9DTitlebarC1EP7QWidget
libdtkwidget.so.2:_ZN3Dtk6Widget9DTitlebarC2EP7QWidget
libdtkwidget.so.2:_ZN8ComboBox10wheelEventEP11QWheelEvent
libdtkwidget.so.2:_ZN8ComboBox11qt_metacallEN11QMetaObject4CallEiPPv
libdtkwidget.so.2:_ZN8ComboBox11qt_metacastEPKc
libdtkwidget.so.2:_ZN8ComboBoxC1EP7QWidget
libdtkwidget.so.2:_ZN8ComboBoxC2EP7QWidget
libdtkwidget.so.2:_ZN9DBusMPRIS11RateChangedEd
libdtkwidget.so.2:_ZN9DBusMPRIS11qt_metacallEN11QMetaObject4CallEiPPv
libdtkwidget.so.2:_ZN9DBusMPRIS11qt_metacastEPKc
libdtkwidget.so.2:_ZN9DBusMPRIS13VolumeChangedEd
libdtkwidget.so.2:_ZN9DBusMPRIS14CanPlayChangedEb
libdtkwidget.so.2:_ZN9DBusMPRIS14CanSeekChangedEb
libdtkwidget.so.2:_ZN9DBusMPRIS14ShuffleChangedEb
libdtkwidget.so.2:_ZN9DBusMPRIS15CanPauseChangedEb
libdtkwidget.so.2:_ZN9DBusMPRIS15MetadataChangedERK4QMapI7QString8QVariantE
libdtkwidget.so.2:_ZN9DBusMPRIS15PositionChangedEx
libdtkwidget.so.2:_ZN9DBusMPRIS16CanGoNextChangedEb
libdtkwidget.so.2:_ZN9DBusMPRIS17CanControlChangedEb
libdtkwidget.so.2:_ZN9DBusMPRIS17LoopStatusChangedERK7QString
libdtkwidget.so.2:_ZN9DBusMPRIS18MaximumRateChangedEd
libdtkwidget.so.2:_ZN9DBusMPRIS18MinimumRateChangedEd
libdtkwidget.so.2:_ZN9DBusMPRIS20CanGoPreviousChangedEb
libdtkwidget.so.2:_ZN9DBusMPRIS21PlaybackStatusChangedERK7QString
libdtkwidget.so.2:_ZN9DBusMPRIS6SeekedEx
libdtkwidget.so.2:_ZN9DBusMPRISC1ERK7QStringS2_RK15QDBusConnectionP7QObject
libdtkwidget.so.2:_ZN9DBusMPRISC2ERK7QStringS2_RK15QDBusConnectionP7QObject
libdtkwidget.so.2:_ZN9DBusMPRISD0Ev
libdtkwidget.so.2:_ZN9DBusMPRISD1Ev
libdtkwidget.so.2:_ZN9DBusMPRISD2Ev
libdtkwidget.so.2:_ZNK11ButtonGroup10metaObjectEv
libdtkwidget.so.2:_ZNK12ContentTitle10metaObjectEv
libdtkwidget.so.2:_ZNK12DThemeHelper10metaObjectEv
libdtkwidget.so.2:_ZNK12ShortcutEdit10metaObjectEv
libdtkwidget.so.2:_ZNK13DBusInterface10metaObjectEv
libdtkwidget.so.2:_ZNK13DMPRISMonitor10metaObjectEv
libdtkwidget.so.2:_ZNK13DMPRISMonitor13mprisAcquiredERK7QString
libdtkwidget.so.2:_ZNK13DMPRISMonitor9mprisLostERK7QString
libdtkwidget.so.2:_ZNK18NavigationDelegate10metaObjectEv
libdtkwidget.so.2:_ZNK18NavigationDelegate12createEditorEP7QWidgetRK20QStyleOptionViewItemRK11QModelIndex
libdtkwidget.so.2:_ZNK18NavigationDelegate12setModelDataEP7QWidgetP18QAbstractItemModelRK11QModelIndex
libdtkwidget.so.2:_ZNK18NavigationDelegate13setEditorDataEP7QWidgetRK11QModelIndex
libdtkwidget.so.2:_ZNK18NavigationDelegate15initStyleOptionEP20QStyleOptionViewItemRK11QModelIndex
libdtkwidget.so.2:_ZNK18NavigationDelegate5paintEP8QPainterRK20QStyleOptionViewItemRK11QModelIndex
libdtkwidget.so.2:_ZNK18NavigationDelegate8sizeHintERK20QStyleOptionViewItemRK11QModelIndex
libdtkwidget.so.2:_ZNK19ShortcutEditPrivate10stringSizeERK7QString
libdtkwidget.so.2:_ZNK19ShortcutEditPrivate12drawTextRectERK5QRectRK7QStringR8QPainter
libdtkwidget.so.2:_ZNK26StartupNotificationMonitor10metaObjectEv
libdtkwidget.so.2:_ZNK3Dtk6Widget10DBoxWidget10metaObjectEv
libdtkwidget.so.2:_ZNK3Dtk6Widget10DBoxWidget6layoutEv
libdtkwidget.so.2:_ZNK3Dtk6Widget10DBoxWidget8sizeHintEv
libdtkwidget.so.2:_ZNK3Dtk6Widget10DBoxWidget9directionEv
libdtkwidget.so.2:_ZNK3Dtk6Widget10DCrumbEdit10metaObjectEv
libdtkwidget.so.2:_ZNK3Dtk6Widget10DCrumbEdit11crumbRadiusEv
libdtkwidget.so.2:_ZNK3Dtk6Widget10DCrumbEdit12containCrumbERK7QString
libdtkwidget.so.2:_ZNK3Dtk6Widget10DCrumbEdit13crumbReadOnlyEv
libdtkwidget.so.2:_ZNK3Dtk6Widget10DCrumbEdit14makeTextFormatENS1_9CrumbTypeE
libdtkwidget.so.2:_ZNK3Dtk6Widget10DCrumbEdit14makeTextFormatEv
libdtkwidget.so.2:_ZNK3Dtk6Widget10DCrumbEdit15crumbTextFormatERK7QString
libdtkwidget.so.2:_ZNK3Dtk6Widget10DCrumbEdit18dualClickMakeCrumbEv
libdtkwidget.so.2:_ZNK3Dtk6Widget10DCrumbEdit21canInsertFromMimeDataEPK9QMimeData
libdtkwidget.so.2:_ZNK3Dtk6Widget10DCrumbEdit27createMimeDataFromSelectionEv
libdtkwidget.so.2:_ZNK3Dtk6Widget10DCrumbEdit8splitterEv
libdtkwidget.so.2:_ZNK3Dtk6Widget10DCrumbEdit9crumbListEv
libdtkwidget.so.2:_ZNK3Dtk6Widget10DScrollBar10metaObjectEv
libdtkwidget.so.2:_ZNK3Dtk6Widget10DScrollBar8autoHideEv
libdtkwidget.so.2:_ZNK3Dtk6Widget10LoadSlider15loadSliderColorEv
libdtkwidget.so.2:_ZNK3Dtk6Widget10Navigation10metaObjectEv
libdtkwidget.so.2:_ZNK3Dtk6Widget11DBaseButton10metaObjectEv
libdtkwidget.so.2:_ZNK3Dtk6Widget11DBaseExpand10metaObjectEv
libdtkwidget.so.2:_ZNK3Dtk6Widget11DBaseExpand6expandEv
libdtkwidget.so.2:_ZNK3Dtk6Widget11DButtonList10metaObjectEv
libdtkwidget.so.2:_ZNK3Dtk6Widget11DFileDialog10metaObjectEv
libdtkwidget.so.2:_ZNK3Dtk6Widget11DFileDialog16getComboBoxValueERK7QString
libdtkwidget.so.2:_ZNK3Dtk6Widget11DFileDialog16getLineEditValueERK7QString
libdtkwidget.so.2:_ZNK3Dtk6Widget11DFlowLayout10metaObjectEv
libdtkwidget.so.2:_ZNK3Dtk6Widget11DFlowLayout11minimumSizeEv
libdtkwidget.so.2:_ZNK3Dtk6Widget11DFlowLayout14heightForWidthEi
libdtkwidget.so.2:_ZNK3Dtk6Widget11DFlowLayout15sizeHintChangedE5QSize
libdtkwidget.so.2:_ZNK3Dtk6Widget11DFlowLayout15verticalSpacingEv
libdtkwidget.so.2:_ZNK3Dtk6Widget11DFlowLayout17hasHeightForWidthEv
libdtkwidget.so.2:_ZNK3Dtk6Widget11DFlowLayout17horizontalSpacingEv
libdtkwidget.so.2:_ZNK3Dtk6Widget11DFlowLayout19expandingDirectionsEv
libdtkwidget.so.2:_ZNK3Dtk6Widget11DFlowLayout4flowEv
libdtkwidget.so.2:_ZNK3Dtk6Widget11DFlowLayout5countEv
libdtkwidget.so.2:_ZNK3Dtk6Widget11DFlowLayout6itemAtEi
libdtkwidget.so.2:_ZNK3Dtk6Widget11DFlowLayout8sizeHintEv
libdtkwidget.so.2:_ZNK3Dtk6Widget11DHBoxWidget10metaObjectEv
libdtkwidget.so.2:_ZNK3Dtk6Widget11DHeaderLine10metaObjectEv
libdtkwidget.so.2:_ZNK3Dtk6Widget11DHeaderLine5titleEv
libdtkwidget.so.2:_ZNK3Dtk6Widget11DIconButton10metaObjectEv
libdtkwidget.so.2:_ZNK3Dtk6Widget11DLinkButton10metaObjectEv
libdtkwidget.so.2:_ZNK3Dtk6Widget11DListWidget10metaObjectEv
libdtkwidget.so.2:_ZNK3Dtk6Widget11DListWidget10toggleableEv
libdtkwidget.so.2:_ZNK3Dtk6Widget11DListWidget10widgetListEv
libdtkwidget.so.2:_ZNK3Dtk6Widget11DListWidget11checkedListEv
libdtkwidget.so.2:_ZNK3Dtk6Widget11DListWidget12contentsRectEv
libdtkwidget.so.2:_ZNK3Dtk6Widget11DListWidget12firstCheckedEv
libdtkwidget.so.2:_ZNK3Dtk6Widget11DListWidget12visibleCountEv
libdtkwidget.so.2:_ZNK3Dtk6Widget11DListWidget15contentsMarginsEv
libdtkwidget.so.2:_ZNK3Dtk6Widget11DListWidget18getContentsMarginsEPiS2_S2_S2_
libdtkwidget.so.2:_ZNK3Dtk6Widget11DListWidget20enableVerticalScrollEv
libdtkwidget.so.2:_ZNK3Dtk6Widget11DListWidget22enableHorizontalScrollEv
libdtkwidget.so.2:_ZNK3Dtk6Widget11DListWidget5countEv
libdtkwidget.so.2:_ZNK3Dtk6Widget11DListWidget7spacingEv
libdtkwidget.so.2:_ZNK3Dtk6Widget11DListWidget8itemSizeEv
libdtkwidget.so.2:_ZNK3Dtk6Widget11DListWidget8sizeHintEv
libdtkwidget.so.2:_ZNK3Dtk6Widget11DListWidget9checkModeEv
libdtkwidget.so.2:_ZNK3Dtk6Widget11DListWidget9checkableEv
libdtkwidget.so.2:_ZNK3Dtk6Widget11DListWidget9directionEv
libdtkwidget.so.2:_ZNK3Dtk6Widget11DListWidget9getWidgetEi
libdtkwidget.so.2:_ZNK3Dtk6Widget11DListWidget9isCheckedEi
libdtkwidget.so.2:_ZNK3Dtk6Widget11DMainWindow10metaObjectEv
libdtkwidget.so.2:_ZNK3Dtk6Widget11DMainWindow11borderColorEv
libdtkwidget.so.2:_ZNK3Dtk6Widget11DMainWindow11borderWidthEv
libdtkwidget.so.2:_ZNK3Dtk6Widget11DMainWindow11shadowColorEv
libdtkwidget.so.2:_ZNK3Dtk6Widget11DMainWindow12frameMarginsEv
libdtkwidget.so.2:_ZNK3Dtk6Widget11DMainWindow12isDXcbWindowEv
libdtkwidget.so.2:_ZNK3Dtk6Widget11DMainWindow12shadowOffsetEv
libdtkwidget.so.2:_ZNK3Dtk6Widget11DMainWindow12shadowRadiusEv
libdtkwidget.so.2:_ZNK3Dtk6Widget11DMainWindow12windowRadiusEv
libdtkwidget.so.2:_ZNK3Dtk6Widget11DMainWindow16enableBlurWindowEv
libdtkwidget.so.2:_ZNK3Dtk6Widget11DMainWindow16enableSystemMoveEv
libdtkwidget.so.2:_ZNK3Dtk6Widget11DMainWindow18enableSystemResizeEv
libdtkwidget.so.2:_ZNK3Dtk6Widget11DMainWindow21translucentBackgroundEv
libdtkwidget.so.2:_ZNK3Dtk6Widget11DMainWindow23autoInputMaskByClipPathEv
libdtkwidget.so.2:_ZNK3Dtk6Widget11DMainWindow8clipPathEv
libdtkwidget.so.2:_ZNK3Dtk6Widget11DMainWindow8titlebarEv
libdtkwidget.so.2:_ZNK3Dtk6Widget11DMainWindow9frameMaskEv
libdtkwidget.so.2:_ZNK3Dtk6Widget11DOptionList10metaObjectEv
libdtkwidget.so.2:_ZNK3Dtk6Widget11DPushButton10metaObjectEv
libdtkwidget.so.2:_ZNK3Dtk6Widget11DPushButton10normalIconEv
libdtkwidget.so.2:_ZNK3Dtk6Widget11DPushButton9hoverIconEv
libdtkwidget.so.2:_ZNK3Dtk6Widget11DPushButton9pressIconEv
libdtkwidget.so.2:_ZNK3Dtk6Widget11DScrollArea10metaObjectEv
libdtkwidget.so.2:_ZNK3Dtk6Widget11DScrollArea17autoHideScrollBarEv
libdtkwidget.so.2:_ZNK3Dtk6Widget11DSearchEdit10metaObjectEv
libdtkwidget.so.2:_ZNK3Dtk6Widget11DSearchEdit11getLineEditEv
libdtkwidget.so.2:_ZNK3Dtk6Widget11DSearchEdit4textEv
libdtkwidget.so.2:_ZNK3Dtk6Widget11DTextButton10metaObjectEv
libdtkwidget.so.2:_ZNK3Dtk6Widget11DTickEffect10metaObjectEv
libdtkwidget.so.2:_ZNK3Dtk6Widget11DVBoxWidget10metaObjectEv
libdtkwidget.so.2:_ZNK3Dtk6Widget12DAboutDialog10metaObjectEv
libdtkwidget.so.2:_ZNK3Dtk6Widget12DAboutDialog11companyLogoEv
libdtkwidget.so.2:_ZNK3Dtk6Widget12DAboutDialog11descriptionEv
libdtkwidget.so.2:_ZNK3Dtk6Widget12DAboutDialog11productNameEv
libdtkwidget.so.2:_ZNK3Dtk6Widget12DAboutDialog11websiteLinkEv
libdtkwidget.so.2:_ZNK3Dtk6Widget12DAboutDialog11websiteNameEv
libdtkwidget.so.2:_ZNK3Dtk6Widget12DAboutDialog11windowTitleEv
libdtkwidget.so.2:_ZNK3Dtk6Widget12DAboutDialog19acknowledgementLinkEv
libdtkwidget.so.2:_ZNK3Dtk6Widget12DAboutDialog7licenseEv
libdtkwidget.so.2:_ZNK3Dtk6Widget12DAboutDialog7versionEv
libdtkwidget.so.2:_ZNK3Dtk6Widget12DAnchorsBase10leftMarginEv
libdtkwidget.so.2:_ZNK3Dtk6Widget12DAnchorsBase10metaObjectEv
libdtkwidget.so.2:_ZNK3Dtk6Widget12DAnchorsBase11errorStringEv
libdtkwidget.so.2:_ZNK3Dtk6Widget12DAnchorsBase11rightMarginEv
libdtkwidget.so.2:_ZNK3Dtk6Widget12DAnchorsBase12bottomMarginEv
libdtkwidget.so.2:_ZNK3Dtk6Widget12DAnchorsBase14enhancedWidgetEv
libdtkwidget.so.2:_ZNK3Dtk6Widget12DAnchorsBase14verticalCenterEv
libdtkwidget.so.2:_ZNK3Dtk6Widget12DAnchorsBase16horizontalCenterEv
libdtkwidget.so.2:_ZNK3Dtk6Widget12DAnchorsBase17alignWhenCenteredEv
libdtkwidget.so.2:_ZNK3Dtk6Widget12DAnchorsBase20verticalCenterOffsetEv
libdtkwidget.so.2:_ZNK3Dtk6Widget12DAnchorsBase22horizontalCenterOffsetEv
libdtkwidget.so.2:_ZNK3Dtk6Widget12DAnchorsBase3topEv
libdtkwidget.so.2:_ZNK3Dtk6Widget12DAnchorsBase4fillEv
libdtkwidget.so.2:_ZNK3Dtk6Widget12DAnchorsBase4leftEv
libdtkwidget.so.2:_ZNK3Dtk6Widget12DAnchorsBase5rightEv
libdtkwidget.so.2:_ZNK3Dtk6Widget12DAnchorsBase6bottomEv
libdtkwidget.so.2:_ZNK3Dtk6Widget12DAnchorsBase6targetEv
libdtkwidget.so.2:_ZNK3Dtk6Widget12DAnchorsBase7anchorsEv
libdtkwidget.so.2:_ZNK3Dtk6Widget12DAnchorsBase7enabledEv
libdtkwidget.so.2:_ZNK3Dtk6Widget12DAnchorsBase7marginsEv
libdtkwidget.so.2:_ZNK3Dtk6Widget12DAnchorsBase8centerInEv
libdtkwidget.so.2:_ZNK3Dtk6Widget12DAnchorsBase9errorCodeEv
libdtkwidget.so.2:_ZNK3Dtk6Widget12DAnchorsBase9isBindingEPKNS0_11DAnchorInfoE
libdtkwidget.so.2:_ZNK3Dtk6Widget12DAnchorsBase9topMarginEv
libdtkwidget.so.2:_ZNK3Dtk6Widget12DApplication10metaObjectEv
libdtkwidget.so.2:_ZNK3Dtk6Widget12DApplication11productIconEv
libdtkwidget.so.2:_ZNK3Dtk6Widget12DApplication11productNameEv
libdtkwidget.so.2:_ZNK3Dtk6Widget12DApplication15visibleMenuIconEv
libdtkwidget.so.2:_ZNK3Dtk6Widget12DApplication18applicationLicenseEv
libdtkwidget.so.2:_ZNK3Dtk6Widget12DApplication19applicationHomePageEv
libdtkwidget.so.2:_ZNK3Dtk6Widget12DApplication22applicationDescriptionEv
libdtkwidget.so.2:_ZNK3Dtk6Widget12DApplication23visibleMenuShortcutTextEv
libdtkwidget.so.2:_ZNK3Dtk6Widget12DApplication25visibleMenuCheckboxWidgetEv
libdtkwidget.so.2:_ZNK3Dtk6Widget12DApplication30applicationAcknowledgementPageEv
libdtkwidget.so.2:_ZNK3Dtk6Widget12DApplication33applicationAcknowledgementVisibleEv
libdtkwidget.so.2:_ZNK3Dtk6Widget12DApplication5themeEv
libdtkwidget.so.2:_ZNK3Dtk6Widget12DArrowButton10metaObjectEv
libdtkwidget.so.2:_ZNK3Dtk6Widget12DArrowButton11buttonStateEv
libdtkwidget.so.2:_ZNK3Dtk6Widget12DArrowButton14arrowDirectionEv
libdtkwidget.so.2:_ZNK3Dtk6Widget12DExpandGroup10metaObjectEv
libdtkwidget.so.2:_ZNK3Dtk6Widget12DExpandGroup13checkedExpandEv
libdtkwidget.so.2:_ZNK3Dtk6Widget12DExpandGroup2idEPNS0_11DBaseExpandE
libdtkwidget.so.2:_ZNK3Dtk6Widget12DExpandGroup6expandEi
libdtkwidget.so.2:_ZNK3Dtk6Widget12DExpandGroup7expandsEv
libdtkwidget.so.2:_ZNK3Dtk6Widget12DExpandGroup9checkedIdEv
libdtkwidget.so.2:_ZNK3Dtk6Widget12DImageButton10metaObjectEv
libdtkwidget.so.2:_ZNK3Dtk6Widget12DImageButton11getHoverPicEv
libdtkwidget.so.2:_ZNK3Dtk6Widget12DImageButton11getPressPicEv
libdtkwidget.so.2:_ZNK3Dtk6Widget12DImageButton11isCheckableEv
libdtkwidget.so.2:_ZNK3Dtk6Widget12DImageButton12getNormalPicEv
libdtkwidget.so.2:_ZNK3Dtk6Widget12DImageButton13getCheckedPicEv
libdtkwidget.so.2:_ZNK3Dtk6Widget12DImageButton14getDisabledPicEv
libdtkwidget.so.2:_ZNK3Dtk6Widget12DImageButton8getStateEv
libdtkwidget.so.2:_ZNK3Dtk6Widget12DImageButton9isCheckedEv
libdtkwidget.so.2:_ZNK3Dtk6Widget12DInputDialog10intMaximumEv
libdtkwidget.so.2:_ZNK3Dtk6Widget12DInputDialog10intMinimumEv
libdtkwidget.so.2:_ZNK3Dtk6Widget12DInputDialog10metaObjectEv
libdtkwidget.so.2:_ZNK3Dtk6Widget12DInputDialog11doubleValueEv
libdtkwidget.so.2:_ZNK3Dtk6Widget12DInputDialog11isTextAlertEv
libdtkwidget.so.2:_ZNK3Dtk6Widget12DInputDialog12okButtonTextEv
libdtkwidget.so.2:_ZNK3Dtk6Widget12DInputDialog12textEchoModeEv
libdtkwidget.so.2:_ZNK3Dtk6Widget12DInputDialog13comboBoxItemsEv
libdtkwidget.so.2:_ZNK3Dtk6Widget12DInputDialog13doubleMaximumEv
libdtkwidget.so.2:_ZNK3Dtk6Widget12DInputDialog13doubleMinimumEv
libdtkwidget.so.2:_ZNK3Dtk6Widget12DInputDialog14doubleDecimalsEv
libdtkwidget.so.2:_ZNK3Dtk6Widget12DInputDialog16cancelButtonTextEv
libdtkwidget.so.2:_ZNK3Dtk6Widget12DInputDialog17okButtonIsEnabledEv
libdtkwidget.so.2:_ZNK3Dtk6Widget12DInputDialog18isComboBoxEditableEv
libdtkwidget.so.2:_ZNK3Dtk6Widget12DInputDialog20comboBoxCurrentIndexEv
libdtkwidget.so.2:_ZNK3Dtk6Widget12DInputDialog7intStepEv
libdtkwidget.so.2:_ZNK3Dtk6Widget12DInputDialog8intValueEv
libdtkwidget.so.2:_ZNK3Dtk6Widget12DInputDialog9inputModeEv
libdtkwidget.so.2:_ZNK3Dtk6Widget12DInputDialog9textValueEv
libdtkwidget.so.2:_ZNK3Dtk6Widget12DStackWidget10metaObjectEv
libdtkwidget.so.2:_ZNK3Dtk6Widget12DStackWidget10transitionEv
libdtkwidget.so.2:_ZNK3Dtk6Widget12DStackWidget12currentIndexEv
libdtkwidget.so.2:_ZNK3Dtk6Widget12DStackWidget13animationTypeEv
libdtkwidget.so.2:_ZNK3Dtk6Widget12DStackWidget13currentWidgetEv
libdtkwidget.so.2:_ZNK3Dtk6Widget12DStackWidget16getWidgetByIndexEi
libdtkwidget.so.2:_ZNK3Dtk6Widget12DStackWidget17animationDurationEv
libdtkwidget.so.2:_ZNK3Dtk6Widget12DStackWidget4busyEv
libdtkwidget.so.2:_ZNK3Dtk6Widget12DStackWidget5depthEv
libdtkwidget.so.2:_ZNK3Dtk6Widget12DStackWidget7indexOfEP7QWidget
libdtkwidget.so.2:_ZNK3Dtk6Widget12DSvgRenderer11defaultSizeEv
libdtkwidget.so.2:_ZNK3Dtk6Widget12DSvgRenderer13elementExistsERK7QString
libdtkwidget.so.2:_ZNK3Dtk6Widget12DSvgRenderer15boundsOnElementERK7QString
libdtkwidget.so.2:_ZNK3Dtk6Widget12DSvgRenderer7isValidEv
libdtkwidget.so.2:_ZNK3Dtk6Widget12DSvgRenderer7toImageE5QSizeRK7QString
libdtkwidget.so.2:_ZNK3Dtk6Widget12DSvgRenderer7viewBoxEv
libdtkwidget.so.2:_ZNK3Dtk6Widget12DSvgRenderer8viewBoxFEv
libdtkwidget.so.2:_ZNK3Dtk6Widget12DVideoWidget10brightnessEv
libdtkwidget.so.2:_ZNK3Dtk6Widget12DVideoWidget10metaObjectEv
libdtkwidget.so.2:_ZNK3Dtk6Widget12DVideoWidget10saturationEv
libdtkwidget.so.2:_ZNK3Dtk6Widget12DVideoWidget12currentFrameEv
libdtkwidget.so.2:_ZNK3Dtk6Widget12DVideoWidget15aspectRatioModeEv
libdtkwidget.so.2:_ZNK3Dtk6Widget12DVideoWidget16mirroredVerticalEv
libdtkwidget.so.2:_ZNK3Dtk6Widget12DVideoWidget18mirroredHorizontalEv
libdtkwidget.so.2:_ZNK3Dtk6Widget12DVideoWidget21sourceVideoPixelRatioEv
libdtkwidget.so.2:_ZNK3Dtk6Widget12DVideoWidget3hueEv
libdtkwidget.so.2:_ZNK3Dtk6Widget12DVideoWidget5roundEv
libdtkwidget.so.2:_ZNK3Dtk6Widget12DVideoWidget5scaleEv
libdtkwidget.so.2:_ZNK3Dtk6Widget12DVideoWidget8contrastEv
libdtkwidget.so.2:_ZNK3Dtk6Widget12DialogButton10buttonTypeEv
libdtkwidget.so.2:_ZNK3Dtk6Widget12DialogButton10metaObjectEv
libdtkwidget.so.2:_ZNK3Dtk6Widget13ContentLoader10metaObjectEv
libdtkwidget.so.2:_ZNK3Dtk6Widget13DIpv4LineEdit10isReadOnlyEv
libdtkwidget.so.2:_ZNK3Dtk6Widget13DIpv4LineEdit10metaObjectEv
libdtkwidget.so.2:_ZNK3Dtk6Widget13DIpv4LineEdit11displayTextEv
libdtkwidget.so.2:_ZNK3Dtk6Widget13DIpv4LineEdit14cursorPositionEv
libdtkwidget.so.2:_ZNK3Dtk6Widget13DIpv4LineEdit18hasAcceptableInputEv
libdtkwidget.so.2:_ZNK3Dtk6Widget13DIpv4LineEdit9alignmentEv
libdtkwidget.so.2:_ZNK3Dtk6Widget13DMPRISControl10metaObjectEv
libdtkwidget.so.2:_ZNK3Dtk6Widget13DMPRISControl11mprisLostedEv
libdtkwidget.so.2:_ZNK3Dtk6Widget13DMPRISControl12mprisChangedEv
libdtkwidget.so.2:_ZNK3Dtk6Widget13DMPRISControl13mprisAcquiredEv
libdtkwidget.so.2:_ZNK3Dtk6Widget13DMPRISControl9isWorkingEv
libdtkwidget.so.2:_ZNK3Dtk6Widget13DPasswordEdit10isEchoModeEv
libdtkwidget.so.2:_ZNK3Dtk6Widget13DPasswordEdit10metaObjectEv
libdtkwidget.so.2:_ZNK3Dtk6Widget13DShortcutEdit10metaObjectEv
libdtkwidget.so.2:_ZNK3Dtk6Widget13DShortcutEdit11toInputModeEv
libdtkwidget.so.2:_ZNK3Dtk6Widget13DShortcutEdit13getKeyMappingEv
libdtkwidget.so.2:_ZNK3Dtk6Widget13DShortcutEdit14setNormalStateEv
libdtkwidget.so.2:_ZNK3Dtk6Widget13DShortcutEdit15setInValidStateEv
libdtkwidget.so.2:_ZNK3Dtk6Widget13DShortcutEdit24getBlockShortcutKeysListEv
libdtkwidget.so.2:_ZNK3Dtk6Widget13DShortcutEdit8sizeHintEv
libdtkwidget.so.2:_ZNK3Dtk6Widget13DSwitchButton10metaObjectEv
libdtkwidget.so.2:_ZNK3Dtk6Widget13DSwitchButton17enabledBackgroundEv
libdtkwidget.so.2:_ZNK3Dtk6Widget13DSwitchButton18disabledBackgroundEv
libdtkwidget.so.2:_ZNK3Dtk6Widget13DSwitchButton7checkedEv
libdtkwidget.so.2:_ZNK3Dtk6Widget13DSwitchButton8sizeHintEv
libdtkwidget.so.2:_ZNK3Dtk6Widget13DThemeManager10metaObjectEv
libdtkwidget.so.2:_ZNK3Dtk6Widget13DThemeManager15getQssForWidgetE7QStringPK7QWidget
libdtkwidget.so.2:_ZNK3Dtk6Widget13DThemeManager15getQssForWidgetE7QStringRKS2_
libdtkwidget.so.2:_ZNK3Dtk6Widget13DThemeManager15getQssForWidgetEPK7QWidget
libdtkwidget.so.2:_ZNK3Dtk6Widget13DThemeManager5themeEPK7QWidgetPPS2_
libdtkwidget.so.2:_ZNK3Dtk6Widget13DThemeManager5themeEv
libdtkwidget.so.2:_ZNK3Dtk6Widget13DThemeManager9themeTypeEPK7QWidget
libdtkwidget.so.2:_ZNK3Dtk6Widget13DThemeManager9themeTypeEv
libdtkwidget.so.2:_ZNK3Dtk6Widget13DTrashManager12trashIsEmptyEv
libdtkwidget.so.2:_ZNK3Dtk6Widget14DDialogPrivate11elideStringE7QStringRK12QFontMetricsi
libdtkwidget.so.2:_ZNK3Dtk6Widget14DDialogPrivate7trimTagE7QString
libdtkwidget.so.2:_ZNK3Dtk6Widget14DDialogPrivate8scanTagsE7QString
libdtkwidget.so.2:_ZNK3Dtk6Widget14DDialogPrivate9getScreenEv
libdtkwidget.so.2:_ZNK3Dtk6Widget14DDoubleSpinBox10metaObjectEv
libdtkwidget.so.2:_ZNK3Dtk6Widget14DDoubleSpinBox12defaultValueEv
libdtkwidget.so.2:_ZNK3Dtk6Widget14DDoubleSpinBox7isAlertEv
libdtkwidget.so.2:_ZNK3Dtk6Widget14DForeignWindow10metaObjectEv
libdtkwidget.so.2:_ZNK3Dtk6Widget14DForeignWindow3pidEv
libdtkwidget.so.2:_ZNK3Dtk6Widget14DForeignWindow7wmClassEv
libdtkwidget.so.2:_ZNK3Dtk6Widget14DOptionPrivate11checkedIconEv
libdtkwidget.so.2:_ZNK3Dtk6Widget14DOptionPrivate4nameEv
libdtkwidget.so.2:_ZNK3Dtk6Widget14DOptionPrivate5valueEv
libdtkwidget.so.2:_ZNK3Dtk6Widget14DOptionPrivate7checkedEv
libdtkwidget.so.2:_ZNK3Dtk6Widget14DPageIndicator10metaObjectEv
libdtkwidget.so.2:_ZNK3Dtk6Widget14DPageIndicator10pointColorEv
libdtkwidget.so.2:_ZNK3Dtk6Widget14DPageIndicator11pointRadiusEv
libdtkwidget.so.2:_ZNK3Dtk6Widget14DPageIndicator13pointDistanceEv
libdtkwidget.so.2:_ZNK3Dtk6Widget14DPageIndicator16currentPageIndexEv
libdtkwidget.so.2:_ZNK3Dtk6Widget14DPageIndicator19secondaryPointColorEv
libdtkwidget.so.2:_ZNK3Dtk6Widget14DPageIndicator20secondaryPointRadiusEv
libdtkwidget.so.2:_ZNK3Dtk6Widget14DPageIndicator9pageCountEv
libdtkwidget.so.2:_ZNK3Dtk6Widget14DRegionMonitor10cursorMoveERK6QPoint
libdtkwidget.so.2:_ZNK3Dtk6Widget14DRegionMonitor10keyReleaseERK7QString
libdtkwidget.so.2:_ZNK3Dtk6Widget14DRegionMonitor10metaObjectEv
libdtkwidget.so.2:_ZNK3Dtk6Widget14DRegionMonitor10registeredEv
libdtkwidget.so.2:_ZNK3Dtk6Widget14DRegionMonitor11buttonPressERK6QPointi
libdtkwidget.so.2:_ZNK3Dtk6Widget14DRegionMonitor13buttonReleaseERK6QPointi
libdtkwidget.so.2:_ZNK3Dtk6Widget14DRegionMonitor13watchedRegionEv
libdtkwidget.so.2:_ZNK3Dtk6Widget14DRegionMonitor14coordinateTypeEv
libdtkwidget.so.2:_ZNK3Dtk6Widget14DRegionMonitor21coordinateTypeChangedENS1_14CoordinateTypeE
libdtkwidget.so.2:_ZNK3Dtk6Widget14DRegionMonitor8keyPressERK7QString
libdtkwidget.so.2:_ZNK3Dtk6Widget14DSliderPrivate20pixelPosToRangeValueEi
libdtkwidget.so.2:_ZNK3Dtk6Widget14DSuggestButton10metaObjectEv
libdtkwidget.so.2:_ZNK3Dtk6Widget14DTabBarPrivate10metaObjectEv
libdtkwidget.so.2:_ZNK3Dtk6Widget14DTabBarPrivate11tabSizeHintEi
libdtkwidget.so.2:_ZNK3Dtk6Widget14DTabBarPrivate15initStyleOptionEP15QStyleOptionTabi
libdtkwidget.so.2:_ZNK3Dtk6Widget14DTabBarPrivate15minimumSizeHintEv
libdtkwidget.so.2:_ZNK3Dtk6Widget14DTabBarPrivate18minimumTabSizeHintEi
libdtkwidget.so.2:_ZNK3Dtk6Widget14DTabBarPrivate2ddEv
libdtkwidget.so.2:_ZNK3Dtk6Widget14DWaterProgress10metaObjectEv
libdtkwidget.so.2:_ZNK3Dtk6Widget14DWaterProgress5valueEv
libdtkwidget.so.2:_ZNK3Dtk6Widget15ArrowButtonIcon10metaObjectEv
libdtkwidget.so.2:_ZNK3Dtk6Widget15ArrowButtonIcon11buttonStateEv
libdtkwidget.so.2:_ZNK3Dtk6Widget15ArrowButtonIcon14arrowDirectionEv
libdtkwidget.so.2:_ZNK3Dtk6Widget15ArrowHeaderLine10metaObjectEv
libdtkwidget.so.2:_ZNK3Dtk6Widget15DAbstractDialog10metaObjectEv
libdtkwidget.so.2:_ZNK3Dtk6Widget15DAbstractDialog11borderColorEv
libdtkwidget.so.2:_ZNK3Dtk6Widget15DAbstractDialog15backgroundColorEv
libdtkwidget.so.2:_ZNK3Dtk6Widget15DAbstractDialog15displayPositionEv
libdtkwidget.so.2:_ZNK3Dtk6Widget15DArrowRectangle10arrowWidthEv
libdtkwidget.so.2:_ZNK3Dtk6Widget15DArrowRectangle10getContentEv
libdtkwidget.so.2:_ZNK3Dtk6Widget15DArrowRectangle10metaObjectEv
libdtkwidget.so.2:_ZNK3Dtk6Widget15DArrowRectangle11arrowHeightEv
libdtkwidget.so.2:_ZNK3Dtk6Widget15DArrowRectangle11borderColorEv
libdtkwidget.so.2:_ZNK3Dtk6Widget15DArrowRectangle11borderWidthEv
libdtkwidget.so.2:_ZNK3Dtk6Widget15DArrowRectangle13shadowXOffsetEv
libdtkwidget.so.2:_ZNK3Dtk6Widget15DArrowRectangle13shadowYOffsetEv
libdtkwidget.so.2:_ZNK3Dtk6Widget15DArrowRectangle14arrowDirectionEv
libdtkwidget.so.2:_ZNK3Dtk6Widget15DArrowRectangle15backgroundColorEv
libdtkwidget.so.2:_ZNK3Dtk6Widget15DArrowRectangle16shadowBlurRadiusEv
libdtkwidget.so.2:_ZNK3Dtk6Widget15DArrowRectangle16windowDeactivateEv
libdtkwidget.so.2:_ZNK3Dtk6Widget15DArrowRectangle6arrowXEv
libdtkwidget.so.2:_ZNK3Dtk6Widget15DArrowRectangle6arrowYEv
libdtkwidget.so.2:_ZNK3Dtk6Widget15DArrowRectangle6marginEv
libdtkwidget.so.2:_ZNK3Dtk6Widget15DArrowRectangle6radiusEv
libdtkwidget.so.2:_ZNK3Dtk6Widget15DCircleProgress10chunkColorEv
libdtkwidget.so.2:_ZNK3Dtk6Widget15DCircleProgress10metaObjectEv
libdtkwidget.so.2:_ZNK3Dtk6Widget15DCircleProgress12valueChangedEi
libdtkwidget.so.2:_ZNK3Dtk6Widget15DCircleProgress15backgroundColorEv
libdtkwidget.so.2:_ZNK3Dtk6Widget15DCircleProgress4textEv
libdtkwidget.so.2:_ZNK3Dtk6Widget15DCircleProgress5valueEv
libdtkwidget.so.2:_ZNK3Dtk6Widget15DCircleProgress9lineWidthEv
libdtkwidget.so.2:_ZNK3Dtk6Widget15DEnhancedWidget10metaObjectEv
libdtkwidget.so.2:_ZNK3Dtk6Widget15DEnhancedWidget6targetEv
libdtkwidget.so.2:_ZNK3Dtk6Widget15DEnhancedWidget7enabledEv
libdtkwidget.so.2:_ZNK3Dtk6Widget15DSettingsDialog10metaObjectEv
libdtkwidget.so.2:_ZNK3Dtk6Widget15DSettingsDialog13widgetFactoryEv
libdtkwidget.so.2:_ZNK3Dtk6Widget15DSimpleListItem10metaObjectEv
libdtkwidget.so.2:_ZNK3Dtk6Widget15DSimpleListView10metaObjectEv
libdtkwidget.so.2:_ZNK3Dtk6Widget15FilterMouseMove10metaObjectEv
libdtkwidget.so.2:_ZNK3Dtk6Widget16DArrowLineExpand10metaObjectEv
libdtkwidget.so.2:_ZNK3Dtk6Widget16DBackgroundGroup10metaObjectEv
libdtkwidget.so.2:_ZNK3Dtk6Widget16DCrumbTextFormat10backgroundEv
libdtkwidget.so.2:_ZNK3Dtk6Widget16DCrumbTextFormat16backgroundRadiusEv
libdtkwidget.so.2:_ZNK3Dtk6Widget16DCrumbTextFormat4textEv
libdtkwidget.so.2:_ZNK3Dtk6Widget16DCrumbTextFormat8tagColorEv
libdtkwidget.so.2:_ZNK3Dtk6Widget16DCrumbTextFormat9textColorEv
libdtkwidget.so.2:_ZNK3Dtk6Widget16DFileChooserEdit10metaObjectEv
libdtkwidget.so.2:_ZNK3Dtk6Widget16DFileChooserEdit11nameFiltersEv
libdtkwidget.so.2:_ZNK3Dtk6Widget16DFileChooserEdit21dialogDisplayPositionEv
libdtkwidget.so.2:_ZNK3Dtk6Widget16DFileChooserEdit8fileModeEv
libdtkwidget.so.2:_ZNK3Dtk6Widget16DFontSizeManager13fontPixelSizeENS1_8SizeTypeE
libdtkwidget.so.2:_ZNK3Dtk6Widget16DFontSizeManager3getENS1_8SizeTypeERK5QFont
libdtkwidget.so.2:_ZNK3Dtk6Widget16DKeyboardMonitor10metaObjectEv
libdtkwidget.so.2:_ZNK3Dtk6Widget16DWindowMaxButton10metaObjectEv
libdtkwidget.so.2:_ZNK3Dtk6Widget16DWindowMaxButton11isMaximizedEv
libdtkwidget.so.2:_ZNK3Dtk6Widget16DWindowMinButton10metaObjectEv
libdtkwidget.so.2:_ZNK3Dtk6Widget16VideoFormatProxy10metaObjectEv
libdtkwidget.so.2:_ZNK3Dtk6Widget16VideoFormatProxy12currentFrameEv
libdtkwidget.so.2:_ZNK3Dtk6Widget16VideoFormatProxy17isFormatSupportedERK19QVideoSurfaceFormat
libdtkwidget.so.2:_ZNK3Dtk6Widget16VideoFormatProxy21supportedPixelFormatsEN20QAbstractVideoBuffer10HandleTypeE
libdtkwidget.so.2:_ZNK3Dtk6Widget17DBlurEffectWidget10metaObjectEv
libdtkwidget.so.2:_ZNK3Dtk6Widget17DBlurEffectWidget11blurEnabledEv
libdtkwidget.so.2:_ZNK3Dtk6Widget17DBlurEffectWidget15blurRectXRadiusEv
libdtkwidget.so.2:_ZNK3Dtk6Widget17DBlurEffectWidget15blurRectYRadiusEv
libdtkwidget.so.2:_ZNK3Dtk6Widget17DBlurEffectWidget4modeEv
libdtkwidget.so.2:_ZNK3Dtk6Widget17DBlurEffectWidget6isFullEv
libdtkwidget.so.2:_ZNK3Dtk6Widget17DBlurEffectWidget6radiusEv
libdtkwidget.so.2:_ZNK3Dtk6Widget17DBlurEffectWidget9blendModeEv
libdtkwidget.so.2:_ZNK3Dtk6Widget17DBlurEffectWidget9maskAlphaEv
libdtkwidget.so.2:_ZNK3Dtk6Widget17DBlurEffectWidget9maskColorEv
libdtkwidget.so.2:_ZNK3Dtk6Widget17DBorderlessWidget10metaObjectEv
libdtkwidget.so.2:_ZNK3Dtk6Widget17DBorderlessWidget11shadowColorEv
libdtkwidget.so.2:_ZNK3Dtk6Widget17DBorderlessWidget11shadowWidthEv
libdtkwidget.so.2:_ZNK3Dtk6Widget17DBorderlessWidget12childrenRectEv
libdtkwidget.so.2:_ZNK3Dtk6Widget17DBorderlessWidget12shadowOffsetEv
libdtkwidget.so.2:_ZNK3Dtk6Widget17DBorderlessWidget12titleBarMenuEv
libdtkwidget.so.2:_ZNK3Dtk6Widget17DBorderlessWidget13frameGeometryEv
libdtkwidget.so.2:_ZNK3Dtk6Widget17DBorderlessWidget14childrenRegionEv
libdtkwidget.so.2:_ZNK3Dtk6Widget17DBorderlessWidget14normalGeometryEv
libdtkwidget.so.2:_ZNK3Dtk6Widget17DBorderlessWidget14titlebarHeightEv
libdtkwidget.so.2:_ZNK3Dtk6Widget17DBorderlessWidget15backgroundColorEv
libdtkwidget.so.2:_ZNK3Dtk6Widget17DBorderlessWidget15backgroundImageEv
libdtkwidget.so.2:_ZNK3Dtk6Widget17DBorderlessWidget15contentsMarginsEv
libdtkwidget.so.2:_ZNK3Dtk6Widget17DBorderlessWidget18getContentsMarginsEPiS2_S2_S2_
libdtkwidget.so.2:_ZNK3Dtk6Widget17DBorderlessWidget1xEv
libdtkwidget.so.2:_ZNK3Dtk6Widget17DBorderlessWidget1yEv
libdtkwidget.so.2:_ZNK3Dtk6Widget17DBorderlessWidget3posEv
libdtkwidget.so.2:_ZNK3Dtk6Widget17DBorderlessWidget4sizeEv
libdtkwidget.so.2:_ZNK3Dtk6Widget17DBorderlessWidget5widthEv
libdtkwidget.so.2:_ZNK3Dtk6Widget17DBorderlessWidget6borderEv
libdtkwidget.so.2:_ZNK3Dtk6Widget17DBorderlessWidget6heightEv
libdtkwidget.so.2:_ZNK3Dtk6Widget17DBorderlessWidget6layoutEv
libdtkwidget.so.2:_ZNK3Dtk6Widget17DBorderlessWidget6radiusEv
libdtkwidget.so.2:_ZNK3Dtk6Widget17DBorderlessWidget8geometryEv
libdtkwidget.so.2:_ZNK3Dtk6Widget17DBorderlessWidget8titlebarEv
libdtkwidget.so.2:_ZNK3Dtk6Widget17DBorderlessWidget9frameSizeEv
libdtkwidget.so.2:_ZNK3Dtk6Widget17DBorderlessWindow10metaObjectEv
libdtkwidget.so.2:_ZNK3Dtk6Widget17DBorderlessWindow12parentWidgetEv
libdtkwidget.so.2:_ZNK3Dtk6Widget17DClipEffectWidget10metaObjectEv
libdtkwidget.so.2:_ZNK3Dtk6Widget17DClipEffectWidget7marginsEv
libdtkwidget.so.2:_ZNK3Dtk6Widget17DClipEffectWidget8clipPathEv
libdtkwidget.so.2:_ZNK3Dtk6Widget17DFileIconProvider4iconERK9QFileInfo
libdtkwidget.so.2:_ZNK3Dtk6Widget17DFileIconProvider4iconERK9QFileInfoRK5QIcon
libdtkwidget.so.2:_ZNK3Dtk6Widget17DLoadingIndicator10metaObjectEv
libdtkwidget.so.2:_ZNK3Dtk6Widget17DLoadingIndicator11aniDurationEv
libdtkwidget.so.2:_ZNK3Dtk6Widget17DLoadingIndicator11imageSourceEv
libdtkwidget.so.2:_ZNK3Dtk6Widget17DLoadingIndicator12widgetSourceEv
libdtkwidget.so.2:_ZNK3Dtk6Widget17DLoadingIndicator13aniEasingTypeEv
libdtkwidget.so.2:_ZNK3Dtk6Widget17DLoadingIndicator15backgroundColorEv
libdtkwidget.so.2:_ZNK3Dtk6Widget17DLoadingIndicator6rotateEv
libdtkwidget.so.2:_ZNK3Dtk6Widget17DLoadingIndicator6smoothEv
libdtkwidget.so.2:_ZNK3Dtk6Widget17DLoadingIndicator7loadingEv
libdtkwidget.so.2:_ZNK3Dtk6Widget17DLoadingIndicator8sizeHintEv
libdtkwidget.so.2:_ZNK3Dtk6Widget17DLoadingIndicator9directionEv
libdtkwidget.so.2:_ZNK3Dtk6Widget17DSegmentedControl10metaObjectEv
libdtkwidget.so.2:_ZNK3Dtk6Widget17DSegmentedControl12currentIndexEv
libdtkwidget.so.2:_ZNK3Dtk6Widget17DSegmentedControl12indexByTitleERK7QString
libdtkwidget.so.2:_ZNK3Dtk6Widget17DSegmentedControl13animationTypeEv
libdtkwidget.so.2:_ZNK3Dtk6Widget17DSegmentedControl17animationDurationEv
libdtkwidget.so.2:_ZNK3Dtk6Widget17DSegmentedControl2atEi
libdtkwidget.so.2:_ZNK3Dtk6Widget17DSegmentedControl5countEv
libdtkwidget.so.2:_ZNK3Dtk6Widget17DSegmentedControl7getIconEi
libdtkwidget.so.2:_ZNK3Dtk6Widget17DSegmentedControl7getTextEi
libdtkwidget.so.2:_ZNK3Dtk6Widget17DSegmentedControl9highlightEv
libdtkwidget.so.2:_ZNK3Dtk6Widget17DSwitchHeaderLine10metaObjectEv
libdtkwidget.so.2:_ZNK3Dtk6Widget17DSwitchLineExpand10metaObjectEv
libdtkwidget.so.2:_ZNK3Dtk6Widget17DVariantListModel4dataERK11QModelIndexi
libdtkwidget.so.2:_ZNK3Dtk6Widget17DVariantListModel8rowCountERK11QModelIndex
libdtkwidget.so.2:_ZNK3Dtk6Widget18DFlowLayoutPrivate8doLayoutERK5QRectb
libdtkwidget.so.2:_ZNK3Dtk6Widget18DSeparatorVertical10metaObjectEv
libdtkwidget.so.2:_ZNK3Dtk6Widget18DShortcutEditLabel10metaObjectEv
libdtkwidget.so.2:_ZNK3Dtk6Widget18DThumbnailProvider10metaObjectEv
libdtkwidget.so.2:_ZNK3Dtk6Widget18DThumbnailProvider11errorStringEv
libdtkwidget.so.2:_ZNK3Dtk6Widget18DThumbnailProvider12hasThumbnailERK9QFileInfo
libdtkwidget.so.2:_ZNK3Dtk6Widget18DThumbnailProvider12hasThumbnailERK9QMimeType
libdtkwidget.so.2:_ZNK3Dtk6Widget18DThumbnailProvider16defaultSizeLimitEv
libdtkwidget.so.2:_ZNK3Dtk6Widget18DThumbnailProvider16thumbnailChangedERK7QStringS4_
libdtkwidget.so.2:_ZNK3Dtk6Widget18DThumbnailProvider17thumbnailFilePathERK9QFileInfoNS1_4SizeE
libdtkwidget.so.2:_ZNK3Dtk6Widget18DThumbnailProvider21createThumbnailFailedERK7QString
libdtkwidget.so.2:_ZNK3Dtk6Widget18DThumbnailProvider23createThumbnailFinishedERK7QStringS4_
libdtkwidget.so.2:_ZNK3Dtk6Widget18DThumbnailProvider9sizeLimitERK9QMimeType
libdtkwidget.so.2:_ZNK3Dtk6Widget18DWindowCloseButton10metaObjectEv
libdtkwidget.so.2:_ZNK3Dtk6Widget18DWindowGroupLeader13groupLeaderIdEv
libdtkwidget.so.2:_ZNK3Dtk6Widget18DWindowGroupLeader14clientLeaderIdEv
libdtkwidget.so.2:_ZNK3Dtk6Widget19DApplicationPrivate5themeEv
libdtkwidget.so.2:_ZNK3Dtk6Widget19DGraphicsClipEffect10metaObjectEv
libdtkwidget.so.2:_ZNK3Dtk6Widget19DGraphicsClipEffect7marginsEv
libdtkwidget.so.2:_ZNK3Dtk6Widget19DGraphicsClipEffect8clipPathEv
libdtkwidget.so.2:_ZNK3Dtk6Widget19DGraphicsGlowEffect10metaObjectEv
libdtkwidget.so.2:_ZNK3Dtk6Widget19DGraphicsGlowEffect15boundingRectForERK6QRectF
libdtkwidget.so.2:_ZNK3Dtk6Widget19DPasswdEditAnimated10metaObjectEv
libdtkwidget.so.2:_ZNK3Dtk6Widget19DSegmentedHighlight10metaObjectEv
libdtkwidget.so.2:_ZNK3Dtk6Widget19DSvgRendererPrivate8getImageERK5QSizeRK7QString
libdtkwidget.so.2:_ZNK3Dtk6Widget19DWindowOptionButton10metaObjectEv
libdtkwidget.so.2:_ZNK3Dtk6Widget20CrumbObjectInterface10metaObjectEv
libdtkwidget.so.2:_ZNK3Dtk6Widget20DPictureSequenceView10metaObjectEv
libdtkwidget.so.2:_ZNK3Dtk6Widget20DPictureSequenceView10singleShotEv
libdtkwidget.so.2:_ZNK3Dtk6Widget20DPictureSequenceView12speedChangedEi
libdtkwidget.so.2:_ZNK3Dtk6Widget20DPictureSequenceView5speedEv
libdtkwidget.so.2:_ZNK3Dtk6Widget20DPictureSequenceView7playEndEv
libdtkwidget.so.2:_ZNK3Dtk6Widget20DSeparatorHorizontal10metaObjectEv
libdtkwidget.so.2:_ZNK3Dtk6Widget20DWindowManagerHelper10metaObjectEv
libdtkwidget.so.2:_ZNK3Dtk6Widget20DWindowManagerHelper12hasCompositeEv
libdtkwidget.so.2:_ZNK3Dtk6Widget20DWindowManagerHelper13hasBlurWindowEv
libdtkwidget.so.2:_ZNK3Dtk6Widget20DWindowManagerHelper13hasNoTitlebarEv
libdtkwidget.so.2:_ZNK3Dtk6Widget20DWindowManagerHelper15allWindowIdListEv
libdtkwidget.so.2:_ZNK3Dtk6Widget20DWindowManagerHelper17windowManagerNameEv
libdtkwidget.so.2:_ZNK3Dtk6Widget20DWindowManagerHelper23currentWorkspaceWindowsEv
libdtkwidget.so.2:_ZNK3Dtk6Widget20DWindowManagerHelper23windowManagerNameStringEv
libdtkwidget.so.2:_ZNK3Dtk6Widget20DWindowManagerHelper28currentWorkspaceWindowIdListEv
libdtkwidget.so.2:_ZNK3Dtk6Widget21DPlatformWindowHandle10metaObjectEv
libdtkwidget.so.2:_ZNK3Dtk6Widget21DPlatformWindowHandle11borderColorEv
libdtkwidget.so.2:_ZNK3Dtk6Widget21DPlatformWindowHandle11borderWidthEv
libdtkwidget.so.2:_ZNK3Dtk6Widget21DPlatformWindowHandle11shadowColorEv
libdtkwidget.so.2:_ZNK3Dtk6Widget21DPlatformWindowHandle12frameMarginsEv
libdtkwidget.so.2:_ZNK3Dtk6Widget21DPlatformWindowHandle12realWindowIdEv
libdtkwidget.so.2:_ZNK3Dtk6Widget21DPlatformWindowHandle12shadowOffsetEv
libdtkwidget.so.2:_ZNK3Dtk6Widget21DPlatformWindowHandle12shadowRadiusEv
libdtkwidget.so.2:_ZNK3Dtk6Widget21DPlatformWindowHandle12windowRadiusEv
libdtkwidget.so.2:_ZNK3Dtk6Widget21DPlatformWindowHandle16enableBlurWindowEv
libdtkwidget.so.2:_ZNK3Dtk6Widget21DPlatformWindowHandle16enableSystemMoveEv
libdtkwidget.so.2:_ZNK3Dtk6Widget21DPlatformWindowHandle18enableSystemResizeEv
libdtkwidget.so.2:_ZNK3Dtk6Widget21DPlatformWindowHandle21translucentBackgroundEv
libdtkwidget.so.2:_ZNK3Dtk6Widget21DPlatformWindowHandle23autoInputMaskByClipPathEv
libdtkwidget.so.2:_ZNK3Dtk6Widget21DPlatformWindowHandle8clipPathEv
libdtkwidget.so.2:_ZNK3Dtk6Widget21DPlatformWindowHandle9frameMaskEv
libdtkwidget.so.2:_ZNK3Dtk6Widget21DRegionMonitorPrivate22deviceScaledCoordinateERK6QPointd
libdtkwidget.so.2:_ZNK3Dtk6Widget22DAbstractDialogPrivate17getParentGeometryEv
libdtkwidget.so.2:_ZNK3Dtk6Widget22DSettingsWidgetFactory10metaObjectEv
libdtkwidget.so.2:_ZNK3Dtk6Widget24DBlurEffectWidgetPrivate23isBehindWindowBlendModeEv
libdtkwidget.so.2:_ZNK3Dtk6Widget24DBlurEffectWidgetPrivate6isFullEv
libdtkwidget.so.2:_ZNK3Dtk6Widget24DBorderlessWidgetPrivate10externSizeERK5QSize
libdtkwidget.so.2:_ZNK3Dtk6Widget24DBorderlessWidgetPrivate11externWidthEv
libdtkwidget.so.2:_ZNK3Dtk6Widget24DBorderlessWidgetPrivate13externMarginsEv
libdtkwidget.so.2:_ZNK3Dtk6Widget24DBorderlessWidgetPrivate25_q_onTitleBarMousePressedE6QFlagsIN2Qt11MouseButtonEE
libdtkwidget.so.2:_ZNK3Dtk6Widget24DFileIconProviderPrivate17getFilesystemIconERK9QFileInfo
libdtkwidget.so.2:_ZNK3Dtk6Widget24DFileIconProviderPrivate9fromThemeE7QString
libdtkwidget.so.2:_ZNK3Dtk6Widget25DThumbnailProviderPrivate14sizeToFilePathENS0_18DThumbnailProvider4SizeE
libdtkwidget.so.2:_ZNK3Dtk6Widget27DSlideStackWidgetTransition10metaObjectEv
libdtkwidget.so.2:_ZNK3Dtk6Widget30DAbstractStackWidgetTransition4infoEv
libdtkwidget.so.2:_ZNK3Dtk6Widget30DAbstractStackWidgetTransition9animationEv
libdtkwidget.so.2:_ZNK3Dtk6Widget6DLabel10metaObjectEv
libdtkwidget.so.2:_ZNK3Dtk6Widget6DToast10metaObjectEv
libdtkwidget.so.2:_ZNK3Dtk6Widget6DToast4iconEv
libdtkwidget.so.2:_ZNK3Dtk6Widget6DToast4textEv
libdtkwidget.so.2:_ZNK3Dtk6Widget6DToast7opacityEv
libdtkwidget.so.2:_ZNK3Dtk6Widget6DToast8durationEv
libdtkwidget.so.2:_ZNK3Dtk6Widget7Content10metaObjectEv
libdtkwidget.so.2:_ZNK3Dtk6Widget7Content13widgetFactoryEv
libdtkwidget.so.2:_ZNK3Dtk6Widget7DDialog10getButtonsEv
libdtkwidget.so.2:_ZNK3Dtk6Widget7DDialog10getContentEi
libdtkwidget.so.2:_ZNK3Dtk6Widget7DDialog10iconPixmapEv
libdtkwidget.so.2:_ZNK3Dtk6Widget7DDialog10metaObjectEv
libdtkwidget.so.2:_ZNK3Dtk6Widget7DDialog10textFormatEv
libdtkwidget.so.2:_ZNK3Dtk6Widget7DDialog11buttonCountEv
libdtkwidget.so.2:_ZNK3Dtk6Widget7DDialog11getContentsEv
libdtkwidget.so.2:_ZNK3Dtk6Widget7DDialog12contentCountEv
libdtkwidget.so.2:_ZNK3Dtk6Widget7DDialog20getButtonIndexByTextERK7QString
libdtkwidget.so.2:_ZNK3Dtk6Widget7DDialog20onButtonClickedCloseEv
libdtkwidget.so.2:_ZNK3Dtk6Widget7DDialog28contentLayoutContentsMarginsEv
libdtkwidget.so.2:_ZNK3Dtk6Widget7DDialog4iconEv
libdtkwidget.so.2:_ZNK3Dtk6Widget7DDialog5titleEv
libdtkwidget.so.2:_ZNK3Dtk6Widget7DDialog7messageEv
libdtkwidget.so.2:_ZNK3Dtk6Widget7DDialog9getButtonEi
libdtkwidget.so.2:_ZNK3Dtk6Widget7DOption10metaObjectEv
libdtkwidget.so.2:_ZNK3Dtk6Widget7DOption11checkedIconEv
libdtkwidget.so.2:_ZNK3Dtk6Widget7DOption11sizeChangedERK5QSize
libdtkwidget.so.2:_ZNK3Dtk6Widget7DOption14checkedChangedEb
libdtkwidget.so.2:_ZNK3Dtk6Widget7DOption18checkedIconChangedE7QString
libdtkwidget.so.2:_ZNK3Dtk6Widget7DOption4nameEv
libdtkwidget.so.2:_ZNK3Dtk6Widget7DOption5valueEv
libdtkwidget.so.2:_ZNK3Dtk6Widget7DOption7checkedEv
libdtkwidget.so.2:_ZNK3Dtk6Widget7DSlider10handleTypeEv
libdtkwidget.so.2:_ZNK3Dtk6Widget7DSlider10metaObjectEv
libdtkwidget.so.2:_ZNK3Dtk6Widget7DSlider10scaleColorEv
libdtkwidget.so.2:_ZNK3Dtk6Widget7DSlider14hoverShowValueEv
libdtkwidget.so.2:_ZNK3Dtk6Widget7DSlider15hoverValueColorEv
libdtkwidget.so.2:_ZNK3Dtk6Widget7DSlider22hoverShowValueIntervalEv
libdtkwidget.so.2:_ZNK3Dtk6Widget7DSlider7leftTipEv
libdtkwidget.so.2:_ZNK3Dtk6Widget7DSlider8rightTipEv
libdtkwidget.so.2:_ZNK3Dtk6Widget7DSlider8sizeHintEv
libdtkwidget.so.2:_ZNK3Dtk6Widget7DSlider8tipColorEv
libdtkwidget.so.2:_ZNK3Dtk6Widget7DTabBar10flashColorEv
libdtkwidget.so.2:_ZNK3Dtk6Widget7DTabBar10isDragableEv
libdtkwidget.so.2:_ZNK3Dtk6Widget7DTabBar10metaObjectEv
libdtkwidget.so.2:_ZNK3Dtk6Widget7DTabBar10tabToolTipEi
libdtkwidget.so.2:_ZNK3Dtk6Widget7DTabBar11tabSizeHintEi
libdtkwidget.so.2:_ZNK3Dtk6Widget7DTabBar12currentIndexEv
libdtkwidget.so.2:_ZNK3Dtk6Widget7DTabBar12documentModeEv
libdtkwidget.so.2:_ZNK3Dtk6Widget7DTabBar12isTabEnabledEi
libdtkwidget.so.2:_ZNK3Dtk6Widget7DTabBar12tabWhatsThisEi
libdtkwidget.so.2:_ZNK3Dtk6Widget7DTabBar12tabsClosableEv
libdtkwidget.so.2:_ZNK3Dtk6Widget7DTabBar14dragIconWindowEv
libdtkwidget.so.2:_ZNK3Dtk6Widget7DTabBar16visibleAddButtonEv
libdtkwidget.so.2:_ZNK3Dtk6Widget7DTabBar17startDragDistanceEv
libdtkwidget.so.2:_ZNK3Dtk6Widget7DTabBar17usesScrollButtonsEv
libdtkwidget.so.2:_ZNK3Dtk6Widget7DTabBar18maximumTabSizeHintEi
libdtkwidget.so.2:_ZNK3Dtk6Widget7DTabBar18minimumTabSizeHintEi
libdtkwidget.so.2:_ZNK3Dtk6Widget7DTabBar19changeCurrentOnDragEv
libdtkwidget.so.2:_ZNK3Dtk6Widget7DTabBar21canInsertFromMimeDataEiPK9QMimeData
libdtkwidget.so.2:_ZNK3Dtk6Widget7DTabBar21createMimeDataFromTabEiRK15QStyleOptionTab
libdtkwidget.so.2:_ZNK3Dtk6Widget7DTabBar23createDragPixmapFromTabEiRK15QStyleOptionTabP6QPoint
libdtkwidget.so.2:_ZNK3Dtk6Widget7DTabBar25selectionBehaviorOnRemoveEv
libdtkwidget.so.2:_ZNK3Dtk6Widget7DTabBar5countEv
libdtkwidget.so.2:_ZNK3Dtk6Widget7DTabBar5shapeEv
libdtkwidget.so.2:_ZNK3Dtk6Widget7DTabBar5tabAtERK6QPoint
libdtkwidget.so.2:_ZNK3Dtk6Widget7DTabBar6d_funcEv
libdtkwidget.so.2:_ZNK3Dtk6Widget7DTabBar7tabDataEi
libdtkwidget.so.2:_ZNK3Dtk6Widget7DTabBar7tabIconEi
libdtkwidget.so.2:_ZNK3Dtk6Widget7DTabBar7tabRectEi
libdtkwidget.so.2:_ZNK3Dtk6Widget7DTabBar7tabTextEi
libdtkwidget.so.2:_ZNK3Dtk6Widget7DTabBar8autoHideEv
libdtkwidget.so.2:_ZNK3Dtk6Widget7DTabBar8drawBaseEv
libdtkwidget.so.2:_ZNK3Dtk6Widget7DTabBar8iconSizeEv
libdtkwidget.so.2:_ZNK3Dtk6Widget7DTabBar8paintTabEP8QPainteriRK15QStyleOptionTab
libdtkwidget.so.2:_ZNK3Dtk6Widget7DTabBar9elideModeEv
libdtkwidget.so.2:_ZNK3Dtk6Widget7DTabBar9expandingEv
libdtkwidget.so.2:_ZNK3Dtk6Widget7DTabBar9isMovableEv
libdtkwidget.so.2:_ZNK3Dtk6Widget7DTabBar9maskColorEv
libdtkwidget.so.2:_ZNK3Dtk6Widget7DTabBar9tabButtonEiN7QTabBar14ButtonPositionE
libdtkwidget.so.2:_ZNK3Dtk6Widget8DPalette5brushEN8QPalette10ColorGroupENS1_9ColorTypeE
libdtkwidget.so.2:_ZNK3Dtk6Widget8DSpinBox10metaObjectEv
libdtkwidget.so.2:_ZNK3Dtk6Widget8DSpinBox12defaultValueEv
libdtkwidget.so.2:_ZNK3Dtk6Widget8DSpinBox7isAlertEv
libdtkwidget.so.2:_ZNK3Dtk6Widget8DSpinBox8lineEditEv
libdtkwidget.so.2:_ZNK3Dtk6Widget8DSpinner10metaObjectEv
libdtkwidget.so.2:_ZNK3Dtk6Widget8DSpinner9isPlayingEv
libdtkwidget.so.2:_ZNK3Dtk6Widget9DBaseLine10leftMarginEv
libdtkwidget.so.2:_ZNK3Dtk6Widget9DBaseLine10metaObjectEv
libdtkwidget.so.2:_ZNK3Dtk6Widget9DBaseLine11rightMarginEv
libdtkwidget.so.2:_ZNK3Dtk6Widget9DLineEdit10metaObjectEv
libdtkwidget.so.2:_ZNK3Dtk6Widget9DLineEdit10normalIconEv
libdtkwidget.so.2:_ZNK3Dtk6Widget9DLineEdit11iconClickedEv
libdtkwidget.so.2:_ZNK3Dtk6Widget9DLineEdit11iconVisibleEv
libdtkwidget.so.2:_ZNK3Dtk6Widget9DLineEdit11sizeChangedERK5QSize
libdtkwidget.so.2:_ZNK3Dtk6Widget9DLineEdit12alertChangedEb
libdtkwidget.so.2:_ZNK3Dtk6Widget9DLineEdit12focusChangedEb
libdtkwidget.so.2:_ZNK3Dtk6Widget9DLineEdit7isAlertEv
libdtkwidget.so.2:_ZNK3Dtk6Widget9DLineEdit9hoverIconEv
libdtkwidget.so.2:_ZNK3Dtk6Widget9DLineEdit9pressIconEv
libdtkwidget.so.2:_ZNK3Dtk6Widget9DListView10metaObjectEv
libdtkwidget.so.2:_ZNK3Dtk6Widget9DListView11orientationEv
libdtkwidget.so.2:_ZNK3Dtk6Widget9DListView12isActiveRectERK5QRect
libdtkwidget.so.2:_ZNK3Dtk6Widget9DListView12isVisualRectERK5QRect
libdtkwidget.so.2:_ZNK3Dtk6Widget9DListView15getFooterWidgetEi
libdtkwidget.so.2:_ZNK3Dtk6Widget9DListView15getHeaderWidgetEi
libdtkwidget.so.2:_ZNK3Dtk6Widget9DListView5countEv
libdtkwidget.so.2:_ZNK3Dtk6Widget9DListView5stateEv
libdtkwidget.so.2:_ZNK3Dtk6Widget9DTextEdit10metaObjectEv
libdtkwidget.so.2:_ZNK3Dtk6Widget9DTitlebar10metaObjectEv
libdtkwidget.so.2:_ZNK3Dtk6Widget9DTitlebar12customWidgetEv
libdtkwidget.so.2:_ZNK3Dtk6Widget9DTitlebar12disableFlagsEv
libdtkwidget.so.2:_ZNK3Dtk6Widget9DTitlebar13menuIsVisibleEv
libdtkwidget.so.2:_ZNK3Dtk6Widget9DTitlebar14menuIsDisabledEv
libdtkwidget.so.2:_ZNK3Dtk6Widget9DTitlebar15buttonAreaWidthEv
libdtkwidget.so.2:_ZNK3Dtk6Widget9DTitlebar16separatorVisibleEv
libdtkwidget.so.2:_ZNK3Dtk6Widget9DTitlebar20autoHideOnFullscreenEv
libdtkwidget.so.2:_ZNK3Dtk6Widget9DTitlebar4menuEv
libdtkwidget.so.2:_ZNK8ComboBox10metaObjectEv
libdtkwidget.so.2:_ZNK9DBusMPRIS10metaObjectEv
libdtkwidget.so.2:_ZThn16_N11ButtonGroupD0Ev
libdtkwidget.so.2:_ZThn16_N11ButtonGroupD1Ev
libdtkwidget.so.2:_ZThn16_N12ContentTitleD0Ev
libdtkwidget.so.2:_ZThn16_N12ContentTitleD1Ev
libdtkwidget.so.2:_ZThn16_N12ShortcutEditD0Ev
libdtkwidget.so.2:_ZThn16_N12ShortcutEditD1Ev
libdtkwidget.so.2:_ZThn16_N26StartupNotificationMonitor17nativeEventFilterERK10QByteArrayPvPl
libdtkwidget.so.2:_ZThn16_N26StartupNotificationMonitorD0Ev
libdtkwidget.so.2:_ZThn16_N26StartupNotificationMonitorD1Ev
libdtkwidget.so.2:_ZThn16_N3Dtk6Widget10NavigationD0Ev
libdtkwidget.so.2:_ZThn16_N3Dtk6Widget10NavigationD1Ev
libdtkwidget.so.2:_ZThn16_N3Dtk6Widget11DBaseExpandD0Ev
libdtkwidget.so.2:_ZThn16_N3Dtk6Widget11DBaseExpandD1Ev
libdtkwidget.so.2:_ZThn16_N3Dtk6Widget11DButtonListD0Ev
libdtkwidget.so.2:_ZThn16_N3Dtk6Widget11DButtonListD1Ev
libdtkwidget.so.2:_ZThn16_N3Dtk6Widget11DFlowLayout11setGeometryERK5QRect
libdtkwidget.so.2:_ZThn16_N3Dtk6Widget11DFlowLayoutD0Ev
libdtkwidget.so.2:_ZThn16_N3Dtk6Widget11DFlowLayoutD1Ev
libdtkwidget.so.2:_ZThn16_N3Dtk6Widget11DSearchEditD0Ev
libdtkwidget.so.2:_ZThn16_N3Dtk6Widget11DSearchEditD1Ev
libdtkwidget.so.2:_ZThn16_N3Dtk6Widget11DTextButtonD0Ev
libdtkwidget.so.2:_ZThn16_N3Dtk6Widget11DTextButtonD1Ev
libdtkwidget.so.2:_ZThn16_N3Dtk6Widget12DImageButtonD0Ev
libdtkwidget.so.2:_ZThn16_N3Dtk6Widget12DImageButtonD1Ev
libdtkwidget.so.2:_ZThn16_N3Dtk6Widget12DSvgRendererD0Ev
libdtkwidget.so.2:_ZThn16_N3Dtk6Widget12DSvgRendererD1Ev
libdtkwidget.so.2:_ZThn16_N3Dtk6Widget14DWaterProgressD0Ev
libdtkwidget.so.2:_ZThn16_N3Dtk6Widget14DWaterProgressD1Ev
libdtkwidget.so.2:_ZThn16_N3Dtk6Widget15DArrowRectangleD0Ev
libdtkwidget.so.2:_ZThn16_N3Dtk6Widget15DArrowRectangleD1Ev
libdtkwidget.so.2:_ZThn16_N3Dtk6Widget15DSettingsDialogD0Ev
libdtkwidget.so.2:_ZThn16_N3Dtk6Widget15DSettingsDialogD1Ev
libdtkwidget.so.2:_ZThn16_N3Dtk6Widget15DSimpleListViewD0Ev
libdtkwidget.so.2:_ZThn16_N3Dtk6Widget15DSimpleListViewD1Ev
libdtkwidget.so.2:_ZThn16_N3Dtk6Widget17DBlurEffectWidgetD0Ev
libdtkwidget.so.2:_ZThn16_N3Dtk6Widget17DBlurEffectWidgetD1Ev
libdtkwidget.so.2:_ZThn16_N3Dtk6Widget17DFileIconProviderD0Ev
libdtkwidget.so.2:_ZThn16_N3Dtk6Widget17DFileIconProviderD1Ev
libdtkwidget.so.2:_ZThn16_N3Dtk6Widget17DLoadingIndicatorD0Ev
libdtkwidget.so.2:_ZThn16_N3Dtk6Widget17DLoadingIndicatorD1Ev
libdtkwidget.so.2:_ZThn16_N3Dtk6Widget18DThumbnailProviderD0Ev
libdtkwidget.so.2:_ZThn16_N3Dtk6Widget18DThumbnailProviderD1Ev
libdtkwidget.so.2:_ZThn16_N3Dtk6Widget20CrumbObjectInterface10drawObjectEP8QPainterRK6QRectFP13QTextDocumentiRK11QTextFormat
libdtkwidget.so.2:_ZThn16_N3Dtk6Widget20CrumbObjectInterface13intrinsicSizeEP13QTextDocumentiRK11QTextFormat
libdtkwidget.so.2:_ZThn16_N3Dtk6Widget20DWindowManagerHelperD0Ev
libdtkwidget.so.2:_ZThn16_N3Dtk6Widget20DWindowManagerHelperD1Ev
libdtkwidget.so.2:_ZThn16_N3Dtk6Widget6DToastD0Ev
libdtkwidget.so.2:_ZThn16_N3Dtk6Widget6DToastD1Ev
libdtkwidget.so.2:_ZThn16_N3Dtk6Widget7ContentD0Ev
libdtkwidget.so.2:_ZThn16_N3Dtk6Widget7ContentD1Ev
libdtkwidget.so.2:_ZThn16_N3Dtk6Widget7DSliderD0Ev
libdtkwidget.so.2:_ZThn16_N3Dtk6Widget7DSliderD1Ev
libdtkwidget.so.2:_ZThn16_N3Dtk6Widget8DSpinnerD0Ev
libdtkwidget.so.2:_ZThn16_N3Dtk6Widget8DSpinnerD1Ev
libdtkwidget.so.2:_ZThn16_NK3Dtk6Widget11DFlowLayout11minimumSizeEv
libdtkwidget.so.2:_ZThn16_NK3Dtk6Widget11DFlowLayout14heightForWidthEi
libdtkwidget.so.2:_ZThn16_NK3Dtk6Widget11DFlowLayout17hasHeightForWidthEv
libdtkwidget.so.2:_ZThn16_NK3Dtk6Widget11DFlowLayout19expandingDirectionsEv
libdtkwidget.so.2:_ZThn16_NK3Dtk6Widget11DFlowLayout8sizeHintEv
libdtkwidget.so.2:_ZThn32_N3Dtk6Widget11DFlowLayoutD0Ev
libdtkwidget.so.2:_ZThn32_N3Dtk6Widget11DFlowLayoutD1Ev
libdtkwidget.so.2:_ZThn48_N3Dtk6Widget12DImageButtonD0Ev
libdtkwidget.so.2:_ZThn48_N3Dtk6Widget12DImageButtonD1Ev
libdtkwidget.so.2:_ZThn48_N3Dtk6Widget14DWaterProgressD0Ev
libdtkwidget.so.2:_ZThn48_N3Dtk6Widget14DWaterProgressD1Ev
libdtkwidget.so.2:_ZThn48_N3Dtk6Widget15DArrowRectangleD0Ev
libdtkwidget.so.2:_ZThn48_N3Dtk6Widget15DArrowRectangleD1Ev
libdtkwidget.so.2:_ZThn48_N3Dtk6Widget15DSettingsDialogD0Ev
libdtkwidget.so.2:_ZThn48_N3Dtk6Widget15DSettingsDialogD1Ev
libdtkwidget.so.2:_ZThn48_N3Dtk6Widget15DSimpleListViewD0Ev
libdtkwidget.so.2:_ZThn48_N3Dtk6Widget15DSimpleListViewD1Ev
libdtkwidget.so.2:_ZThn48_N3Dtk6Widget17DBlurEffectWidgetD0Ev
libdtkwidget.so.2:_ZThn48_N3Dtk6Widget17DBlurEffectWidgetD1Ev
libdtkwidget.so.2:_ZThn48_N3Dtk6Widget17DLoadingIndicatorD0Ev
libdtkwidget.so.2:_ZThn48_N3Dtk6Widget17DLoadingIndicatorD1Ev
libdtkwidget.so.2:_ZThn48_N3Dtk6Widget6DToastD0Ev
libdtkwidget.so.2:_ZThn48_N3Dtk6Widget6DToastD1Ev
libdtkwidget.so.2:_ZThn48_N3Dtk6Widget8DSpinnerD0Ev
libdtkwidget.so.2:_ZThn48_N3Dtk6Widget8DSpinnerD1Ev
libdtkwidget.so.2:_Zls6QDebugRKN3Dtk6Widget21DPlatformWindowHandle10WMBlurAreaE
