libtreefrog.so.1:_Z11tSystemInfoPKcz
libtreefrog.so.1:_Z11tSystemWarnPKcz
libtreefrog.so.1:_Z12tSystemDebugPKcz
libtreefrog.so.1:_Z12tSystemErrorPKcz
libtreefrog.so.1:_Z12tSystemTracePKcz
libtreefrog.so.1:_ZN10TAccessLogC1ERK10QByteArrayS2_
libtreefrog.so.1:_ZN10TAccessLogC1Ev
libtreefrog.so.1:_ZN10TAccessLogC2ERK10QByteArrayS2_
libtreefrog.so.1:_ZN10TAccessLogC2Ev
libtreefrog.so.1:_ZN10TCookieJar9addCookieERK14QNetworkCookie
libtreefrog.so.1:_ZN10THazardPtr5clearEv
libtreefrog.so.1:_ZN10THazardPtr5guardEP13THazardObject
libtreefrog.so.1:_ZN10THazardPtrC1Ev
libtreefrog.so.1:_ZN10THazardPtrC2Ev
libtreefrog.so.1:_ZN10THazardPtrD1Ev
libtreefrog.so.1:_ZN10THazardPtrD2Ev
libtreefrog.so.1:_ZN10TPaginator11setMidRangeEi
libtreefrog.so.1:_ZN10TPaginator14setCurrentPageEi
libtreefrog.so.1:_ZN10TPaginator17calculateNumPagesEv
libtreefrog.so.1:_ZN10TPaginator17setItemTotalCountEi
libtreefrog.so.1:_ZN10TPaginator19setItemCountPerPageEi
libtreefrog.so.1:_ZN10TPaginatorC1ERKS_
libtreefrog.so.1:_ZN10TPaginatorC1Eiii
libtreefrog.so.1:_ZN10TPaginatorC2ERKS_
libtreefrog.so.1:_ZN10TPaginatorC2Eiii
libtreefrog.so.1:_ZN10TPaginatoraSERKS_
libtreefrog.so.1:_ZN10TPopMailer11qt_metacallEN11QMetaObject4CallEiPPv
libtreefrog.so.1:_ZN10TPopMailer11qt_metacastEPKc
libtreefrog.so.1:_ZN10TPopMailer11setHostNameERK7QString
libtreefrog.so.1:_ZN10TPopMailer12readResponseEP10QByteArray
libtreefrog.so.1:_ZN10TPopMailer13connectToHostEv
libtreefrog.so.1:_ZN10TPopMailer14setApopEnabledEb
libtreefrog.so.1:_ZN10TPopMailer3cmdERK10QByteArrayPS0_
libtreefrog.so.1:_ZN10TPopMailer4quitEv
libtreefrog.so.1:_ZN10TPopMailer5writeERK10QByteArray
libtreefrog.so.1:_ZN10TPopMailer7cmdApopERK10QByteArray
libtreefrog.so.1:_ZN10TPopMailer7cmdPassEv
libtreefrog.so.1:_ZN10TPopMailer7cmdQuitEv
libtreefrog.so.1:_ZN10TPopMailer7cmdRetrEiR10QByteArray
libtreefrog.so.1:_ZN10TPopMailer7cmdStatEv
libtreefrog.so.1:_ZN10TPopMailer7cmdUserEv
libtreefrog.so.1:_ZN10TPopMailer7setPortEt
libtreefrog.so.1:_ZN10TPopMailer8readMailEi
libtreefrog.so.1:_ZN10TPopMailerC1EP7QObject
libtreefrog.so.1:_ZN10TPopMailerC1ERK7QStringtP7QObject
libtreefrog.so.1:_ZN10TPopMailerC2EP7QObject
libtreefrog.so.1:_ZN10TPopMailerC2ERK7QStringtP7QObject
libtreefrog.so.1:_ZN10TPopMailerD0Ev
libtreefrog.so.1:_ZN10TPopMailerD1Ev
libtreefrog.so.1:_ZN10TPopMailerD2Ev
libtreefrog.so.1:_ZN10TPublisher11instantiateEv
libtreefrog.so.1:_ZN10TPublisher11qt_metacallEN11QMetaObject4CallEiPPv
libtreefrog.so.1:_ZN10TPublisher11qt_metacastEPKc
libtreefrog.so.1:_ZN10TPublisher11unsubscribeERK7QStringP18TAbstractWebSocket
libtreefrog.so.1:_ZN10TPublisher12castToObjectEP18TAbstractWebSocket
libtreefrog.so.1:_ZN10TPublisher16receiveSystemBusEv
libtreefrog.so.1:_ZN10TPublisher18unsubscribeFromAllEP18TAbstractWebSocket
libtreefrog.so.1:_ZN10TPublisher3getERK7QString
libtreefrog.so.1:_ZN10TPublisher6createERK7QString
libtreefrog.so.1:_ZN10TPublisher7publishERK7QStringRK10QByteArrayP18TAbstractWebSocket
libtreefrog.so.1:_ZN10TPublisher7publishERK7QStringS2_P18TAbstractWebSocket
libtreefrog.so.1:_ZN10TPublisher7releaseERK7QString
libtreefrog.so.1:_ZN10TPublisher8instanceEv
libtreefrog.so.1:_ZN10TPublisher9subscribeERK7QStringbP18TAbstractWebSocket
libtreefrog.so.1:_ZN10TPublisherC1Ev
libtreefrog.so.1:_ZN10TPublisherC2Ev
libtreefrog.so.1:_ZN10TScheduler10startTimerEi
libtreefrog.so.1:_ZN10TScheduler10startTimerEv
libtreefrog.so.1:_ZN10TScheduler11qt_metacallEN11QMetaObject4CallEiPPv
libtreefrog.so.1:_ZN10TScheduler11qt_metacastEPKc
libtreefrog.so.1:_ZN10TScheduler13setSingleShotEb
libtreefrog.so.1:_ZN10TScheduler19rollbackTransactionEv
libtreefrog.so.1:_ZN10TScheduler3runEv
libtreefrog.so.1:_ZN10TScheduler4stopEv
libtreefrog.so.1:_ZN10TScheduler5startEi
libtreefrog.so.1:_ZN10TScheduler7publishERK7QStringRK10QByteArray
libtreefrog.so.1:_ZN10TScheduler7publishERK7QStringS2_
libtreefrog.so.1:_ZN10TScheduler7restartEv
libtreefrog.so.1:_ZN10TScheduler9stopTimerEv
libtreefrog.so.1:_ZN10TSchedulerC1Ev
libtreefrog.so.1:_ZN10TSchedulerC2Ev
libtreefrog.so.1:_ZN10TSchedulerD0Ev
libtreefrog.so.1:_ZN10TSchedulerD1Ev
libtreefrog.so.1:_ZN10TSchedulerD2Ev
libtreefrog.so.1:_ZN10TSqlObject11qt_metacallEN11QMetaObject4CallEiPPv
libtreefrog.so.1:_ZN10TSqlObject11qt_metacastEPKc
libtreefrog.so.1:_ZN10TSqlObject12syncToObjectEv
libtreefrog.so.1:_ZN10TSqlObject15syncToSqlRecordEv
libtreefrog.so.1:_ZN10TSqlObject4saveEv
libtreefrog.so.1:_ZN10TSqlObject6createEv
libtreefrog.so.1:_ZN10TSqlObject6reloadEv
libtreefrog.so.1:_ZN10TSqlObject6removeEv
libtreefrog.so.1:_ZN10TSqlObject6updateEv
libtreefrog.so.1:_ZN10TSqlObject9setRecordERK10QSqlRecordRK9QSqlError
libtreefrog.so.1:_ZN10TSqlObjectC1ERKS_
libtreefrog.so.1:_ZN10TSqlObjectC1Ev
libtreefrog.so.1:_ZN10TSqlObjectC2ERKS_
libtreefrog.so.1:_ZN10TSqlObjectC2Ev
libtreefrog.so.1:_ZN10TSqlObjectaSERKS_
libtreefrog.so.1:_ZN10TSystemBus11handleErrorEN12QLocalSocket16LocalSocketErrorE
libtreefrog.so.1:_ZN10TSystemBus11instantiateEv
libtreefrog.so.1:_ZN10TSystemBus11qt_metacallEN11QMetaObject4CallEiPPv
libtreefrog.so.1:_ZN10TSystemBus11qt_metacastEPKc
libtreefrog.so.1:_ZN10TSystemBus12disconnectedEv
libtreefrog.so.1:_ZN10TSystemBus12readyReceiveEv
libtreefrog.so.1:_ZN10TSystemBus14connectionNameEv
libtreefrog.so.1:_ZN10TSystemBus14connectionNameEx
libtreefrog.so.1:_ZN10TSystemBus4sendEN2Tf12ServerOpCodeERK7QStringRK10QByteArray
libtreefrog.so.1:_ZN10TSystemBus4sendERK17TSystemBusMessage
libtreefrog.so.1:_ZN10TSystemBus7connectEv
libtreefrog.so.1:_ZN10TSystemBus7readBusEv
libtreefrog.so.1:_ZN10TSystemBus7recvAllEv
libtreefrog.so.1:_ZN10TSystemBus8instanceEv
libtreefrog.so.1:_ZN10TSystemBus8writeBusEv
libtreefrog.so.1:_ZN10TSystemBusC1Ev
libtreefrog.so.1:_ZN10TSystemBusC2Ev
libtreefrog.so.1:_ZN10TSystemBusD0Ev
libtreefrog.so.1:_ZN10TSystemBusD1Ev
libtreefrog.so.1:_ZN10TSystemBusD2Ev
libtreefrog.so.1:_ZN10TWebSocket10disconnectEv
libtreefrog.so.1:_ZN10TWebSocket10timerEventEP11QTimerEvent
libtreefrog.so.1:_ZN10TWebSocket11deleteLaterEv
libtreefrog.so.1:_ZN10TWebSocket11qt_metacallEN11QMetaObject4CallEiPPv
libtreefrog.so.1:_ZN10TWebSocket11qt_metacastEPKc
libtreefrog.so.1:_ZN10TWebSocket11readRequestEv
libtreefrog.so.1:_ZN10TWebSocket11sendRawDataERK10QByteArray
libtreefrog.so.1:_ZN10TWebSocket11startWorkerEP16TWebSocketWorker
libtreefrog.so.1:_ZN10TWebSocket12searchSocketEi
libtreefrog.so.1:_ZN10TWebSocket12sendByWorkerERK10QByteArray
libtreefrog.so.1:_ZN10TWebSocket12writeRawDataERK10QByteArray
libtreefrog.so.1:_ZN10TWebSocket13releaseWorkerEv
libtreefrog.so.1:_ZN10TWebSocket18disconnectByWorkerEv
libtreefrog.so.1:_ZN10TWebSocket18sendTextForPublishERK7QStringPK7QObject
libtreefrog.so.1:_ZN10TWebSocket20sendBinaryForPublishERK10QByteArrayPK7QObject
libtreefrog.so.1:_ZN10TWebSocket21startWorkerForClosingEv
libtreefrog.so.1:_ZN10TWebSocket21startWorkerForOpeningERK8TSession
libtreefrog.so.1:_ZN10TWebSocket5closeEv
libtreefrog.so.1:_ZN10TWebSocket8sendPongERK10QByteArray
libtreefrog.so.1:_ZN10TWebSocketC1EiRK12QHostAddressRK18THttpRequestHeaderP7QObject
libtreefrog.so.1:_ZN10TWebSocketC2EiRK12QHostAddressRK18THttpRequestHeaderP7QObject
libtreefrog.so.1:_ZN10TWebSocketD0Ev
libtreefrog.so.1:_ZN10TWebSocketD1Ev
libtreefrog.so.1:_ZN10TWebSocketD2Ev
libtreefrog.so.1:_ZN11TActionView11renderReactERK7QString
libtreefrog.so.1:_ZN11TActionView2ehERK14THtmlAttribute
libtreefrog.so.1:_ZN11TActionView2ehERK8QVariant
libtreefrog.so.1:_ZN11TActionView4echoERK14THtmlAttribute
libtreefrog.so.1:_ZN11TActionView4echoERK8QVariant
libtreefrog.so.1:_ZN11TActionViewC1Ev
libtreefrog.so.1:_ZN11TActionViewC2Ev
libtreefrog.so.1:_ZN11TBasicTimer11qt_metacallEN11QMetaObject4CallEiPPv
libtreefrog.so.1:_ZN11TBasicTimer11qt_metacastEPKc
libtreefrog.so.1:_ZN11TBasicTimer5startEi
libtreefrog.so.1:_ZN11TBasicTimer5startEv
libtreefrog.so.1:_ZN11TBasicTimerC1EP7QObject
libtreefrog.so.1:_ZN11TBasicTimerC2EP7QObject
libtreefrog.so.1:_ZN11TDirectView7sessionEv
libtreefrog.so.1:_ZN11TDirectView9addCookieERK10QByteArrayS2_RK9QDateTimeRK7QStringS8_bb
libtreefrog.so.1:_ZN11TDirectView9addCookieERK14QNetworkCookie
libtreefrog.so.1:_ZN11TFileLogger11setFileNameERK7QString
libtreefrog.so.1:_ZN11TFileLogger3logERK10QByteArray
libtreefrog.so.1:_ZN11TFileLogger3logERK4TLog
libtreefrog.so.1:_ZN11TFileLogger4openEv
libtreefrog.so.1:_ZN11TFileLogger5closeEv
libtreefrog.so.1:_ZN11TFileLogger5flushEv
libtreefrog.so.1:_ZN11TFileLoggerC1Ev
libtreefrog.so.1:_ZN11TFileLoggerC2Ev
libtreefrog.so.1:_ZN11TFileLoggerD0Ev
libtreefrog.so.1:_ZN11TFileLoggerD1Ev
libtreefrog.so.1:_ZN11TFileLoggerD2Ev
libtreefrog.so.1:_ZN11THtmlParser12changeParentEiii
libtreefrog.so.1:_ZN11THtmlParser13mergeElementsERK7QStringS2_
libtreefrog.so.1:_ZN11THtmlParser13parseCloseTagEv
libtreefrog.so.1:_ZN11THtmlParser14skipWhiteSpaceEPiS0_
libtreefrog.so.1:_ZN11THtmlParser15parseAttributesEv
libtreefrog.so.1:_ZN11THtmlParser16appendNewElementEi
libtreefrog.so.1:_ZN11THtmlParser16insertNewElementEii
libtreefrog.so.1:_ZN11THtmlParser17removeElementTreeEib
libtreefrog.so.1:_ZN11THtmlParser19removeChildElementsEi
libtreefrog.so.1:_ZN11THtmlParser23appendTextToLastElementERK7QString
libtreefrog.so.1:_ZN11THtmlParser4trimERK7QString
libtreefrog.so.1:_ZN11THtmlParser5isTagERK7QString
libtreefrog.so.1:_ZN11THtmlParser5mergeERKS_
libtreefrog.so.1:_ZN11THtmlParser5parseERK7QString
libtreefrog.so.1:_ZN11THtmlParser5parseEv
libtreefrog.so.1:_ZN11THtmlParser6appendEiRKS_
libtreefrog.so.1:_ZN11THtmlParser7prependEiRKS_
libtreefrog.so.1:_ZN11THtmlParser8parseTagEv
libtreefrog.so.1:_ZN11THtmlParser8skipUpToERK7QString
libtreefrog.so.1:_ZN11THtmlParser9parseWordEv
libtreefrog.so.1:_ZN11THtmlParser9removeTagEi
libtreefrog.so.1:_ZN11THtmlParserC1ENS_8TrimModeE
libtreefrog.so.1:_ZN11THtmlParserC2ENS_8TrimModeE
libtreefrog.so.1:_ZN11THttpHeaderC1ERK10QByteArray
libtreefrog.so.1:_ZN11THttpHeaderC1ERKS_
libtreefrog.so.1:_ZN11THttpHeaderC1Ev
libtreefrog.so.1:_ZN11THttpHeaderC2ERK10QByteArray
libtreefrog.so.1:_ZN11THttpHeaderC2ERKS_
libtreefrog.so.1:_ZN11THttpHeaderC2Ev
libtreefrog.so.1:_ZN11THttpHeaderaSERKS_
libtreefrog.so.1:_ZN11THttpSocket10newRequestEv
libtreefrog.so.1:_ZN11THttpSocket11deleteLaterEv
libtreefrog.so.1:_ZN11THttpSocket11qt_metacallEN11QMetaObject4CallEiPPv
libtreefrog.so.1:_ZN11THttpSocket11qt_metacastEPKc
libtreefrog.so.1:_ZN11THttpSocket11readRequestEv
libtreefrog.so.1:_ZN11THttpSocket12requestWriteERK10QByteArray
libtreefrog.so.1:_ZN11THttpSocket12searchSocketEi
libtreefrog.so.1:_ZN11THttpSocket12writeRawDataEPKcx
libtreefrog.so.1:_ZN11THttpSocket12writeRawDataERK10QByteArray
libtreefrog.so.1:_ZN11THttpSocket19setSocketDescriptorExN15QAbstractSocket11SocketStateE6QFlagsIN9QIODevice12OpenModeFlagEE
libtreefrog.so.1:_ZN11THttpSocket25writeRawDataFromWebSocketERK10QByteArray
libtreefrog.so.1:_ZN11THttpSocket4readEv
libtreefrog.so.1:_ZN11THttpSocket5writeEPK11THttpHeaderP9QIODevice
libtreefrog.so.1:_ZN11THttpSocketC1EP7QObject
libtreefrog.so.1:_ZN11THttpSocketC2EP7QObject
libtreefrog.so.1:_ZN11THttpSocketD0Ev
libtreefrog.so.1:_ZN11THttpSocketD1Ev
libtreefrog.so.1:_ZN11THttpSocketD2Ev
libtreefrog.so.1:_ZN11TJSInstance4callERK7QStringRK5QListI8QJSValueE
libtreefrog.so.1:_ZN11TJSInstance4callERK7QStringRK8QJSValue
libtreefrog.so.1:_ZN11TJSInstanceC1ERK8QJSValue
libtreefrog.so.1:_ZN11TJSInstanceC1ERKS_
libtreefrog.so.1:_ZN11TJSInstanceC1Ev
libtreefrog.so.1:_ZN11TJSInstanceC2ERK8QJSValue
libtreefrog.so.1:_ZN11TJSInstanceC2ERKS_
libtreefrog.so.1:_ZN11TJSInstanceC2Ev
libtreefrog.so.1:_ZN11TJSInstanceD1Ev
libtreefrog.so.1:_ZN11TJSInstanceD2Ev
libtreefrog.so.1:_ZN11TMimeEntity18renameUploadedFileERK7QStringb6QFlagsIN11QFileDevice10PermissionEE
libtreefrog.so.1:_ZN11TMimeEntityC1ERK11TMimeHeaderRK7QString
libtreefrog.so.1:_ZN11TMimeEntityC1ERKS_
libtreefrog.so.1:_ZN11TMimeEntityC2ERK11TMimeHeaderRK7QString
libtreefrog.so.1:_ZN11TMimeEntityC2ERKS_
libtreefrog.so.1:_ZN11TMimeEntityaSERKS_
libtreefrog.so.1:_ZN11TMimeHeader14skipWhitespaceERK10QByteArrayi
libtreefrog.so.1:_ZN11TMimeHeader20parseHeaderParameterERK10QByteArray
libtreefrog.so.1:_ZN11TMimeHeader9setHeaderERK10QByteArrayS2_
libtreefrog.so.1:_ZN11TMimeHeaderC1ERKS_
libtreefrog.so.1:_ZN11TMimeHeaderC2ERKS_
libtreefrog.so.1:_ZN11TMimeHeaderaSERKS_
libtreefrog.so.1:_ZN11TMongoQuery10removeByIdERK4QMapI7QString8QVariantE
libtreefrog.so.1:_ZN11TMongoQuery10updateByIdERK4QMapI7QString8QVariantE
libtreefrog.so.1:_ZN11TMongoQuery11updateMultiERK4QMapI7QString8QVariantES5_
libtreefrog.so.1:_ZN11TMongoQuery4findERK4QMapI7QString8QVariantES5_RK11QStringList
libtreefrog.so.1:_ZN11TMongoQuery4nextEv
libtreefrog.so.1:_ZN11TMongoQuery5countERK4QMapI7QString8QVariantE
libtreefrog.so.1:_ZN11TMongoQuery6driverEv
libtreefrog.so.1:_ZN11TMongoQuery6insertER4QMapI7QString8QVariantE
libtreefrog.so.1:_ZN11TMongoQuery6removeERK4QMapI7QString8QVariantE
libtreefrog.so.1:_ZN11TMongoQuery6updateERK4QMapI7QString8QVariantES5_b
libtreefrog.so.1:_ZN11TMongoQuery7findOneERK4QMapI7QString8QVariantERK11QStringList
libtreefrog.so.1:_ZN11TMongoQuery8findByIdERK7QStringRK11QStringList
libtreefrog.so.1:_ZN11TMongoQueryC1ERK7QString
libtreefrog.so.1:_ZN11TMongoQueryC1ERKS_
libtreefrog.so.1:_ZN11TMongoQueryC2ERK7QString
libtreefrog.so.1:_ZN11TMongoQueryC2ERKS_
libtreefrog.so.1:_ZN11TMongoQueryaSERKS_
libtreefrog.so.1:_ZN11TSendBuffer7getDataERi
libtreefrog.so.1:_ZN11TSendBuffer7prependEPKci
libtreefrog.so.1:_ZN11TSendBuffer7releaseEv
libtreefrog.so.1:_ZN11TSendBuffer8seekDataEi
libtreefrog.so.1:_ZN11TSendBufferC1ERK10QByteArray
libtreefrog.so.1:_ZN11TSendBufferC1ERK10QByteArrayRK9QFileInfobRK13TAccessLogger
libtreefrog.so.1:_ZN11TSendBufferC1EiRK12QHostAddressRK10QByteArray
libtreefrog.so.1:_ZN11TSendBufferC2ERK10QByteArray
libtreefrog.so.1:_ZN11TSendBufferC2ERK10QByteArrayRK9QFileInfobRK13TAccessLogger
libtreefrog.so.1:_ZN11TSendBufferC2EiRK12QHostAddressRK10QByteArray
libtreefrog.so.1:_ZN11TSendBufferD1Ev
libtreefrog.so.1:_ZN11TSendBufferD2Ev
libtreefrog.so.1:_ZN11TSmtpMailer11authCramMd5ERK10QByteArrayS2_S2_
libtreefrog.so.1:_ZN11TSmtpMailer11cmdStartTlsEv
libtreefrog.so.1:_ZN11TSmtpMailer11qt_metacallEN11QMetaObject4CallEiPPv
libtreefrog.so.1:_ZN11TSmtpMailer11qt_metacastEPKc
libtreefrog.so.1:_ZN11TSmtpMailer11setHostNameERK7QString
libtreefrog.so.1:_ZN11TSmtpMailer12moveToThreadEP7QThread
libtreefrog.so.1:_ZN11TSmtpMailer13connectToHostERK7QStringt
libtreefrog.so.1:_ZN11TSmtpMailer18sendAndDeleteLaterEv
libtreefrog.so.1:_ZN11TSmtpMailer27setPopBeforeSmtpAuthEnabledERK7QStringtbb
libtreefrog.so.1:_ZN11TSmtpMailer3cmdERK10QByteArrayP5QListIS0_E
libtreefrog.so.1:_ZN11TSmtpMailer4readEP5QListI10QByteArrayE
libtreefrog.so.1:_ZN11TSmtpMailer4sendERK12TMailMessage
libtreefrog.so.1:_ZN11TSmtpMailer4sendEv
libtreefrog.so.1:_ZN11TSmtpMailer5writeERK10QByteArray
libtreefrog.so.1:_ZN11TSmtpMailer7cmdAuthEv
libtreefrog.so.1:_ZN11TSmtpMailer7cmdDataERK10QByteArray
libtreefrog.so.1:_ZN11TSmtpMailer7cmdEhloEv
libtreefrog.so.1:_ZN11TSmtpMailer7cmdHeloEv
libtreefrog.so.1:_ZN11TSmtpMailer7cmdMailERK10QByteArray
libtreefrog.so.1:_ZN11TSmtpMailer7cmdQuitEv
libtreefrog.so.1:_ZN11TSmtpMailer7cmdRcptERK5QListI10QByteArrayE
libtreefrog.so.1:_ZN11TSmtpMailer7cmdRsetEv
libtreefrog.so.1:_ZN11TSmtpMailer7setPortEt
libtreefrog.so.1:_ZN11TSmtpMailer9sendLaterERK12TMailMessage
libtreefrog.so.1:_ZN11TSmtpMailerC1EP7QObject
libtreefrog.so.1:_ZN11TSmtpMailerC1ERK7QStringtP7QObject
libtreefrog.so.1:_ZN11TSmtpMailerC2EP7QObject
libtreefrog.so.1:_ZN11TSmtpMailerC2ERK7QStringtP7QObject
libtreefrog.so.1:_ZN11TSmtpMailerD0Ev
libtreefrog.so.1:_ZN11TSmtpMailerD1Ev
libtreefrog.so.1:_ZN11TSmtpMailerD2Ev
libtreefrog.so.1:_ZN11TViewHelper10allEndTagsEv
libtreefrog.so.1:_ZN11TViewHelper3tagERK7QStringRK14THtmlAttribute
libtreefrog.so.1:_ZN11TViewHelper3tagERK7QStringRK14THtmlAttributeb
libtreefrog.so.1:_ZN11TViewHelper6endTagEv
libtreefrog.so.1:_ZN11TViewHelper7formTagERK4QUrlN2Tf10HttpMethodEbRK14THtmlAttribute
libtreefrog.so.1:_ZN12TAppSettings11instantiateERK7QString
libtreefrog.so.1:_ZN12TAppSettings8instanceEv
libtreefrog.so.1:_ZN12TAppSettingsC1ERK7QString
libtreefrog.so.1:_ZN12TAppSettingsC2ERK7QString
libtreefrog.so.1:_ZN12TEpollSocket10allSocketsEv
libtreefrog.so.1:_ZN12TEpollSocket10disconnectEv
libtreefrog.so.1:_ZN12TEpollSocket10initBufferEi
libtreefrog.so.1:_ZN12TEpollSocket11deleteLaterEv
libtreefrog.so.1:_ZN12TEpollSocket11qt_metacallEN11QMetaObject4CallEiPPv
libtreefrog.so.1:_ZN12TEpollSocket11qt_metacastEPKc
libtreefrog.so.1:_ZN12TEpollSocket12searchSocketEi
libtreefrog.so.1:_ZN12TEpollSocket15enqueueSendDataEP11TSendBuffer
libtreefrog.so.1:_ZN12TEpollSocket16createSendBufferERK10QByteArray
libtreefrog.so.1:_ZN12TEpollSocket16createSendBufferERK10QByteArrayRK9QFileInfobRK13TAccessLogger
libtreefrog.so.1:_ZN12TEpollSocket17switchToWebSocketERK18THttpRequestHeader
libtreefrog.so.1:_ZN12TEpollSocket19setSocketDescpriterEi
libtreefrog.so.1:_ZN12TEpollSocket4recvEv
libtreefrog.so.1:_ZN12TEpollSocket4sendEv
libtreefrog.so.1:_ZN12TEpollSocket5closeEv
libtreefrog.so.1:_ZN12TEpollSocket6acceptEi
libtreefrog.so.1:_ZN12TEpollSocket6createEiRK12QHostAddress
libtreefrog.so.1:_ZN12TEpollSocket8sendDataERK10QByteArray
libtreefrog.so.1:_ZN12TEpollSocket8sendDataERK10QByteArrayP9QIODevicebRK13TAccessLogger
libtreefrog.so.1:_ZN12TEpollSocketC1EiRK12QHostAddress
libtreefrog.so.1:_ZN12TEpollSocketC2EiRK12QHostAddress
libtreefrog.so.1:_ZN12TEpollSocketD0Ev
libtreefrog.so.1:_ZN12TEpollSocketD1Ev
libtreefrog.so.1:_ZN12TEpollSocketD2Ev
libtreefrog.so.1:_ZN12THtmlElement12setAttributeERK7QStringS2_
libtreefrog.so.1:_ZN12THtmlElement15removeAttributeERK7QString
libtreefrog.so.1:_ZN12THtmlElement5clearEv
libtreefrog.so.1:_ZN12THtmlElementC1Ev
libtreefrog.so.1:_ZN12THtmlElementC2Ev
libtreefrog.so.1:_ZN12THttpRequest13allItemValuesERK7QStringRK5QListI5QPairIS0_S0_EE
libtreefrog.so.1:_ZN12THttpRequest15itemVariantListERK7QStringRK5QListI5QPairIS0_S0_EE
libtreefrog.so.1:_ZN12THttpRequest7hasItemERK7QStringRK5QListI5QPairIS0_S0_EE
libtreefrog.so.1:_ZN12THttpRequest7itemMapERK5QListI5QPairI7QStringS2_EE
libtreefrog.so.1:_ZN12THttpRequest7itemMapERK7QStringRK5QListI5QPairIS0_S0_EE
libtreefrog.so.1:_ZN12THttpRequest7rawBodyEv
libtreefrog.so.1:_ZN12THttpRequest8generateERK10QByteArrayRK12QHostAddress
libtreefrog.so.1:_ZN12THttpRequest9itemValueERK7QStringS2_RK5QListI5QPairIS0_S0_EE
libtreefrog.so.1:_ZN12THttpRequest9parseBodyERK10QByteArrayRK18THttpRequestHeader
libtreefrog.so.1:_ZN12THttpRequestC1ERK10QByteArrayRK7QStringRK12QHostAddress
libtreefrog.so.1:_ZN12THttpRequestC1ERK18THttpRequestHeaderRK10QByteArrayRK12QHostAddress
libtreefrog.so.1:_ZN12THttpRequestC1ERKS_
libtreefrog.so.1:_ZN12THttpRequestC1Ev
libtreefrog.so.1:_ZN12THttpRequestC2ERK10QByteArrayRK7QStringRK12QHostAddress
libtreefrog.so.1:_ZN12THttpRequestC2ERK18THttpRequestHeaderRK10QByteArrayRK12QHostAddress
libtreefrog.so.1:_ZN12THttpRequestC2ERKS_
libtreefrog.so.1:_ZN12THttpRequestC2Ev
libtreefrog.so.1:_ZN12THttpRequestD0Ev
libtreefrog.so.1:_ZN12THttpRequestD1Ev
libtreefrog.so.1:_ZN12THttpRequestD2Ev
libtreefrog.so.1:_ZN12THttpRequestaSERKS_
libtreefrog.so.1:_ZN12THttpUtility10htmlEscapeEPKcN2Tf10EscapeFlagE
libtreefrog.so.1:_ZN12THttpUtility10htmlEscapeERK10QByteArrayN2Tf10EscapeFlagE
libtreefrog.so.1:_ZN12THttpUtility10htmlEscapeERK7QStringN2Tf10EscapeFlagE
libtreefrog.so.1:_ZN12THttpUtility10htmlEscapeERK8QVariantN2Tf10EscapeFlagE
libtreefrog.so.1:_ZN12THttpUtility10jsonEscapeEPKc
libtreefrog.so.1:_ZN12THttpUtility10jsonEscapeERK10QByteArray
libtreefrog.so.1:_ZN12THttpUtility10jsonEscapeERK7QString
libtreefrog.so.1:_ZN12THttpUtility10jsonEscapeERK8QVariant
libtreefrog.so.1:_ZN12THttpUtility13toMimeEncodedERK7QStringP10QTextCodec
libtreefrog.so.1:_ZN12THttpUtility13toMimeEncodedERK7QStringRK10QByteArray
libtreefrog.so.1:_ZN12THttpUtility13toUrlEncodingERK7QStringRK10QByteArray
libtreefrog.so.1:_ZN12THttpUtility15fromMimeEncodedERK10QByteArray
libtreefrog.so.1:_ZN12THttpUtility15fromUrlEncodingERK10QByteArray
libtreefrog.so.1:_ZN12THttpUtility16getUTCTimeStringEv
libtreefrog.so.1:_ZN12THttpUtility20toHttpDateTimeStringERK9QDateTime
libtreefrog.so.1:_ZN12THttpUtility22fromHttpDateTimeStringERK10QByteArray
libtreefrog.so.1:_ZN12THttpUtility23getResponseReasonPhraseEi
libtreefrog.so.1:_ZN12THttpUtility25fromHttpDateTimeUTCStringERK10QByteArray
libtreefrog.so.1:_ZN12THttpUtility8timeZoneEv
libtreefrog.so.1:_ZN12TKvsDatabase11addDatabaseERK7QStringS2_
libtreefrog.so.1:_ZN12TKvsDatabase11setHostNameERK7QString
libtreefrog.so.1:_ZN12TKvsDatabase11setPasswordERK7QString
libtreefrog.so.1:_ZN12TKvsDatabase11setUserNameERK7QString
libtreefrog.so.1:_ZN12TKvsDatabase14removeDatabaseERK7QString
libtreefrog.so.1:_ZN12TKvsDatabase15setDatabaseNameERK7QString
libtreefrog.so.1:_ZN12TKvsDatabase17setConnectOptionsERK7QString
libtreefrog.so.1:_ZN12TKvsDatabase4openEv
libtreefrog.so.1:_ZN12TKvsDatabase5closeEv
libtreefrog.so.1:_ZN12TKvsDatabase7setPortEi
libtreefrog.so.1:_ZN12TKvsDatabase8databaseERK7QString
libtreefrog.so.1:_ZN12TKvsDatabaseC1ERK16TKvsDatabaseData
libtreefrog.so.1:_ZN12TKvsDatabaseC1ERK7QStringP10TKvsDriver
libtreefrog.so.1:_ZN12TKvsDatabaseC1ERKS_
libtreefrog.so.1:_ZN12TKvsDatabaseC2ERK16TKvsDatabaseData
libtreefrog.so.1:_ZN12TKvsDatabaseC2ERK7QStringP10TKvsDriver
libtreefrog.so.1:_ZN12TKvsDatabaseC2ERKS_
libtreefrog.so.1:_ZN12TKvsDatabaseaSERKS_
libtreefrog.so.1:_ZN12TMailMessage10addAddressERK10QByteArrayS2_RK7QString
libtreefrog.so.1:_ZN12TMailMessage10setSubjectERK7QString
libtreefrog.so.1:_ZN12TMailMessage12addRecipientERK10QByteArray
libtreefrog.so.1:_ZN12TMailMessage13addRecipientsERK5QListI10QByteArrayE
libtreefrog.so.1:_ZN12TMailMessage4initERK10QByteArray
libtreefrog.so.1:_ZN12TMailMessage5addCcERK10QByteArrayRK7QString
libtreefrog.so.1:_ZN12TMailMessage5addToERK10QByteArrayRK7QString
libtreefrog.so.1:_ZN12TMailMessage5parseERK7QString
libtreefrog.so.1:_ZN12TMailMessage6addBccERK10QByteArrayRK7QString
libtreefrog.so.1:_ZN12TMailMessage7setBodyERK7QString
libtreefrog.so.1:_ZN12TMailMessage7setFromERK10QByteArrayRK7QString
libtreefrog.so.1:_ZN12TMailMessageC1EPKc
libtreefrog.so.1:_ZN12TMailMessageC1ERK10QByteArray
libtreefrog.so.1:_ZN12TMailMessageC1ERK7QStringRK10QByteArray
libtreefrog.so.1:_ZN12TMailMessageC1ERKS_
libtreefrog.so.1:_ZN12TMailMessageC2EPKc
libtreefrog.so.1:_ZN12TMailMessageC2ERK10QByteArray
libtreefrog.so.1:_ZN12TMailMessageC2ERK7QStringRK10QByteArray
libtreefrog.so.1:_ZN12TMailMessageC2ERKS_
libtreefrog.so.1:_ZN12TMailMessageaSERKS_
libtreefrog.so.1:_ZN12TModelObject13setPropertiesERK4QMapI7QString8QVariantE
libtreefrog.so.1:_ZN12TModelObject5clearEv
libtreefrog.so.1:_ZN12TMongoCursor4nextEv
libtreefrog.so.1:_ZN12TMongoCursor6toListEv
libtreefrog.so.1:_ZN12TMongoCursor7releaseEv
libtreefrog.so.1:_ZN12TMongoCursor9setCursorEPv
libtreefrog.so.1:_ZN12TMongoCursorC1Ev
libtreefrog.so.1:_ZN12TMongoCursorC2Ev
libtreefrog.so.1:_ZN12TMongoCursorD1Ev
libtreefrog.so.1:_ZN12TMongoCursorD2Ev
libtreefrog.so.1:_ZN12TMongoDriver11updateMultiERK7QStringRK4QMapIS0_8QVariantES7_
libtreefrog.so.1:_ZN12TMongoDriver20setLastCommandStatusEPKv
libtreefrog.so.1:_ZN12TMongoDriver4findERK7QStringRK4QMapIS0_8QVariantES7_RK11QStringListiii
libtreefrog.so.1:_ZN12TMongoDriver4openERK7QStringS2_S2_S2_tS2_
libtreefrog.so.1:_ZN12TMongoDriver5closeEv
libtreefrog.so.1:_ZN12TMongoDriver5countERK7QStringRK4QMapIS0_8QVariantE
libtreefrog.so.1:_ZN12TMongoDriver6insertERK7QStringRK4QMapIS0_8QVariantE
libtreefrog.so.1:_ZN12TMongoDriver6removeERK7QStringRK4QMapIS0_8QVariantE
libtreefrog.so.1:_ZN12TMongoDriver6updateERK7QStringRK4QMapIS0_8QVariantES7_b
libtreefrog.so.1:_ZN12TMongoDriver7findOneERK7QStringRK4QMapIS0_8QVariantERK11QStringList
libtreefrog.so.1:_ZN12TMongoDriverC1Ev
libtreefrog.so.1:_ZN12TMongoDriverC2Ev
libtreefrog.so.1:_ZN12TMongoDriverD0Ev
libtreefrog.so.1:_ZN12TMongoDriverD1Ev
libtreefrog.so.1:_ZN12TMongoDriverD2Ev
libtreefrog.so.1:_ZN12TMongoObject11setBsonDataERK4QMapI7QString8QVariantE
libtreefrog.so.1:_ZN12TMongoObject12syncToObjectEv
libtreefrog.so.1:_ZN12TMongoObject16syncToVariantMapEv
libtreefrog.so.1:_ZN12TMongoObject4saveEv
libtreefrog.so.1:_ZN12TMongoObject5clearEv
libtreefrog.so.1:_ZN12TMongoObject6createEv
libtreefrog.so.1:_ZN12TMongoObject6reloadEv
libtreefrog.so.1:_ZN12TMongoObject6removeEv
libtreefrog.so.1:_ZN12TMongoObject6updateEv
libtreefrog.so.1:_ZN12TMongoObject6upsertERK4QMapI7QString8QVariantE
libtreefrog.so.1:_ZN12TMongoObjectC1ERKS_
libtreefrog.so.1:_ZN12TMongoObjectC1Ev
libtreefrog.so.1:_ZN12TMongoObjectC2ERKS_
libtreefrog.so.1:_ZN12TMongoObjectC2Ev
libtreefrog.so.1:_ZN12TMongoObjectaSERKS_
libtreefrog.so.1:_ZN12TProcessInfo17allConcurrentPidsEv
libtreefrog.so.1:_ZN12TProcessInfo17waitForTerminatedEi
libtreefrog.so.1:_ZN12TProcessInfo4killE5QListIxE
libtreefrog.so.1:_ZN12TProcessInfo4killEv
libtreefrog.so.1:_ZN12TProcessInfo4killEx
libtreefrog.so.1:_ZN12TProcessInfo6pidsOfERK7QString
libtreefrog.so.1:_ZN12TProcessInfo7restartEv
libtreefrog.so.1:_ZN12TProcessInfo9terminateEv
libtreefrog.so.1:_ZN12TProcessInfoC1Ex
libtreefrog.so.1:_ZN12TProcessInfoC2Ex
libtreefrog.so.1:_ZN12TRedisDriver10parseArrayEPb
libtreefrog.so.1:_ZN12TRedisDriver11clearBufferEv
libtreefrog.so.1:_ZN12TRedisDriver11toMultiBulkERK5QListI10QByteArrayE
libtreefrog.so.1:_ZN12TRedisDriver12moveToThreadEP7QThread
libtreefrog.so.1:_ZN12TRedisDriver12waitForStateEii
libtreefrog.so.1:_ZN12TRedisDriver15parseBulkStringEPb
libtreefrog.so.1:_ZN12TRedisDriver4openERK7QStringS2_S2_S2_tS2_
libtreefrog.so.1:_ZN12TRedisDriver5closeEv
libtreefrog.so.1:_ZN12TRedisDriver6toBulkERK10QByteArray
libtreefrog.so.1:_ZN12TRedisDriver7getLineEPb
libtreefrog.so.1:_ZN12TRedisDriver7requestERK5QListI10QByteArrayERS0_I8QVariantE
libtreefrog.so.1:_ZN12TRedisDriver9getNumberEPb
libtreefrog.so.1:_ZN12TRedisDriver9readReplyEv
libtreefrog.so.1:_ZN12TRedisDriverC1Ev
libtreefrog.so.1:_ZN12TRedisDriverC2Ev
libtreefrog.so.1:_ZN12TRedisDriverD0Ev
libtreefrog.so.1:_ZN12TRedisDriverD1Ev
libtreefrog.so.1:_ZN12TRedisDriverD2Ev
libtreefrog.so.1:_ZN12TSqlDatabase11addDatabaseERK7QStringS2_
libtreefrog.so.1:_ZN12TSqlDatabase14removeDatabaseERK7QString
libtreefrog.so.1:_ZN12TSqlDatabase18setDriverExtensionEP19TSqlDriverExtension
libtreefrog.so.1:_ZN12TSqlDatabase8containsERK7QString
libtreefrog.so.1:_ZN12TSqlDatabase8databaseERK7QString
libtreefrog.so.1:_ZN13TAccessLogger4openEv
libtreefrog.so.1:_ZN13TAccessLogger5closeEv
libtreefrog.so.1:_ZN13TAccessLogger5writeEv
libtreefrog.so.1:_ZN13TAccessLoggerC1ERKS_
libtreefrog.so.1:_ZN13TAccessLoggerC1Ev
libtreefrog.so.1:_ZN13TAccessLoggerC2ERKS_
libtreefrog.so.1:_ZN13TAccessLoggerC2Ev
libtreefrog.so.1:_ZN13TAccessLoggerD1Ev
libtreefrog.so.1:_ZN13TAccessLoggerD2Ev
libtreefrog.so.1:_ZN13TAccessLoggeraSERKS_
libtreefrog.so.1:_ZN13TActionMailer7deliverERK7QString
libtreefrog.so.1:_ZN13TActionMailerC1Ev
libtreefrog.so.1:_ZN13TActionMailerC2Ev
libtreefrog.so.1:_ZN13TActionThread11qt_metacallEN11QMetaObject4CallEiPPv
libtreefrog.so.1:_ZN13TActionThread11qt_metacastEPKc
libtreefrog.so.1:_ZN13TActionThread11readRequestEP11THttpSocket
libtreefrog.so.1:_ZN13TActionThread11threadCountEv
libtreefrog.so.1:_ZN13TActionThread13writeResponseER19THttpResponseHeaderP9QIODevice
libtreefrog.so.1:_ZN13TActionThread14waitForAllDoneEi
libtreefrog.so.1:_ZN13TActionThread15closeHttpSocketEv
libtreefrog.so.1:_ZN13TActionThread21handshakeForWebSocketERK18THttpRequestHeader
libtreefrog.so.1:_ZN13TActionThread3runEv
libtreefrog.so.1:_ZN13TActionThread5errorEi
libtreefrog.so.1:_ZN13TActionThread9emitErrorEi
libtreefrog.so.1:_ZN13TActionThreadC1Eii
libtreefrog.so.1:_ZN13TActionThreadC2Eii
libtreefrog.so.1:_ZN13TActionThreadD0Ev
libtreefrog.so.1:_ZN13TActionThreadD1Ev
libtreefrog.so.1:_ZN13TActionThreadD2Ev
libtreefrog.so.1:_ZN13TActionWorker11qt_metacallEN11QMetaObject4CallEiPPv
libtreefrog.so.1:_ZN13TActionWorker11qt_metacastEPKc
libtreefrog.so.1:_ZN13TActionWorker11workerCountEv
libtreefrog.so.1:_ZN13TActionWorker13writeResponseER19THttpResponseHeaderP9QIODevice
libtreefrog.so.1:_ZN13TActionWorker14waitForAllDoneEi
libtreefrog.so.1:_ZN13TActionWorker15closeHttpSocketEv
libtreefrog.so.1:_ZN13TActionWorker3runEv
libtreefrog.so.1:_ZN13TActionWorkerC1EP16TEpollHttpSocketP7QObject
libtreefrog.so.1:_ZN13TActionWorkerC2EP16TEpollHttpSocketP7QObject
libtreefrog.so.1:_ZN13TActionWorkerD0Ev
libtreefrog.so.1:_ZN13TActionWorkerD1Ev
libtreefrog.so.1:_ZN13TActionWorkerD2Ev
libtreefrog.so.1:_ZN13THazardObject11deleteLaterEv
libtreefrog.so.1:_ZN13THazardObjectC1ERKS_
libtreefrog.so.1:_ZN13THazardObjectC1Ev
libtreefrog.so.1:_ZN13THazardObjectC2ERKS_
libtreefrog.so.1:_ZN13THazardObjectC2Ev
libtreefrog.so.1:_ZN13THttpResponse11setBodyFileERK7QString
libtreefrog.so.1:_ZN13THttpResponse7setBodyERK10QByteArray
libtreefrog.so.1:_ZN13THttpResponseC1ERK19THttpResponseHeaderRK10QByteArray
libtreefrog.so.1:_ZN13THttpResponseC2ERK19THttpResponseHeaderRK10QByteArray
libtreefrog.so.1:_ZN13THttpResponseD1Ev
libtreefrog.so.1:_ZN13THttpResponseD2Ev
libtreefrog.so.1:_ZN13TLoggerPlugin11qt_metacallEN11QMetaObject4CallEiPPv
libtreefrog.so.1:_ZN13TLoggerPlugin11qt_metacastEPKc
libtreefrog.so.1:_ZN13TSessionStore12lifeTimeSecsEv
libtreefrog.so.1:_ZN14TAbstractModel13setPropertiesERK4QMapI7QString8QVariantE
libtreefrog.so.1:_ZN14TAbstractModel23fieldNameToVariableNameERK7QString
libtreefrog.so.1:_ZN14TAbstractModel4saveEv
libtreefrog.so.1:_ZN14TAbstractModel6createEv
libtreefrog.so.1:_ZN14TAbstractModel6removeEv
libtreefrog.so.1:_ZN14TAbstractModel6updateEv
libtreefrog.so.1:_ZN14TActionContext13writeResponseER19THttpResponseHeaderP9QIODevicex
libtreefrog.so.1:_ZN14TActionContext13writeResponseEiR19THttpResponseHeader
libtreefrog.so.1:_ZN14TActionContext13writeResponseEiR19THttpResponseHeaderRK10QByteArrayP9QIODevicex
libtreefrog.so.1:_ZN14TActionContext19createTemporaryFileEv
libtreefrog.so.1:_ZN14TActionContext7executeER12THttpRequesti
libtreefrog.so.1:_ZN14TActionContext7releaseEv
libtreefrog.so.1:_ZN14TActionContext9emitErrorEi
libtreefrog.so.1:_ZN14TActionContextC1Ev
libtreefrog.so.1:_ZN14TActionContextC2Ev
libtreefrog.so.1:_ZN14TActionContextD0Ev
libtreefrog.so.1:_ZN14TActionContextD1Ev
libtreefrog.so.1:_ZN14TActionContextD2Ev
libtreefrog.so.1:_ZN14TContentHeaderC1ERK10QByteArray
libtreefrog.so.1:_ZN14TContentHeaderC1ERKS_
libtreefrog.so.1:_ZN14TContentHeaderC1Ev
libtreefrog.so.1:_ZN14TContentHeaderC2ERK10QByteArray
libtreefrog.so.1:_ZN14TContentHeaderC2ERKS_
libtreefrog.so.1:_ZN14TContentHeaderC2Ev
libtreefrog.so.1:_ZN14TContentHeaderaSERKS_
libtreefrog.so.1:_ZN14TFileAioLogger11setFileNameERK7QString
libtreefrog.so.1:_ZN14TFileAioLogger3logERK10QByteArray
libtreefrog.so.1:_ZN14TFileAioLogger3logERK4TLog
libtreefrog.so.1:_ZN14TFileAioLogger4openEv
libtreefrog.so.1:_ZN14TFileAioLogger5closeEv
libtreefrog.so.1:_ZN14TFileAioLogger5flushEv
libtreefrog.so.1:_ZN14TFileAioLoggerC1Ev
libtreefrog.so.1:_ZN14TFileAioLoggerC2Ev
libtreefrog.so.1:_ZN14TFileAioLoggerD0Ev
libtreefrog.so.1:_ZN14TFileAioLoggerD1Ev
libtreefrog.so.1:_ZN14TFileAioLoggerD2Ev
libtreefrog.so.1:_ZN14TFileAioWriter11setFileNameERK7QString
libtreefrog.so.1:_ZN14TFileAioWriter4openEv
libtreefrog.so.1:_ZN14TFileAioWriter5closeEv
libtreefrog.so.1:_ZN14TFileAioWriter5flushEv
libtreefrog.so.1:_ZN14TFileAioWriter5writeEPKci
libtreefrog.so.1:_ZN14TFileAioWriterC1ERK7QString
libtreefrog.so.1:_ZN14TFileAioWriterC2ERK7QString
libtreefrog.so.1:_ZN14TFileAioWriterD1Ev
libtreefrog.so.1:_ZN14TFileAioWriterD2Ev
libtreefrog.so.1:_ZN14TFormValidator10removeRuleERK7QStringN2Tf14ValidationRuleE
libtreefrog.so.1:_ZN14TFormValidator14setPatternRuleERK7QStringRK7QRegExpS2_
libtreefrog.so.1:_ZN14TFormValidator18setValidationErrorERK7QString
libtreefrog.so.1:_ZN14TFormValidator18setValidationErrorERK7QStringS2_
libtreefrog.so.1:_ZN14TFormValidator7setRuleERK7QStringN2Tf14ValidationRuleEPKc
libtreefrog.so.1:_ZN14TFormValidator7setRuleERK7QStringN2Tf14ValidationRuleES2_
libtreefrog.so.1:_ZN14TFormValidator7setRuleERK7QStringN2Tf14ValidationRuleEbS2_
libtreefrog.so.1:_ZN14TFormValidator7setRuleERK7QStringN2Tf14ValidationRuleEdS2_
libtreefrog.so.1:_ZN14TFormValidator7setRuleERK7QStringN2Tf14ValidationRuleEfS2_
libtreefrog.so.1:_ZN14TFormValidator7setRuleERK7QStringN2Tf14ValidationRuleEiS2_
libtreefrog.so.1:_ZN14TFormValidator7setRuleERK7QStringN2Tf14ValidationRuleExS2_
libtreefrog.so.1:_ZN14TFormValidator8validateERK4QMapI7QString8QVariantE
libtreefrog.so.1:_ZN14TFormValidator9RuleEntryC1ERK7QStringiRK7QRegExpS3_
libtreefrog.so.1:_ZN14TFormValidator9RuleEntryC1ERK7QStringibS3_
libtreefrog.so.1:_ZN14TFormValidator9RuleEntryC1ERK7QStringidS3_
libtreefrog.so.1:_ZN14TFormValidator9RuleEntryC1ERK7QStringixS3_
libtreefrog.so.1:_ZN14TFormValidator9RuleEntryC2ERK7QStringiRK7QRegExpS3_
libtreefrog.so.1:_ZN14TFormValidator9RuleEntryC2ERK7QStringibS3_
libtreefrog.so.1:_ZN14TFormValidator9RuleEntryC2ERK7QStringidS3_
libtreefrog.so.1:_ZN14TFormValidator9RuleEntryC2ERK7QStringixS3_
libtreefrog.so.1:_ZN14TFormValidatorC1ERKS_
libtreefrog.so.1:_ZN14TFormValidatorC2ERKS_
libtreefrog.so.1:_ZN14TFormValidatoraSERKS_
libtreefrog.so.1:_ZN14THtmlAttribute6appendERK7QStringS2_
libtreefrog.so.1:_ZN14THtmlAttribute7prependERK7QStringS2_
libtreefrog.so.1:_ZN14THtmlAttributeC1ERK5QListI5QPairI7QStringS2_EE
libtreefrog.so.1:_ZN14THtmlAttributeC1ERK7QStringS2_
libtreefrog.so.1:_ZN14THtmlAttributeC1ERKS_
libtreefrog.so.1:_ZN14THtmlAttributeC2ERK5QListI5QPairI7QStringS2_EE
libtreefrog.so.1:_ZN14THtmlAttributeC2ERK7QStringS2_
libtreefrog.so.1:_ZN14THtmlAttributeC2ERKS_
libtreefrog.so.1:_ZN14THtmlAttributeaSERKS_
libtreefrog.so.1:_ZN14THtmlAttributeclERK7QStringS2_
libtreefrog.so.1:_ZN14TLoggerFactory11loadPluginsEv
libtreefrog.so.1:_ZN14TLoggerFactory4keysEv
libtreefrog.so.1:_ZN14TLoggerFactory6createERK7QString
libtreefrog.so.1:_ZN14TSessionObject11qt_metacallEN11QMetaObject4CallEiPPv
libtreefrog.so.1:_ZN14TSessionObject11qt_metacastEPKc
libtreefrog.so.1:_ZN14TTemporaryFile4openE6QFlagsIN9QIODevice12OpenModeFlagEE
libtreefrog.so.1:_ZN14TTemporaryFile4openEv
libtreefrog.so.1:_ZN14TTemporaryFileC1Ev
libtreefrog.so.1:_ZN14TTemporaryFileC2Ev
libtreefrog.so.1:_ZN15TBasicLogStream10timerEventEP11QTimerEvent
libtreefrog.so.1:_ZN15TBasicLogStream19setNonBufferingModeEv
libtreefrog.so.1:_ZN15TBasicLogStream5flushEv
libtreefrog.so.1:_ZN15TBasicLogStream8writeLogERK4TLog
libtreefrog.so.1:_ZN15TBasicLogStreamC1E5QListIP7TLoggerEP7QObject
libtreefrog.so.1:_ZN15TBasicLogStreamC2E5QListIP7TLoggerEP7QObject
libtreefrog.so.1:_ZN15TBasicLogStreamD0Ev
libtreefrog.so.1:_ZN15TBasicLogStreamD1Ev
libtreefrog.so.1:_ZN15TBasicLogStreamD2Ev
libtreefrog.so.1:_ZN15TEpollWebSocket10disconnectEv
libtreefrog.so.1:_ZN15TEpollWebSocket10timerEventEP11QTimerEvent
libtreefrog.so.1:_ZN15TEpollWebSocket11deleteLaterEv
libtreefrog.so.1:_ZN15TEpollWebSocket11qt_metacallEN11QMetaObject4CallEiPPv
libtreefrog.so.1:_ZN15TEpollWebSocket11qt_metacastEPKc
libtreefrog.so.1:_ZN15TEpollWebSocket11startWorkerEP16TWebSocketWorker
libtreefrog.so.1:_ZN15TEpollWebSocket11startWorkerEv
libtreefrog.so.1:_ZN15TEpollWebSocket12searchSocketEi
libtreefrog.so.1:_ZN15TEpollWebSocket12writeRawDataERK10QByteArray
libtreefrog.so.1:_ZN15TEpollWebSocket13getRecvBufferEi
libtreefrog.so.1:_ZN15TEpollWebSocket13releaseWorkerEv
libtreefrog.so.1:_ZN15TEpollWebSocket14canReadRequestEv
libtreefrog.so.1:_ZN15TEpollWebSocket14seekRecvBufferEi
libtreefrog.so.1:_ZN15TEpollWebSocket18sendTextForPublishERK7QStringPK7QObject
libtreefrog.so.1:_ZN15TEpollWebSocket20readAllBinaryRequestEv
libtreefrog.so.1:_ZN15TEpollWebSocket20sendBinaryForPublishERK10QByteArrayPK7QObject
libtreefrog.so.1:_ZN15TEpollWebSocket21startWorkerForClosingEv
libtreefrog.so.1:_ZN15TEpollWebSocket21startWorkerForOpeningERK8TSession
libtreefrog.so.1:_ZN15TEpollWebSocket5clearEv
libtreefrog.so.1:_ZN15TEpollWebSocket8sendPongERK10QByteArray
libtreefrog.so.1:_ZN15TEpollWebSocketC1EiRK12QHostAddressRK18THttpRequestHeader
libtreefrog.so.1:_ZN15TEpollWebSocketC2EiRK12QHostAddressRK18THttpRequestHeader
libtreefrog.so.1:_ZN15TEpollWebSocketD0Ev
libtreefrog.so.1:_ZN15TEpollWebSocketD1Ev
libtreefrog.so.1:_ZN15TEpollWebSocketD2Ev
libtreefrog.so.1:_ZN15TReactComponent14renderToStringERK7QString
libtreefrog.so.1:_ZN15TReactComponent6importERK7QString
libtreefrog.so.1:_ZN15TReactComponent6importERK7QStringS2_
libtreefrog.so.1:_ZN15TReactComponentC1ERK7QStringRK11QStringList
libtreefrog.so.1:_ZN15TReactComponentC2ERK7QStringRK11QStringList
libtreefrog.so.1:_ZN15TSendmailMailer11qt_metacallEN11QMetaObject4CallEiPPv
libtreefrog.so.1:_ZN15TSendmailMailer11qt_metacastEPKc
libtreefrog.so.1:_ZN15TSendmailMailer18sendAndDeleteLaterEv
libtreefrog.so.1:_ZN15TSendmailMailer4sendERK12TMailMessage
libtreefrog.so.1:_ZN15TSendmailMailer4sendEv
libtreefrog.so.1:_ZN15TSendmailMailer9sendLaterERK12TMailMessage
libtreefrog.so.1:_ZN15TSendmailMailerC1ERK7QStringP7QObject
libtreefrog.so.1:_ZN15TSendmailMailerC2ERK7QStringP7QObject
libtreefrog.so.1:_ZN15TSendmailMailerD0Ev
libtreefrog.so.1:_ZN15TSendmailMailerD1Ev
libtreefrog.so.1:_ZN15TSendmailMailerD2Ev
libtreefrog.so.1:_ZN15TSessionManager10generateIdEv
libtreefrog.so.1:_ZN15TSessionManager11findSessionERK10QByteArray
libtreefrog.so.1:_ZN15TSessionManager14collectGarbageEv
libtreefrog.so.1:_ZN15TSessionManager5storeER8TSession
libtreefrog.so.1:_ZN15TSessionManager6removeERK10QByteArray
libtreefrog.so.1:_ZN15TSessionManager8instanceEv
libtreefrog.so.1:_ZN15TSessionManagerC1Ev
libtreefrog.so.1:_ZN15TSessionManagerC2Ev
libtreefrog.so.1:_ZN15TSessionManagerD1Ev
libtreefrog.so.1:_ZN15TSessionManagerD2Ev
libtreefrog.so.1:_ZN15TSqlTransaction5beginEv
libtreefrog.so.1:_ZN15TSqlTransaction6commitEv
libtreefrog.so.1:_ZN15TSqlTransaction8rollbackEv
libtreefrog.so.1:_ZN15TSqlTransactionC1ERKS_
libtreefrog.so.1:_ZN15TSqlTransactionC1Ev
libtreefrog.so.1:_ZN15TSqlTransactionC2ERKS_
libtreefrog.so.1:_ZN15TSqlTransactionC2Ev
libtreefrog.so.1:_ZN15TSqlTransactionD1Ev
libtreefrog.so.1:_ZN15TSqlTransactionD2Ev
libtreefrog.so.1:_ZN15TSqlTransactionaSERKS_
libtreefrog.so.1:_ZN15TWebApplication10timerEventEP11QTimerEvent
libtreefrog.so.1:_ZN15TWebApplication11qt_metacallEN11QMetaObject4CallEiPPv
libtreefrog.so.1:_ZN15TWebApplication11qt_metacastEPKc
libtreefrog.so.1:_ZN15TWebApplication12signalNumberEv
libtreefrog.so.1:_ZN15TWebApplication14getConfigValueERK7QStringS2_RK8QVariant
libtreefrog.so.1:_ZN15TWebApplication15watchUnixSignalEib
libtreefrog.so.1:_ZN15TWebApplication16ignoreUnixSignalEib
libtreefrog.so.1:_ZN15TWebApplication17internetMediaTypeERK7QStringb
libtreefrog.so.1:_ZN15TWebApplication17resetSignalNumberEv
libtreefrog.so.1:_ZN15TWebApplication4execEv
libtreefrog.so.1:_ZN15TWebApplication9getConfigERK7QString
libtreefrog.so.1:_ZN15TWebApplicationC1ERiPPc
libtreefrog.so.1:_ZN15TWebApplicationC2ERiPPc
libtreefrog.so.1:_ZN15TWebApplicationD0Ev
libtreefrog.so.1:_ZN15TWebApplicationD1Ev
libtreefrog.so.1:_ZN15TWebApplicationD2Ev
libtreefrog.so.1:_ZN15TWebSocketFrame10setMaskKeyEj
libtreefrog.so.1:_ZN15TWebSocketFrame10setPayloadERK10QByteArray
libtreefrog.so.1:_ZN15TWebSocketFrame12setFirstByteEh
libtreefrog.so.1:_ZN15TWebSocketFrame16setPayloadLengthEy
libtreefrog.so.1:_ZN15TWebSocketFrame5clearEv
libtreefrog.so.1:_ZN15TWebSocketFrame8setStateENS_15ProcessingStateE
libtreefrog.so.1:_ZN15TWebSocketFrame8validateEv
libtreefrog.so.1:_ZN15TWebSocketFrame9setFinBitEb
libtreefrog.so.1:_ZN15TWebSocketFrame9setOpCodeENS_6OpCodeE
libtreefrog.so.1:_ZN15TWebSocketFrameC1ERKS_
libtreefrog.so.1:_ZN15TWebSocketFrameC1Ev
libtreefrog.so.1:_ZN15TWebSocketFrameC2ERKS_
libtreefrog.so.1:_ZN15TWebSocketFrameC2Ev
libtreefrog.so.1:_ZN15TWebSocketFrameaSERKS_
libtreefrog.so.1:_ZN16DirectController11qt_metacallEN11QMetaObject4CallEiPPv
libtreefrog.so.1:_ZN16DirectController11qt_metacastEPKc
libtreefrog.so.1:_ZN16DirectController4showERK7QString
libtreefrog.so.1:_ZN16TAccessLogStream5flushEv
libtreefrog.so.1:_ZN16TAccessLogStream8writeLogERK10QByteArray
libtreefrog.so.1:_ZN16TAccessLogStreamC1ERK7QString
libtreefrog.so.1:_ZN16TAccessLogStreamC2ERK7QString
libtreefrog.so.1:_ZN16TAccessLogStreamD1Ev
libtreefrog.so.1:_ZN16TAccessLogStreamD2Ev
libtreefrog.so.1:_ZN16TAccessValidator11setDenyUserERK7QStringRK11QStringList
libtreefrog.so.1:_ZN16TAccessValidator11setDenyUserERK7QStringS2_
libtreefrog.so.1:_ZN16TAccessValidator12setAllowUserERK7QStringRK11QStringList
libtreefrog.so.1:_ZN16TAccessValidator12setAllowUserERK7QStringS2_
libtreefrog.so.1:_ZN16TAccessValidator12setDenyGroupERK7QStringRK11QStringList
libtreefrog.so.1:_ZN16TAccessValidator12setDenyGroupERK7QStringS2_
libtreefrog.so.1:_ZN16TAccessValidator13setAllowGroupERK7QStringRK11QStringList
libtreefrog.so.1:_ZN16TAccessValidator13setAllowGroupERK7QStringS2_
libtreefrog.so.1:_ZN16TAccessValidator26setDenyUnauthenticatedUserERK11QStringList
libtreefrog.so.1:_ZN16TAccessValidator26setDenyUnauthenticatedUserERK7QString
libtreefrog.so.1:_ZN16TAccessValidator27setAllowUnauthenticatedUserERK11QStringList
libtreefrog.so.1:_ZN16TAccessValidator27setAllowUnauthenticatedUserERK7QString
libtreefrog.so.1:_ZN16TAccessValidator5clearEv
libtreefrog.so.1:_ZN16TAccessValidator8addRulesEiRK7QStringRK11QStringListb
libtreefrog.so.1:_ZN16TAccessValidatorC1Ev
libtreefrog.so.1:_ZN16TAccessValidatorC2Ev
libtreefrog.so.1:_ZN16TDatabaseContext14getKvsDatabaseEN12TKvsDatabase4TypeE
libtreefrog.so.1:_ZN16TDatabaseContext14getSqlDatabaseEi
libtreefrog.so.1:_ZN16TDatabaseContext17commitTransactionEi
libtreefrog.so.1:_ZN16TDatabaseContext18commitTransactionsEv
libtreefrog.so.1:_ZN16TDatabaseContext19releaseKvsDatabasesEv
libtreefrog.so.1:_ZN16TDatabaseContext19releaseSqlDatabasesEv
libtreefrog.so.1:_ZN16TDatabaseContext19rollbackTransactionEi
libtreefrog.so.1:_ZN16TDatabaseContext20rollbackTransactionsEv
libtreefrog.so.1:_ZN16TDatabaseContext21setTransactionEnabledEbi
libtreefrog.so.1:_ZN16TDatabaseContext22currentDatabaseContextEv
libtreefrog.so.1:_ZN16TDatabaseContext25setCurrentDatabaseContextEPS_
libtreefrog.so.1:_ZN16TDatabaseContext7releaseEv
libtreefrog.so.1:_ZN16TDatabaseContextC1Ev
libtreefrog.so.1:_ZN16TDatabaseContextC2Ev
libtreefrog.so.1:_ZN16TDatabaseContextD0Ev
libtreefrog.so.1:_ZN16TDatabaseContextD1Ev
libtreefrog.so.1:_ZN16TDatabaseContextD2Ev
libtreefrog.so.1:_ZN16TEpollHttpSocket10allSocketsEv
libtreefrog.so.1:_ZN16TEpollHttpSocket11deleteLaterEv
libtreefrog.so.1:_ZN16TEpollHttpSocket11qt_metacallEN11QMetaObject4CallEiPPv
libtreefrog.so.1:_ZN16TEpollHttpSocket11qt_metacastEPKc
libtreefrog.so.1:_ZN16TEpollHttpSocket11readRequestEv
libtreefrog.so.1:_ZN16TEpollHttpSocket11startWorkerEv
libtreefrog.so.1:_ZN16TEpollHttpSocket12searchSocketEi
libtreefrog.so.1:_ZN16TEpollHttpSocket13getRecvBufferEi
libtreefrog.so.1:_ZN16TEpollHttpSocket13releaseWorkerEv
libtreefrog.so.1:_ZN16TEpollHttpSocket14canReadRequestEv
libtreefrog.so.1:_ZN16TEpollHttpSocket14seekRecvBufferEi
libtreefrog.so.1:_ZN16TEpollHttpSocket4recvEv
libtreefrog.so.1:_ZN16TEpollHttpSocket4sendEv
libtreefrog.so.1:_ZN16TEpollHttpSocket5clearEv
libtreefrog.so.1:_ZN16TEpollHttpSocket5parseEv
libtreefrog.so.1:_ZN16TEpollHttpSocketC1EiRK12QHostAddress
libtreefrog.so.1:_ZN16TEpollHttpSocketC2EiRK12QHostAddress
libtreefrog.so.1:_ZN16TEpollHttpSocketD0Ev
libtreefrog.so.1:_ZN16TEpollHttpSocketD1Ev
libtreefrog.so.1:_ZN16TEpollHttpSocketD2Ev
libtreefrog.so.1:_ZN16THttpRequestDataC1ERKS_
libtreefrog.so.1:_ZN16THttpRequestDataC2ERKS_
libtreefrog.so.1:_ZN16TKvsDatabasePool10driverNameEN12TKvsDatabase4TypeE
libtreefrog.so.1:_ZN16TKvsDatabasePool10timerEventEP11QTimerEvent
libtreefrog.so.1:_ZN16TKvsDatabasePool11instantiateEv
libtreefrog.so.1:_ZN16TKvsDatabasePool11qt_metacallEN11QMetaObject4CallEiPPv
libtreefrog.so.1:_ZN16TKvsDatabasePool11qt_metacastEPKc
libtreefrog.so.1:_ZN16TKvsDatabasePool4initEv
libtreefrog.so.1:_ZN16TKvsDatabasePool4poolER12TKvsDatabase
libtreefrog.so.1:_ZN16TKvsDatabasePool8databaseEN12TKvsDatabase4TypeE
libtreefrog.so.1:_ZN16TKvsDatabasePool8instanceEv
libtreefrog.so.1:_ZN16TKvsDatabasePoolC1ERK7QString
libtreefrog.so.1:_ZN16TKvsDatabasePoolC2ERK7QString
libtreefrog.so.1:_ZN16TKvsDatabasePoolD0Ev
libtreefrog.so.1:_ZN16TKvsDatabasePoolD1Ev
libtreefrog.so.1:_ZN16TKvsDatabasePoolD2Ev
libtreefrog.so.1:_ZN16TSqlDatabasePool10driverTypeERK7QStringi
libtreefrog.so.1:_ZN16TSqlDatabasePool10timerEventEP11QTimerEvent
libtreefrog.so.1:_ZN16TSqlDatabasePool11instantiateEv
libtreefrog.so.1:_ZN16TSqlDatabasePool11qt_metacallEN11QMetaObject4CallEiPPv
libtreefrog.so.1:_ZN16TSqlDatabasePool11qt_metacastEPKc
libtreefrog.so.1:_ZN16TSqlDatabasePool13closeDatabaseER12QSqlDatabase
libtreefrog.so.1:_ZN16TSqlDatabasePool13getDatabaseIdERK12QSqlDatabase
libtreefrog.so.1:_ZN16TSqlDatabasePool19setDatabaseSettingsER12TSqlDatabaseRK7QStringi
libtreefrog.so.1:_ZN16TSqlDatabasePool4initEv
libtreefrog.so.1:_ZN16TSqlDatabasePool4poolER12QSqlDatabaseb
libtreefrog.so.1:_ZN16TSqlDatabasePool8databaseEi
libtreefrog.so.1:_ZN16TSqlDatabasePool8instanceEv
libtreefrog.so.1:_ZN16TSqlDatabasePoolC1ERK7QString
libtreefrog.so.1:_ZN16TSqlDatabasePoolC2ERK7QString
libtreefrog.so.1:_ZN16TSqlDatabasePoolD0Ev
libtreefrog.so.1:_ZN16TSqlDatabasePoolD1Ev
libtreefrog.so.1:_ZN16TSqlDatabasePoolD2Ev
libtreefrog.so.1:_ZN16TWebSocketWorker10setPayloadEN15TWebSocketFrame6OpCodeERK10QByteArray
libtreefrog.so.1:_ZN16TWebSocketWorker10setSessionERK8TSession
libtreefrog.so.1:_ZN16TWebSocketWorker11qt_metacallEN11QMetaObject4CallEiPPv
libtreefrog.so.1:_ZN16TWebSocketWorker11qt_metacastEPKc
libtreefrog.so.1:_ZN16TWebSocketWorker11setPayloadsE5QListI5QPairIi10QByteArrayEE
libtreefrog.so.1:_ZN16TWebSocketWorker3runEv
libtreefrog.so.1:_ZN16TWebSocketWorker7executeEiRK10QByteArray
libtreefrog.so.1:_ZN16TWebSocketWorkerC1ENS_7RunModeEP18TAbstractWebSocketRK10QByteArrayP7QObject
libtreefrog.so.1:_ZN16TWebSocketWorkerC2ENS_7RunModeEP18TAbstractWebSocketRK10QByteArrayP7QObject
libtreefrog.so.1:_ZN16TWebSocketWorkerD0Ev
libtreefrog.so.1:_ZN16TWebSocketWorkerD1Ev
libtreefrog.so.1:_ZN16TWebSocketWorkerD2Ev
libtreefrog.so.1:_ZN17TActionController10renderCborERK10QCborArray
libtreefrog.so.1:_ZN17TActionController10renderCborERK10QCborValue
libtreefrog.so.1:_ZN17TActionController10renderCborERK4QMapI7QString8QVariantE
libtreefrog.so.1:_ZN17TActionController10renderCborERK5QHashI7QString8QVariantE
libtreefrog.so.1:_ZN17TActionController10renderCborERK8QCborMap
libtreefrog.so.1:_ZN17TActionController10renderCborERK8QVariant
libtreefrog.so.1:_ZN17TActionController10renderJsonERK10QJsonArray
libtreefrog.so.1:_ZN17TActionController10renderJsonERK11QJsonObject
libtreefrog.so.1:_ZN17TActionController10renderJsonERK11QStringList
libtreefrog.so.1:_ZN17TActionController10renderJsonERK13QJsonDocument
libtreefrog.so.1:_ZN17TActionController10renderJsonERK4QMapI7QString8QVariantE
libtreefrog.so.1:_ZN17TActionController10renderJsonERK5QListI8QVariantE
libtreefrog.so.1:_ZN17TActionController10renderTextERK7QStringbS2_
libtreefrog.so.1:_ZN17TActionController10renderViewEP11TActionView
libtreefrog.so.1:_ZN17TActionController10setSessionERK8TSession
libtreefrog.so.1:_ZN17TActionController10userLogoutEv
libtreefrog.so.1:_ZN17TActionController11httpRequestEv
libtreefrog.so.1:_ZN17TActionController13setAutoRemoveERK7QString
libtreefrog.so.1:_ZN17TActionController14closeWebSokcetEii
libtreefrog.so.1:_ZN17TActionController14renderTemplateERK7QStringS2_
libtreefrog.so.1:_ZN17TActionController14validateAccessEPK13TAbstractUser
libtreefrog.so.1:_ZN17TActionController15layoutClassNameERK7QString
libtreefrog.so.1:_ZN17TActionController16getRenderingDataERK7QStringRK4QMapIS0_8QVariantE
libtreefrog.so.1:_ZN17TActionController16loginUserNameKeyEv
libtreefrog.so.1:_ZN17TActionController19disabledControllersEv
libtreefrog.so.1:_ZN17TActionController19renderErrorResponseEi
libtreefrog.so.1:_ZN17TActionController19sendTextToWebSocketEiRK7QString
libtreefrog.so.1:_ZN17TActionController20availableControllersEv
libtreefrog.so.1:_ZN17TActionController20partialViewClassNameERK7QString
libtreefrog.so.1:_ZN17TActionController21sendBinaryToWebSocketEiRK10QByteArray
libtreefrog.so.1:_ZN17TActionController21setCsrfProtectionIntoER8TSession
libtreefrog.so.1:_ZN17TActionController22exportAllFlashVariantsEv
libtreefrog.so.1:_ZN17TActionController24setFlashValidationErrorsERK14TFormValidatorRK7QString
libtreefrog.so.1:_ZN17TActionController6renderERK7QStringS2_
libtreefrog.so.1:_ZN17TActionController8redirectERK4QUrli
libtreefrog.so.1:_ZN17TActionController8sendDataERK10QByteArrayS2_RK7QString
libtreefrog.so.1:_ZN17TActionController8sendFileERK7QStringRK10QByteArrayS2_b
libtreefrog.so.1:_ZN17TActionController8setFlashERK7QStringRK8QVariant
libtreefrog.so.1:_ZN17TActionController9addCookieERK10QByteArrayS2_RK9QDateTimeRK7QStringS8_bb
libtreefrog.so.1:_ZN17TActionController9addCookieERK14QNetworkCookie
libtreefrog.so.1:_ZN17TActionController9renderXmlERK11QStringList
libtreefrog.so.1:_ZN17TActionController9renderXmlERK12QDomDocument
libtreefrog.so.1:_ZN17TActionController9renderXmlERK4QMapI7QString8QVariantE
libtreefrog.so.1:_ZN17TActionController9renderXmlERK5QListI8QVariantE
libtreefrog.so.1:_ZN17TActionController9setLayoutERK7QString
libtreefrog.so.1:_ZN17TActionController9userLoginEPK13TAbstractUser
libtreefrog.so.1:_ZN17TActionControllerC1Ev
libtreefrog.so.1:_ZN17TActionControllerC2Ev
libtreefrog.so.1:_ZN17THazardPtrManager2gcEv
libtreefrog.so.1:_ZN17THazardPtrManager30setGarbageCollectionBufferSizeEi
libtreefrog.so.1:_ZN17THazardPtrManager3popEP13THazardObjectS1_
libtreefrog.so.1:_ZN17THazardPtrManager3popEP16THazardPtrRecordS1_
libtreefrog.so.1:_ZN17THazardPtrManager4pushEP13THazardObject
libtreefrog.so.1:_ZN17THazardPtrManager4pushEP16THazardPtrRecord
libtreefrog.so.1:_ZN17THazardPtrManager8instanceEv
libtreefrog.so.1:_ZN17THazardPtrManagerC1Ev
libtreefrog.so.1:_ZN17THazardPtrManagerC2Ev
libtreefrog.so.1:_ZN17THazardPtrManagerD1Ev
libtreefrog.so.1:_ZN17THazardPtrManagerD2Ev
libtreefrog.so.1:_ZN17TSessionFileStore14sessionDirPathEv
libtreefrog.so.1:_ZN17TSessionFileStore2gcERK9QDateTime
libtreefrog.so.1:_ZN17TSessionFileStore4findERK10QByteArray
libtreefrog.so.1:_ZN17TSessionFileStore5storeER8TSession
libtreefrog.so.1:_ZN17TSessionFileStore6removeERK10QByteArray
libtreefrog.so.1:_ZN17TSystemBusMessage5parseER10QByteArray
libtreefrog.so.1:_ZN17TSystemBusMessage8validateEv
libtreefrog.so.1:_ZN17TSystemBusMessageC1EhRK10QByteArray
libtreefrog.so.1:_ZN17TSystemBusMessageC1EhRK7QStringRK10QByteArray
libtreefrog.so.1:_ZN17TSystemBusMessageC1Ev
libtreefrog.so.1:_ZN17TSystemBusMessageC2EhRK10QByteArray
libtreefrog.so.1:_ZN17TSystemBusMessageC2EhRK7QStringRK10QByteArray
libtreefrog.so.1:_ZN17TSystemBusMessageC2Ev
libtreefrog.so.1:_ZN17TWebSocketSession5uniteERK8TSession
libtreefrog.so.1:_ZN18TAbstractLogStream10loggerOpenENS_10LoggerTypeE
libtreefrog.so.1:_ZN18TAbstractLogStream11loggerCloseENS_10LoggerTypeE
libtreefrog.so.1:_ZN18TAbstractLogStream11loggerFlushEv
libtreefrog.so.1:_ZN18TAbstractLogStream11loggerWriteERK4TLog
libtreefrog.so.1:_ZN18TAbstractLogStream11loggerWriteERK5QListI4TLogE
libtreefrog.so.1:_ZN18TAbstractLogStream11qt_metacallEN11QMetaObject4CallEiPPv
libtreefrog.so.1:_ZN18TAbstractLogStream11qt_metacastEPKc
libtreefrog.so.1:_ZN18TAbstractLogStream19setNonBufferingModeEv
libtreefrog.so.1:_ZN18TAbstractLogStreamC1ERK5QListIP7TLoggerEP7QObject
libtreefrog.so.1:_ZN18TAbstractLogStreamC2ERK5QListIP7TLoggerEP7QObject
libtreefrog.so.1:_ZN18TAbstractWebSocket10sendBinaryERK10QByteArray
libtreefrog.so.1:_ZN18TAbstractWebSocket10setSessionERK17TWebSocketSession
libtreefrog.so.1:_ZN18TAbstractWebSocket13stopKeepAliveEv
libtreefrog.so.1:_ZN18TAbstractWebSocket14renewKeepAliveEv
libtreefrog.so.1:_ZN18TAbstractWebSocket14searchEndpointERK18THttpRequestHeader
libtreefrog.so.1:_ZN18TAbstractWebSocket14startKeepAliveEi
libtreefrog.so.1:_ZN18TAbstractWebSocket15searchWebSocketEi
libtreefrog.so.1:_ZN18TAbstractWebSocket21sendHandshakeResponseEv
libtreefrog.so.1:_ZN18TAbstractWebSocket5parseER10QByteArray
libtreefrog.so.1:_ZN18TAbstractWebSocket8sendPingERK10QByteArray
libtreefrog.so.1:_ZN18TAbstractWebSocket8sendPongERK10QByteArray
libtreefrog.so.1:_ZN18TAbstractWebSocket8sendTextERK7QString
libtreefrog.so.1:_ZN18TAbstractWebSocket9sendCloseEi
libtreefrog.so.1:_ZN18TAbstractWebSocketC1ERK18THttpRequestHeader
libtreefrog.so.1:_ZN18TAbstractWebSocketC2ERK18THttpRequestHeader
libtreefrog.so.1:_ZN18TAbstractWebSocketD0Ev
libtreefrog.so.1:_ZN18TAbstractWebSocketD1Ev
libtreefrog.so.1:_ZN18TAbstractWebSocketD2Ev
libtreefrog.so.1:_ZN18TBackgroundProcess11qt_metacallEN11QMetaObject4CallEiPPv
libtreefrog.so.1:_ZN18TBackgroundProcess11qt_metacastEPKc
libtreefrog.so.1:_ZN18TBackgroundProcess13setAutoDeleteEb
libtreefrog.so.1:_ZN18TBackgroundProcess14connectToSlotsEP25TBackgroundProcessHandler
libtreefrog.so.1:_ZN18TBackgroundProcess14handleFinishedEv
libtreefrog.so.1:_ZN18TBackgroundProcess5startE6QFlagsIN9QIODevice12OpenModeFlagEEP25TBackgroundProcessHandler
libtreefrog.so.1:_ZN18TBackgroundProcess5startERK7QString6QFlagsIN9QIODevice12OpenModeFlagEEP25TBackgroundProcessHandler
libtreefrog.so.1:_ZN18TBackgroundProcess5startERK7QStringRK11QStringList6QFlagsIN9QIODevice12OpenModeFlagEEP25TBackgroundProcessHandler
libtreefrog.so.1:_ZN18TBackgroundProcess9callStartERK7QStringRK11QStringListi
libtreefrog.so.1:_ZN18TBackgroundProcessC1EP7QObject
libtreefrog.so.1:_ZN18TBackgroundProcessC2EP7QObject
libtreefrog.so.1:_ZN18THttpRequestHeader10setRequestERK10QByteArrayS2_ii
libtreefrog.so.1:_ZN18THttpRequestHeaderC1ERK10QByteArray
libtreefrog.so.1:_ZN18THttpRequestHeaderC1ERKS_
libtreefrog.so.1:_ZN18THttpRequestHeaderC1Ev
libtreefrog.so.1:_ZN18THttpRequestHeaderC2ERK10QByteArray
libtreefrog.so.1:_ZN18THttpRequestHeaderC2ERKS_
libtreefrog.so.1:_ZN18THttpRequestHeaderC2Ev
libtreefrog.so.1:_ZN18THttpRequestHeaderaSERKS_
libtreefrog.so.1:_ZN18TMultipartFormData18renameUploadedFileERK10QByteArrayRK7QStringb6QFlagsIN11QFileDevice10PermissionEE
libtreefrog.so.1:_ZN18TMultipartFormData5clearEv
libtreefrog.so.1:_ZN18TMultipartFormData5parseEP9QIODevice
libtreefrog.so.1:_ZN18TMultipartFormDataC1ERK10QByteArray
libtreefrog.so.1:_ZN18TMultipartFormDataC1ERK10QByteArrayS2_
libtreefrog.so.1:_ZN18TMultipartFormDataC1ERK7QStringRK10QByteArray
libtreefrog.so.1:_ZN18TMultipartFormDataC2ERK10QByteArray
libtreefrog.so.1:_ZN18TMultipartFormDataC2ERK10QByteArrayS2_
libtreefrog.so.1:_ZN18TMultipartFormDataC2ERK7QStringRK10QByteArray
libtreefrog.so.1:_ZN18TSessionMongoStore2gcERK9QDateTime
libtreefrog.so.1:_ZN18TSessionMongoStore4findERK10QByteArray
libtreefrog.so.1:_ZN18TSessionMongoStore5storeER8TSession
libtreefrog.so.1:_ZN18TSessionMongoStore6removeERK10QByteArray
libtreefrog.so.1:_ZN18TSessionRedisStore2gcERK9QDateTime
libtreefrog.so.1:_ZN18TSessionRedisStore4findERK10QByteArray
libtreefrog.so.1:_ZN18TSessionRedisStore5storeER8TSession
libtreefrog.so.1:_ZN18TSessionRedisStore6removeERK10QByteArray
libtreefrog.so.1:_ZN18TWebSocketEndpoint10sendBinaryERK10QByteArray
libtreefrog.so.1:_ZN18TWebSocketEndpoint10sendBinaryEiRK10QByteArray
libtreefrog.so.1:_ZN18TWebSocketEndpoint11closeSocketEii
libtreefrog.so.1:_ZN18TWebSocketEndpoint11unsubscribeERK7QString
libtreefrog.so.1:_ZN18TWebSocketEndpoint14isUserLoggedInERK8TSession
libtreefrog.so.1:_ZN18TWebSocketEndpoint14onTextReceivedERK7QString
libtreefrog.so.1:_ZN18TWebSocketEndpoint14startKeepAliveEi
libtreefrog.so.1:_ZN18TWebSocketEndpoint16onBinaryReceivedERK10QByteArray
libtreefrog.so.1:_ZN18TWebSocketEndpoint17disabledEndpointsEv
libtreefrog.so.1:_ZN18TWebSocketEndpoint18unsubscribeFromAllEv
libtreefrog.so.1:_ZN18TWebSocketEndpoint22identityKeyOfLoginUserERK8TSession
libtreefrog.so.1:_ZN18TWebSocketEndpoint4pingERK10QByteArray
libtreefrog.so.1:_ZN18TWebSocketEndpoint5closeEi
libtreefrog.so.1:_ZN18TWebSocketEndpoint6onOpenERK8TSession
libtreefrog.so.1:_ZN18TWebSocketEndpoint6onPingERK10QByteArray
libtreefrog.so.1:_ZN18TWebSocketEndpoint6onPongERK10QByteArray
libtreefrog.so.1:_ZN18TWebSocketEndpoint7onCloseEi
libtreefrog.so.1:_ZN18TWebSocketEndpoint7publishERK7QStringRK10QByteArray
libtreefrog.so.1:_ZN18TWebSocketEndpoint7publishERK7QStringS2_
libtreefrog.so.1:_ZN18TWebSocketEndpoint8sendHttpEiRK10QByteArray
libtreefrog.so.1:_ZN18TWebSocketEndpoint8sendPingERK10QByteArray
libtreefrog.so.1:_ZN18TWebSocketEndpoint8sendPongERK10QByteArray
libtreefrog.so.1:_ZN18TWebSocketEndpoint8sendTextERK7QString
libtreefrog.so.1:_ZN18TWebSocketEndpoint8sendTextEiRK7QString
libtreefrog.so.1:_ZN18TWebSocketEndpoint9subscribeERK7QStringb
libtreefrog.so.1:_ZN18TWebSocketEndpointC1Ev
libtreefrog.so.1:_ZN18TWebSocketEndpointC2Ev
libtreefrog.so.1:_ZN19TAbstractController13exportVariantERK7QStringRK8QVariantb
libtreefrog.so.1:_ZN19TAbstractController14exportVariantsERK4QMapI7QString8QVariantE
libtreefrog.so.1:_ZN19TAbstractController22exportValidationErrorsERK14TFormValidatorRK7QString
libtreefrog.so.1:_ZN19TAbstractControllerC1Ev
libtreefrog.so.1:_ZN19TAbstractControllerC2Ev
libtreefrog.so.1:_ZN19THttpResponseHeader13setStatusLineEiRK10QByteArrayii
libtreefrog.so.1:_ZN19THttpResponseHeaderC1ERK10QByteArray
libtreefrog.so.1:_ZN19THttpResponseHeaderC1ERKS_
libtreefrog.so.1:_ZN19THttpResponseHeaderC1Ev
libtreefrog.so.1:_ZN19THttpResponseHeaderC2ERK10QByteArray
libtreefrog.so.1:_ZN19THttpResponseHeaderC2ERKS_
libtreefrog.so.1:_ZN19THttpResponseHeaderC2Ev
libtreefrog.so.1:_ZN19THttpResponseHeaderaSERKS_
libtreefrog.so.1:_ZN19TMultiplexingServer10timerEventEP11QTimerEvent
libtreefrog.so.1:_ZN19TMultiplexingServer11instantiateEi
libtreefrog.so.1:_ZN19TMultiplexingServer11qt_metacallEN11QMetaObject4CallEiPPv
libtreefrog.so.1:_ZN19TMultiplexingServer11qt_metacastEPKc
libtreefrog.so.1:_ZN19TMultiplexingServer15incomingRequestEP12TEpollSocket
libtreefrog.so.1:_ZN19TMultiplexingServer22isAutoReloadingEnabledEv
libtreefrog.so.1:_ZN19TMultiplexingServer23setAutoReloadingEnabledEb
libtreefrog.so.1:_ZN19TMultiplexingServer3runEv
libtreefrog.so.1:_ZN19TMultiplexingServer4stopEv
libtreefrog.so.1:_ZN19TMultiplexingServer5startEb
libtreefrog.so.1:_ZN19TMultiplexingServer8instanceEv
libtreefrog.so.1:_ZN19TMultiplexingServerC1EiP7QObject
libtreefrog.so.1:_ZN19TMultiplexingServerC2EiP7QObject
libtreefrog.so.1:_ZN19TMultiplexingServerD0Ev
libtreefrog.so.1:_ZN19TMultiplexingServerD1Ev
libtreefrog.so.1:_ZN19TMultiplexingServerD2Ev
libtreefrog.so.1:_ZN19TSessionCookieStore2gcERK9QDateTime
libtreefrog.so.1:_ZN19TSessionCookieStore4findERK10QByteArray
libtreefrog.so.1:_ZN19TSessionCookieStore5storeER8TSession
libtreefrog.so.1:_ZN19TSessionCookieStore6removeERK10QByteArray
libtreefrog.so.1:_ZN19TSessionMongoObject11qt_metacallEN11QMetaObject4CallEiPPv
libtreefrog.so.1:_ZN19TSessionMongoObject11qt_metacastEPKc
libtreefrog.so.1:_ZN19TSessionStorePlugin11qt_metacallEN11QMetaObject4CallEiPPv
libtreefrog.so.1:_ZN19TSessionStorePlugin11qt_metacastEPKc
libtreefrog.so.1:_ZN20THazardRemoverThread3runEv
libtreefrog.so.1:_ZN20TSessionStoreFactory11loadPluginsEv
libtreefrog.so.1:_ZN20TSessionStoreFactory4keysEv
libtreefrog.so.1:_ZN20TSessionStoreFactory6createERK7QString
libtreefrog.so.1:_ZN20TSessionStoreFactory7destroyERK7QStringP13TSessionStore
libtreefrog.so.1:_ZN21TApplicationScheduler11qt_metacallEN11QMetaObject4CallEiPPv
libtreefrog.so.1:_ZN21TApplicationScheduler11qt_metacastEPKc
libtreefrog.so.1:_ZN21TApplicationScheduler13setSingleShotEb
libtreefrog.so.1:_ZN21TApplicationScheduler19rollbackTransactionEv
libtreefrog.so.1:_ZN21TApplicationScheduler4stopEv
libtreefrog.so.1:_ZN21TApplicationScheduler5startEi
libtreefrog.so.1:_ZN21TApplicationSchedulerC1Ev
libtreefrog.so.1:_ZN21TApplicationSchedulerC2Ev
libtreefrog.so.1:_ZN21TApplicationSchedulerD0Ev
libtreefrog.so.1:_ZN21TApplicationSchedulerD1Ev
libtreefrog.so.1:_ZN21TApplicationSchedulerD2Ev
libtreefrog.so.1:_ZN22TApplicationServerBase11getPeerInfoEi
libtreefrog.so.1:_ZN22TApplicationServerBase11nativeCloseEi
libtreefrog.so.1:_ZN22TApplicationServerBase12nativeListenERK12QHostAddresstNS_8OpenFlagE
libtreefrog.so.1:_ZN22TApplicationServerBase12nativeListenERK7QStringNS_8OpenFlagE
libtreefrog.so.1:_ZN22TApplicationServerBase13loadLibrariesEv
libtreefrog.so.1:_ZN22TApplicationServerBase15duplicateSocketEi
libtreefrog.so.1:_ZN22TApplicationServerBase15unloadLibrariesEv
libtreefrog.so.1:_ZN22TApplicationServerBase16nativeSocketInitEv
libtreefrog.so.1:_ZN22TApplicationServerBase18newerLibraryExistsEv
libtreefrog.so.1:_ZN22TApplicationServerBase19invokeStaticReleaseEv
libtreefrog.so.1:_ZN22TApplicationServerBase19nativeSocketCleanupEv
libtreefrog.so.1:_ZN22TApplicationServerBase22invokeStaticInitializeEv
libtreefrog.so.1:_ZN22TApplicationServerBase22latestLibraryTimestampEv
libtreefrog.so.1:_ZN22TApplicationServerBaseC1Ev
libtreefrog.so.1:_ZN22TApplicationServerBaseC2Ev
libtreefrog.so.1:_ZN22TApplicationServerBaseD0Ev
libtreefrog.so.1:_ZN22TApplicationServerBaseD1Ev
libtreefrog.so.1:_ZN22TApplicationServerBaseD2Ev
libtreefrog.so.1:_ZN22TDatabaseContextThread3runEv
libtreefrog.so.1:_ZN22TInternetMessageHeader12addRawHeaderERK10QByteArrayS2_
libtreefrog.so.1:_ZN22TInternetMessageHeader12setRawHeaderERK10QByteArrayS2_
libtreefrog.so.1:_ZN22TInternetMessageHeader14setContentTypeERK10QByteArray
libtreefrog.so.1:_ZN22TInternetMessageHeader14setCurrentDateEv
libtreefrog.so.1:_ZN22TInternetMessageHeader15removeRawHeaderERK10QByteArray
libtreefrog.so.1:_ZN22TInternetMessageHeader16setContentLengthEi
libtreefrog.so.1:_ZN22TInternetMessageHeader19removeAllRawHeadersERK10QByteArray
libtreefrog.so.1:_ZN22TInternetMessageHeader5clearEv
libtreefrog.so.1:_ZN22TInternetMessageHeader5parseERK10QByteArray
libtreefrog.so.1:_ZN22TInternetMessageHeader7setDateERK10QByteArray
libtreefrog.so.1:_ZN22TInternetMessageHeader7setDateERK9QDateTime
libtreefrog.so.1:_ZN22TInternetMessageHeaderC1ERK10QByteArray
libtreefrog.so.1:_ZN22TInternetMessageHeaderC1ERKS_
libtreefrog.so.1:_ZN22TInternetMessageHeaderC2ERK10QByteArray
libtreefrog.so.1:_ZN22TInternetMessageHeaderC2ERKS_
libtreefrog.so.1:_ZN22TInternetMessageHeaderaSERKS_
libtreefrog.so.1:_ZN22TSessionSqlObjectStore2gcERK9QDateTime
libtreefrog.so.1:_ZN22TSessionSqlObjectStore4findERK10QByteArray
libtreefrog.so.1:_ZN22TSessionSqlObjectStore5storeER8TSession
libtreefrog.so.1:_ZN22TSessionSqlObjectStore6removeERK10QByteArray
libtreefrog.so.1:_ZN22TSharedMemoryLogStream10dataSizeOfERK5QListI4TLogE
libtreefrog.so.1:_ZN22TSharedMemoryLogStream10timerEventEP11QTimerEvent
libtreefrog.so.1:_ZN22TSharedMemoryLogStream11clearBufferEv
libtreefrog.so.1:_ZN22TSharedMemoryLogStream14loggerWriteLogERK5QListI4TLogE
libtreefrog.so.1:_ZN22TSharedMemoryLogStream19setNonBufferingModeEv
libtreefrog.so.1:_ZN22TSharedMemoryLogStream5flushEv
libtreefrog.so.1:_ZN22TSharedMemoryLogStream6smReadEv
libtreefrog.so.1:_ZN22TSharedMemoryLogStream7smWriteERK5QListI4TLogE
libtreefrog.so.1:_ZN22TSharedMemoryLogStream8writeLogERK4TLog
libtreefrog.so.1:_ZN22TSharedMemoryLogStreamC1E5QListIP7TLoggerEiP7QObject
libtreefrog.so.1:_ZN22TSharedMemoryLogStreamC2E5QListIP7TLoggerEiP7QObject
libtreefrog.so.1:_ZN22TSharedMemoryLogStreamD0Ev
libtreefrog.so.1:_ZN22TSharedMemoryLogStreamD1Ev
libtreefrog.so.1:_ZN22TSharedMemoryLogStreamD2Ev
libtreefrog.so.1:_ZN24TThreadApplicationServer10timerEventEP11QTimerEvent
libtreefrog.so.1:_ZN24TThreadApplicationServer11qt_metacallEN11QMetaObject4CallEiPPv
libtreefrog.so.1:_ZN24TThreadApplicationServer11qt_metacastEPKc
libtreefrog.so.1:_ZN24TThreadApplicationServer18incomingConnectionEx
libtreefrog.so.1:_ZN24TThreadApplicationServer22isAutoReloadingEnabledEv
libtreefrog.so.1:_ZN24TThreadApplicationServer23setAutoReloadingEnabledEb
libtreefrog.so.1:_ZN24TThreadApplicationServer4stopEv
libtreefrog.so.1:_ZN24TThreadApplicationServer5startEb
libtreefrog.so.1:_ZN24TThreadApplicationServerC1EiP7QObject
libtreefrog.so.1:_ZN24TThreadApplicationServerC2EiP7QObject
libtreefrog.so.1:_ZN24TThreadApplicationServerD0Ev
libtreefrog.so.1:_ZN24TThreadApplicationServerD1Ev
libtreefrog.so.1:_ZN24TThreadApplicationServerD2Ev
libtreefrog.so.1:_ZN25TBackgroundProcessHandler11qt_metacallEN11QMetaObject4CallEiPPv
libtreefrog.so.1:_ZN25TBackgroundProcessHandler11qt_metacastEPKc
libtreefrog.so.1:_ZN25TBackgroundProcessHandler13setAutoDeleteEb
libtreefrog.so.1:_ZN25TBackgroundProcessHandler23deleteAutoDeleteHandlerEv
libtreefrog.so.1:_ZN25TBackgroundProcessHandlerC1EP7QObject
libtreefrog.so.1:_ZN25TBackgroundProcessHandlerC2EP7QObject
libtreefrog.so.1:_ZN26TDatabaseContextMainThreadC1EP7QObject
libtreefrog.so.1:_ZN26TDatabaseContextMainThreadC2EP7QObject
libtreefrog.so.1:_ZN26TSqlDriverExtensionFactory4keysEv
libtreefrog.so.1:_ZN26TSqlDriverExtensionFactory6createERK7QStringPK10QSqlDriver
libtreefrog.so.1:_ZN26TSqlDriverExtensionFactory7destroyERK7QStringP19TSqlDriverExtension
libtreefrog.so.1:_ZN2Tf10randXor128Ev
libtreefrog.so.1:_ZN2Tf11appSettingsEv
libtreefrog.so.1:_ZN2Tf11srandXor128Ej
libtreefrog.so.1:_ZN2Tf13traceQueryLogEPKcz
libtreefrog.so.1:_ZN2Tf13writeQueryLogERK7QStringbRK9QSqlError
libtreefrog.so.1:_ZN2Tf14currentContextEv
libtreefrog.so.1:_ZN2Tf14writeAccessLogERK10TAccessLog
libtreefrog.so.1:_ZN2Tf15objectFactoriesEv
libtreefrog.so.1:_ZN2Tf15setupAppLoggersEv
libtreefrog.so.1:_ZN2Tf16setupQueryLoggerEv
libtreefrog.so.1:_ZN2Tf17hazardPtrForQueueEv
libtreefrog.so.1:_ZN2Tf17hazardPtrForStackEv
libtreefrog.so.1:_ZN2Tf17releaseAppLoggersEv
libtreefrog.so.1:_ZN2Tf17setupAccessLoggerEv
libtreefrog.so.1:_ZN2Tf17setupSystemLoggerEv
libtreefrog.so.1:_ZN2Tf18currentSqlDatabaseEi
libtreefrog.so.1:_ZN2Tf18releaseQueryLoggerEv
libtreefrog.so.1:_ZN2Tf19releaseAccessLoggerEv
libtreefrog.so.1:_ZN2Tf19releaseSystemLoggerEv
libtreefrog.so.1:_ZN2Tf22currentDatabaseContextEv
libtreefrog.so.1:_ZN2Tf3appEv
libtreefrog.so.1:_ZN2Tf4confERK7QString
libtreefrog.so.1:_ZN2Tf6msleepEm
libtreefrog.so.1:_ZN2Tf6randomEm
libtreefrog.so.1:_ZN2Tf6randomEmm
libtreefrog.so.1:_ZN2Tf8rand32_rEv
libtreefrog.so.1:_ZN2Tf8rand64_rEv
libtreefrog.so.1:_ZN3Pub11qt_metacallEN11QMetaObject4CallEiPPv
libtreefrog.so.1:_ZN3Pub11qt_metacastEPKc
libtreefrog.so.1:_ZN3Pub11unsubscribeEPK7QObject
libtreefrog.so.1:_ZN3Pub13textPublishedERK7QStringPK7QObject
libtreefrog.so.1:_ZN3Pub15binaryPublishedERK10QByteArrayPK7QObject
libtreefrog.so.1:_ZN3Pub7publishERK10QByteArrayPK7QObject
libtreefrog.so.1:_ZN3Pub7publishERK7QStringPK7QObject
libtreefrog.so.1:_ZN3Pub9subscribeEPK7QObjectb
libtreefrog.so.1:_ZN4TLogC1EiRK10QByteArray
libtreefrog.so.1:_ZN4TLogC2EiRK10QByteArray
libtreefrog.so.1:_ZN4TSql9formatArgEi
libtreefrog.so.1:_ZN4TSql9formatArgEiRK7QString
libtreefrog.so.1:_ZN4TSql9formatArgEiRK7QStringS2_
libtreefrog.so.1:_ZN5TBson16generateObjectIdEv
libtreefrog.so.1:_ZN5TBson6toBsonERK11QStringList
libtreefrog.so.1:_ZN5TBson6toBsonERK4QMapI7QString8QVariantE
libtreefrog.so.1:_ZN5TBson6toBsonERK4QMapI7QString8QVariantES5_
libtreefrog.so.1:_ZN5TBson8fromBsonEPKv
libtreefrog.so.1:_ZN5TBson8fromBsonERKS_
libtreefrog.so.1:_ZN5TBsonC1EPKv
libtreefrog.so.1:_ZN5TBsonC1ERKS_
libtreefrog.so.1:_ZN5TBsonC1Ev
libtreefrog.so.1:_ZN5TBsonC2EPKv
libtreefrog.so.1:_ZN5TBsonC2ERKS_
libtreefrog.so.1:_ZN5TBsonC2Ev
libtreefrog.so.1:_ZN5TBsonD1Ev
libtreefrog.so.1:_ZN5TBsonD2Ev
libtreefrog.so.1:_ZN6TDebugC1ERKS_
libtreefrog.so.1:_ZN6TDebugC2ERKS_
libtreefrog.so.1:_ZN6TDebugD1Ev
libtreefrog.so.1:_ZN6TDebugD2Ev
libtreefrog.so.1:_ZN6TDebugaSERKS_
libtreefrog.so.1:_ZN6TEpoll10deletePollEP12TEpollSocket
libtreefrog.so.1:_ZN6TEpoll10modifyPollEP12TEpollSocketi
libtreefrog.so.1:_ZN6TEpoll11setSendDataEP12TEpollSocketRK10QByteArray
libtreefrog.so.1:_ZN6TEpoll11setSendDataEP12TEpollSocketRK10QByteArrayP9QIODevicebRK13TAccessLogger
libtreefrog.so.1:_ZN6TEpoll13setDisconnectEP12TEpollSocket
libtreefrog.so.1:_ZN6TEpoll16dispatchSendDataEv
libtreefrog.so.1:_ZN6TEpoll20setSwitchToWebSocketEP12TEpollSocketRK18THttpRequestHeader
libtreefrog.so.1:_ZN6TEpoll24releaseAllPollingSocketsEv
libtreefrog.so.1:_ZN6TEpoll4nextEv
libtreefrog.so.1:_ZN6TEpoll4waitEi
libtreefrog.so.1:_ZN6TEpoll7addPollEP12TEpollSocketi
libtreefrog.so.1:_ZN6TEpoll8instanceEv
libtreefrog.so.1:_ZN6TEpollC1Ev
libtreefrog.so.1:_ZN6TEpollC2Ev
libtreefrog.so.1:_ZN6TEpollD1Ev
libtreefrog.so.1:_ZN6TEpollD2Ev
libtreefrog.so.1:_ZN6TRedis12toStringListERK5QListI10QByteArrayE
libtreefrog.so.1:_ZN6TRedis15toByteArrayListERK11QStringList
libtreefrog.so.1:_ZN6TRedis3delERK10QByteArray
libtreefrog.so.1:_ZN6TRedis3delERK5QListI10QByteArrayE
libtreefrog.so.1:_ZN6TRedis3getERK10QByteArray
libtreefrog.so.1:_ZN6TRedis3setERK10QByteArrayS2_
libtreefrog.so.1:_ZN6TRedis4llenERK10QByteArray
libtreefrog.so.1:_ZN6TRedis5lpushERK10QByteArrayRK5QListIS0_E
libtreefrog.so.1:_ZN6TRedis5rpushERK10QByteArrayRK5QListIS0_E
libtreefrog.so.1:_ZN6TRedis5setExERK10QByteArrayS2_i
libtreefrog.so.1:_ZN6TRedis6driverEv
libtreefrog.so.1:_ZN6TRedis6existsERK10QByteArray
libtreefrog.so.1:_ZN6TRedis6getSetERK10QByteArrayS2_
libtreefrog.so.1:_ZN6TRedis6lindexERK10QByteArrayi
libtreefrog.so.1:_ZN6TRedis6lrangeERK10QByteArrayii
libtreefrog.so.1:_ZN6TRedisC1ERKS_
libtreefrog.so.1:_ZN6TRedisC1Ev
libtreefrog.so.1:_ZN6TRedisC2ERKS_
libtreefrog.so.1:_ZN6TRedisC2Ev
libtreefrog.so.1:_ZN7TLogger12readSettingsEv
libtreefrog.so.1:_ZN7TLogger14logToByteArrayERK4TLogRK10QByteArrayS5_P10QTextCodec
libtreefrog.so.1:_ZN7TLogger16priorityToStringEN2Tf11LogPriorityE
libtreefrog.so.1:_ZN7TLoggerC1Ev
libtreefrog.so.1:_ZN7TLoggerC2Ev
libtreefrog.so.1:_ZN8TSession11sessionNameEv
libtreefrog.so.1:_ZN8TSession5clearEv
libtreefrog.so.1:_ZN8TSession5resetEv
libtreefrog.so.1:_ZN9TCriteria3addENS_15LogicalOperatorERKS_
libtreefrog.so.1:_ZN9TCriteria3addERKS_
libtreefrog.so.1:_ZN9TCriteria3addEiN4TSql18ComparisonOperatorE
libtreefrog.so.1:_ZN9TCriteria3addEiN4TSql18ComparisonOperatorERK8QVariant
libtreefrog.so.1:_ZN9TCriteria3addEiN4TSql18ComparisonOperatorERK8QVariantS4_
libtreefrog.so.1:_ZN9TCriteria3addEiN4TSql18ComparisonOperatorES1_RK8QVariant
libtreefrog.so.1:_ZN9TCriteria3addEiN6TMongo18ComparisonOperatorE
libtreefrog.so.1:_ZN9TCriteria3addEiN6TMongo18ComparisonOperatorERK8QVariant
libtreefrog.so.1:_ZN9TCriteria3addEiRK8QVariant
libtreefrog.so.1:_ZN9TCriteria5addOrERKS_
libtreefrog.so.1:_ZN9TCriteria5addOrEiN4TSql18ComparisonOperatorE
libtreefrog.so.1:_ZN9TCriteria5addOrEiN4TSql18ComparisonOperatorERK8QVariant
libtreefrog.so.1:_ZN9TCriteria5addOrEiN4TSql18ComparisonOperatorERK8QVariantS4_
libtreefrog.so.1:_ZN9TCriteria5addOrEiN4TSql18ComparisonOperatorES1_RK8QVariant
libtreefrog.so.1:_ZN9TCriteria5addOrEiN6TMongo18ComparisonOperatorE
libtreefrog.so.1:_ZN9TCriteria5addOrEiN6TMongo18ComparisonOperatorERK8QVariant
libtreefrog.so.1:_ZN9TCriteria5addOrEiRK8QVariant
libtreefrog.so.1:_ZN9TCriteria5clearEv
libtreefrog.so.1:_ZN9TCriteriaC1ERKS_
libtreefrog.so.1:_ZN9TCriteriaC1EiN4TSql18ComparisonOperatorE
libtreefrog.so.1:_ZN9TCriteriaC1EiN4TSql18ComparisonOperatorERK8QVariant
libtreefrog.so.1:_ZN9TCriteriaC1EiN4TSql18ComparisonOperatorERK8QVariantS4_
libtreefrog.so.1:_ZN9TCriteriaC1EiN4TSql18ComparisonOperatorES1_RK8QVariant
libtreefrog.so.1:_ZN9TCriteriaC1EiN6TMongo18ComparisonOperatorE
libtreefrog.so.1:_ZN9TCriteriaC1EiN6TMongo18ComparisonOperatorERK8QVariant
libtreefrog.so.1:_ZN9TCriteriaC1EiRK8QVariant
libtreefrog.so.1:_ZN9TCriteriaC1Ev
libtreefrog.so.1:_ZN9TCriteriaC2ERKS_
libtreefrog.so.1:_ZN9TCriteriaC2EiN4TSql18ComparisonOperatorE
libtreefrog.so.1:_ZN9TCriteriaC2EiN4TSql18ComparisonOperatorERK8QVariant
libtreefrog.so.1:_ZN9TCriteriaC2EiN4TSql18ComparisonOperatorERK8QVariantS4_
libtreefrog.so.1:_ZN9TCriteriaC2EiN4TSql18ComparisonOperatorES1_RK8QVariant
libtreefrog.so.1:_ZN9TCriteriaC2EiN6TMongo18ComparisonOperatorE
libtreefrog.so.1:_ZN9TCriteriaC2EiN6TMongo18ComparisonOperatorERK8QVariant
libtreefrog.so.1:_ZN9TCriteriaC2EiRK8QVariant
libtreefrog.so.1:_ZN9TCriteriaC2Ev
libtreefrog.so.1:_ZN9TCriteriaaSERKS_
libtreefrog.so.1:_ZN9TCryptMac4hashERK10QByteArrayS2_NS_9AlgorithmE
libtreefrog.so.1:_ZN9TJSLoader10compileJsxERK7QString
libtreefrog.so.1:_ZN9TJSLoader14setSearchPathsERK11QStringList
libtreefrog.so.1:_ZN9TJSLoader18defaultSearchPathsEv
libtreefrog.so.1:_ZN9TJSLoader21setDefaultSearchPathsERK11QStringList
libtreefrog.so.1:_ZN9TJSLoader4loadEb
libtreefrog.so.1:_ZN9TJSLoader6importERK7QString
libtreefrog.so.1:_ZN9TJSLoader6importERK7QStringS2_
libtreefrog.so.1:_ZN9TJSLoaderC1ERK7QStringNS_5AltJSE
libtreefrog.so.1:_ZN9TJSLoaderC1ERK7QStringS2_NS_5AltJSE
libtreefrog.so.1:_ZN9TJSLoaderC2ERK7QStringNS_5AltJSE
libtreefrog.so.1:_ZN9TJSLoaderC2ERK7QStringS2_NS_5AltJSE
libtreefrog.so.1:_ZN9TJSModule17callAsConstructorERK7QStringRK5QListI8QJSValueE
libtreefrog.so.1:_ZN9TJSModule17callAsConstructorERK7QStringRK8QJSValue
libtreefrog.so.1:_ZN9TJSModule4callERK7QStringRK5QListI8QJSValueE
libtreefrog.so.1:_ZN9TJSModule4callERK7QStringRK8QJSValue
libtreefrog.so.1:_ZN9TJSModule6importERK7QString
libtreefrog.so.1:_ZN9TJSModule6importERK7QStringS2_
libtreefrog.so.1:_ZN9TJSModule8evaluateERK7QStringS2_i
libtreefrog.so.1:_ZN9TJSModuleC1EP7QObject
libtreefrog.so.1:_ZN9TJSModuleC2EP7QObject
libtreefrog.so.1:_ZN9TJSModuleD0Ev
libtreefrog.so.1:_ZN9TJSModuleD1Ev
libtreefrog.so.1:_ZN9TJSModuleD2Ev
libtreefrog.so.1:_ZN9TSqlQuery11formatValueERK8QVariantNS0_4TypeERK12QSqlDatabase
libtreefrog.so.1:_ZN9TSqlQuery11formatValueERK8QVariantNS0_4TypeEi
libtreefrog.so.1:_ZN9TSqlQuery11formatValueERK8QVariantRK12QSqlDatabase
libtreefrog.so.1:_ZN9TSqlQuery16escapeIdentifierERK7QStringN10QSqlDriver14IdentifierTypeEPKS3_
libtreefrog.so.1:_ZN9TSqlQuery16escapeIdentifierERK7QStringN10QSqlDriver14IdentifierTypeEi
libtreefrog.so.1:_ZN9TSqlQuery18clearCachedQueriesEv
libtreefrog.so.1:_ZN9TSqlQuery4execERK7QString
libtreefrog.so.1:_ZN9TSqlQuery4execEv
libtreefrog.so.1:_ZN9TSqlQuery4loadERK7QString
libtreefrog.so.1:_ZN9TSqlQuery4nextEv
libtreefrog.so.1:_ZN9TSqlQuery7prepareERK7QString
libtreefrog.so.1:_ZN9TSqlQueryC1E12QSqlDatabase
libtreefrog.so.1:_ZN9TSqlQueryC1Ei
libtreefrog.so.1:_ZN9TSqlQueryC2E12QSqlDatabase
libtreefrog.so.1:_ZN9TSqlQueryC2Ei
libtreefrog.so.1:_ZN9TTextView11qt_metacallEN11QMetaObject4CallEiPPv
libtreefrog.so.1:_ZN9TTextView11qt_metacastEPKc
libtreefrog.so.1:_ZN9TUrlRoute11instantiateEv
libtreefrog.so.1:_ZN9TUrlRoute15parseConfigFileEv
libtreefrog.so.1:_ZN9TUrlRoute18addRouteFromStringERK7QString
libtreefrog.so.1:_ZN9TUrlRoute5clearEv
libtreefrog.so.1:_ZN9TUrlRoute8instanceEv
libtreefrog.so.1:_ZN9TUrlRoute9splitPathERK7QString
libtreefrog.so.1:_ZNK10TAccessLog11toByteArrayERK10QByteArrayS2_
libtreefrog.so.1:_ZNK10TPaginator22itemCountOfCurrentPageEv
libtreefrog.so.1:_ZNK10TPaginator5rangeEv
libtreefrog.so.1:_ZNK10TPaginator6offsetEv
libtreefrog.so.1:_ZNK10TPopMailer10metaObjectEv
libtreefrog.so.1:_ZNK10TPublisher10metaObjectEv
libtreefrog.so.1:_ZNK10TScheduler10metaObjectEv
libtreefrog.so.1:_ZNK10TScheduler12isSingleShotEv
libtreefrog.so.1:_ZNK10TScheduler8intervalEv
libtreefrog.so.1:_ZNK10TSqlObject10isModifiedEv
libtreefrog.so.1:_ZNK10TSqlObject10metaObjectEv
libtreefrog.so.1:_ZNK10TSqlObject9tableNameEv
libtreefrog.so.1:_ZNK10TSystemBus10metaObjectEv
libtreefrog.so.1:_ZNK10TWebSocket10metaObjectEv
libtreefrog.so.1:_ZNK10TWebSocket14canReadRequestEv
libtreefrog.so.1:_ZNK11TActionView11httpRequestEv
libtreefrog.so.1:_ZNK11TActionView13renderPartialERK7QStringRK4QMapIS0_8QVariantE
libtreefrog.so.1:_ZNK11TActionView17authenticityTokenEv
libtreefrog.so.1:_ZNK11TActionView5yieldEv
libtreefrog.so.1:_ZNK11TBasicTimer10metaObjectEv
libtreefrog.so.1:_ZNK11TDirectView7sessionEv
libtreefrog.so.1:_ZNK11TFileLogger6isOpenEv
libtreefrog.so.1:_ZNK11THtmlParser12parentExistsEiRK7QString
libtreefrog.so.1:_ZNK11THtmlParser15isElementClosedEi
libtreefrog.so.1:_ZNK11THtmlParser16elementsToStringEi
libtreefrog.so.1:_ZNK11THtmlParser21childElementsToStringEi
libtreefrog.so.1:_ZNK11THtmlParser23nextElementInSameParentEi
libtreefrog.so.1:_ZNK11THtmlParser3midEi
libtreefrog.so.1:_ZNK11THtmlParser5depthEi
libtreefrog.so.1:_ZNK11THtmlParser5isTagEi
libtreefrog.so.1:_ZNK11THtmlParser8toStringEv
libtreefrog.so.1:_ZNK11THtmlParser9hasPrefixERK7QStringi
libtreefrog.so.1:_ZNK11THttpHeader11toByteArrayEv
libtreefrog.so.1:_ZNK11THttpSocket10metaObjectEv
libtreefrog.so.1:_ZNK11THttpSocket14canReadRequestEv
libtreefrog.so.1:_ZNK11THttpSocket8idleTimeEv
libtreefrog.so.1:_ZNK11TMimeEntity11contentTypeEv
libtreefrog.so.1:_ZNK11TMimeEntity16uploadedFilePathEv
libtreefrog.so.1:_ZNK11TMimeEntity8fileSizeEv
libtreefrog.so.1:_ZNK11TMimeHeader16originalFileNameEv
libtreefrog.so.1:_ZNK11TMimeHeader27contentDispositionParameterERK10QByteArray
libtreefrog.so.1:_ZNK11TMimeHeader6headerERK10QByteArray
libtreefrog.so.1:_ZNK11TMimeHeader8dataNameEv
libtreefrog.so.1:_ZNK11TMongoQuery15lastErrorStringEv
libtreefrog.so.1:_ZNK11TMongoQuery15numDocsAffectedEv
libtreefrog.so.1:_ZNK11TMongoQuery5valueEv
libtreefrog.so.1:_ZNK11TMongoQuery6driverEv
libtreefrog.so.1:_ZNK11TSendBuffer5atEndEv
libtreefrog.so.1:_ZNK11TSmtpMailer10metaObjectEv
libtreefrog.so.1:_ZNK11TSmtpMailer18lastServerResponseEv
libtreefrog.so.1:_ZNK11TViewHelper10optionTagsERK11QStringListRK8QVariantRK14THtmlAttribute
libtreefrog.so.1:_ZNK11TViewHelper10optionTagsERK5QListI5QPairI7QString8QVariantEERKS3_RK14THtmlAttribute
libtreefrog.so.1:_ZNK11TViewHelper10optionTagsERK5QListI8QVariantERKS1_RK14THtmlAttribute
libtreefrog.so.1:_ZNK11TViewHelper11checkBoxTagERK7QStringRK8QVariantRK5QListIS3_ERK14THtmlAttribute
libtreefrog.so.1:_ZNK11TViewHelper11checkBoxTagERK7QStringRK8QVariantS5_RK14THtmlAttribute
libtreefrog.so.1:_ZNK11TViewHelper11checkBoxTagERK7QStringRK8QVariantbRK14THtmlAttribute
libtreefrog.so.1:_ZNK11TViewHelper11checkBoxTagERK7QStringS2_RK11QStringListRK14THtmlAttribute
libtreefrog.so.1:_ZNK11TViewHelper11linkToPopupERK7QStringRK4QUrlS2_RK5QSizeRK6QPointS2_S2_RK14THtmlAttribute
libtreefrog.so.1:_ZNK11TViewHelper11textAreaTagERK7QStringiiS2_RK14THtmlAttribute
libtreefrog.so.1:_ZNK11TViewHelper13styleSheetTagERK7QStringRK14THtmlAttribute
libtreefrog.so.1:_ZNK11TViewHelper13styleSheetTagERK7QStringbRK14THtmlAttribute
libtreefrog.so.1:_ZNK11TViewHelper14inlineImageTagERK10QByteArrayRK7QStringRK5QSizeS5_RK14THtmlAttribute
libtreefrog.so.1:_ZNK11TViewHelper14inlineImageTagERK9QFileInfoRK7QStringRK5QSizeS5_RK14THtmlAttribute
libtreefrog.so.1:_ZNK11TViewHelper14linkToFunctionERK7QStringS2_RK14THtmlAttribute
libtreefrog.so.1:_ZNK11TViewHelper14radioButtonTagERK7QStringRK8QVariantS5_RK14THtmlAttribute
libtreefrog.so.1:_ZNK11TViewHelper14radioButtonTagERK7QStringRK8QVariantbRK14THtmlAttribute
libtreefrog.so.1:_ZNK11TViewHelper14selfClosingTagERK7QStringRK14THtmlAttribute
libtreefrog.so.1:_ZNK11TViewHelper14submitImageTagERK7QStringRK14THtmlAttribute
libtreefrog.so.1:_ZNK11TViewHelper16buttonToFunctionERK7QStringS2_RK14THtmlAttribute
libtreefrog.so.1:_ZNK11TViewHelper1aERK7QStringS2_
libtreefrog.so.1:_ZNK11TViewHelper20inputAuthenticityTagEv
libtreefrog.so.1:_ZNK11TViewHelper3tagERK7QStringRK14THtmlAttributeS2_
libtreefrog.so.1:_ZNK11TViewHelper6endTagERK7QString
libtreefrog.so.1:_ZNK11TViewHelper6jsPathERK7QStringb
libtreefrog.so.1:_ZNK11TViewHelper6linkToERK7QStringRK4QUrlN2Tf10HttpMethodERK14THtmlAttribute
libtreefrog.so.1:_ZNK11TViewHelper6linkToERK7QStringRK4QUrlN2Tf10HttpMethodES2_RK14THtmlAttribute
libtreefrog.so.1:_ZNK11TViewHelper7cssPathERK7QStringb
libtreefrog.so.1:_ZNK11TViewHelper7srcPathERK7QStringS2_b
libtreefrog.so.1:_ZNK11TViewHelper8imageTagERK7QStringRK5QSizeS2_RK14THtmlAttribute
libtreefrog.so.1:_ZNK11TViewHelper8imageTagERK7QStringbRK5QSizeS2_RK14THtmlAttribute
libtreefrog.so.1:_ZNK11TViewHelper8inputTagERK7QStringS2_RK8QVariantRK14THtmlAttribute
libtreefrog.so.1:_ZNK11TViewHelper8resetTagERK7QStringRK14THtmlAttribute
libtreefrog.so.1:_ZNK11TViewHelper9imagePathERK7QStringb
libtreefrog.so.1:_ZNK11TViewHelper9optionTagERK7QStringRK8QVariantbRK14THtmlAttribute
libtreefrog.so.1:_ZNK11TViewHelper9scriptTagERK7QStringRK14THtmlAttribute
libtreefrog.so.1:_ZNK11TViewHelper9scriptTagERK7QStringbRK14THtmlAttribute
libtreefrog.so.1:_ZNK11TViewHelper9selectTagERK7QStringibRK14THtmlAttribute
libtreefrog.so.1:_ZNK11TViewHelper9submitTagERK7QStringRK14THtmlAttribute
libtreefrog.so.1:_ZNK12TAppSettings5valueEN2Tf12AppAttributeERK8QVariant
libtreefrog.so.1:_ZNK12TAppSettings9readValueERK7QStringRK8QVariant
libtreefrog.so.1:_ZNK12TEpollSocket10metaObjectEv
libtreefrog.so.1:_ZNK12TEpollSocket17bufferedListCountEv
libtreefrog.so.1:_ZNK12THtmlElement12hasAttributeERK7QString
libtreefrog.so.1:_ZNK12THtmlElement12isEndElementEv
libtreefrog.so.1:_ZNK12THtmlElement16attributesStringEv
libtreefrog.so.1:_ZNK12THtmlElement7isEmptyEv
libtreefrog.so.1:_ZNK12THtmlElement8toStringEv
libtreefrog.so.1:_ZNK12THtmlElement9attributeERK7QStringS2_
libtreefrog.so.1:_ZNK12THttpRequest10queryItemsERK7QString
libtreefrog.so.1:_ZNK12THttpRequest10queryItemsEv
libtreefrog.so.1:_ZNK12THttpRequest10realMethodEv
libtreefrog.so.1:_ZNK12THttpRequest11hasFormItemERK7QString
libtreefrog.so.1:_ZNK12THttpRequest12formItemListERK7QString
libtreefrog.so.1:_ZNK12THttpRequest12hasQueryItemERK7QString
libtreefrog.so.1:_ZNK12THttpRequest13allParametersEv
libtreefrog.so.1:_ZNK12THttpRequest13formItemValueERK7QString
libtreefrog.so.1:_ZNK12THttpRequest13formItemValueERK7QStringS2_
libtreefrog.so.1:_ZNK12THttpRequest13queryItemListERK7QString
libtreefrog.so.1:_ZNK12THttpRequest14queryItemValueERK7QString
libtreefrog.so.1:_ZNK12THttpRequest14queryItemValueERK7QStringS2_
libtreefrog.so.1:_ZNK12THttpRequest15queryItemMethodEv
libtreefrog.so.1:_ZNK12THttpRequest17allFormItemValuesERK7QString
libtreefrog.so.1:_ZNK12THttpRequest18allQueryItemValuesERK7QString
libtreefrog.so.1:_ZNK12THttpRequest19formItemVariantListERK7QString
libtreefrog.so.1:_ZNK12THttpRequest20queryItemVariantListERK7QString
libtreefrog.so.1:_ZNK12THttpRequest21getHttpMethodOverrideEv
libtreefrog.so.1:_ZNK12THttpRequest6cookieERK7QString
libtreefrog.so.1:_ZNK12THttpRequest6methodEv
libtreefrog.so.1:_ZNK12THttpRequest7cookiesEv
libtreefrog.so.1:_ZNK12THttpRequest8boundaryEv
libtreefrog.so.1:_ZNK12THttpRequest9formItemsERK7QString
libtreefrog.so.1:_ZNK12THttpRequest9formItemsEv
libtreefrog.so.1:_ZNK12THttpRequest9parameterERK7QString
libtreefrog.so.1:_ZNK12TKvsDatabase10driverNameEv
libtreefrog.so.1:_ZNK12TKvsDatabase12databaseNameEv
libtreefrog.so.1:_ZNK12TKvsDatabase14connectOptionsEv
libtreefrog.so.1:_ZNK12TKvsDatabase4portEv
libtreefrog.so.1:_ZNK12TKvsDatabase6isOpenEv
libtreefrog.so.1:_ZNK12TKvsDatabase7isValidEv
libtreefrog.so.1:_ZNK12TKvsDatabase8hostNameEv
libtreefrog.so.1:_ZNK12TKvsDatabase8passwordEv
libtreefrog.so.1:_ZNK12TKvsDatabase8userNameEv
libtreefrog.so.1:_ZNK12TMailMessage11fromAddressEv
libtreefrog.so.1:_ZNK12TMailMessage11toByteArrayEv
libtreefrog.so.1:_ZNK12TMailMessage2ccEv
libtreefrog.so.1:_ZNK12TMailMessage2toEv
libtreefrog.so.1:_ZNK12TMailMessage3bccEv
libtreefrog.so.1:_ZNK12TMailMessage4bodyEv
libtreefrog.so.1:_ZNK12TMailMessage4fromEv
libtreefrog.so.1:_ZNK12TMailMessage7subjectEv
libtreefrog.so.1:_ZNK12TMailMessage9addressesERK10QByteArray
libtreefrog.so.1:_ZNK12TModelObject12toVariantMapEv
libtreefrog.so.1:_ZNK12TModelObject13propertyNamesEv
libtreefrog.so.1:_ZNK12TMongoCursor5valueEv
libtreefrog.so.1:_ZNK12TMongoDriver20getLastCommandStatusEv
libtreefrog.so.1:_ZNK12TMongoDriver6isOpenEv
libtreefrog.so.1:_ZNK12TMongoObject10isModifiedEv
libtreefrog.so.1:_ZNK12TMongoObject14collectionNameEv
libtreefrog.so.1:_ZNK12TProcessInfo11processNameEv
libtreefrog.so.1:_ZNK12TProcessInfo15childProcessIdsEv
libtreefrog.so.1:_ZNK12TProcessInfo4ppidEv
libtreefrog.so.1:_ZNK12TProcessInfo6existsEv
libtreefrog.so.1:_ZNK12TRedisDriver6isOpenEv
libtreefrog.so.1:_ZNK12TSqlDatabase17isUpsertSupportedEv
libtreefrog.so.1:_ZNK12TSqlDatabase8dbmsTypeEv
libtreefrog.so.1:_ZNK13TActionHelper3urlERK7QStringS2_RK11QStringListRK4QMapIS0_8QVariantE
libtreefrog.so.1:_ZNK13TActionHelper3urlERK7QStringS2_RK11QStringListS2_
libtreefrog.so.1:_ZNK13TActionHelper3urlERK7QStringS2_RK8QVariant
libtreefrog.so.1:_ZNK13TActionHelper4urlaERK7QStringRK8QVariant
libtreefrog.so.1:_ZNK13TActionMailer12activeActionEv
libtreefrog.so.1:_ZNK13TActionMailer4nameEv
libtreefrog.so.1:_ZNK13TActionThread10metaObjectEv
libtreefrog.so.1:_ZNK13TActionWorker10metaObjectEv
libtreefrog.so.1:_ZNK13THttpResponse10isBodyNullEv
libtreefrog.so.1:_ZNK13TLoggerPlugin10metaObjectEv
libtreefrog.so.1:_ZNK14TAbstractModel12toVariantMapEv
libtreefrog.so.1:_ZNK14TAbstractModel23variableNameToFieldNameERK7QString
libtreefrog.so.1:_ZNK14TAbstractModel5isNewEv
libtreefrog.so.1:_ZNK14TAbstractModel6isNullEv
libtreefrog.so.1:_ZNK14TAbstractModel7isSavedEv
libtreefrog.so.1:_ZNK14TActionContext13clientAddressEv
libtreefrog.so.1:_ZNK14TFileAioLogger6isOpenEv
libtreefrog.so.1:_ZNK14TFileAioWriter6isOpenEv
libtreefrog.so.1:_ZNK14TFileAioWriter8fileNameEv
libtreefrog.so.1:_ZNK14TFormValidator10dateFormatEv
libtreefrog.so.1:_ZNK14TFormValidator10timeFormatEv
libtreefrog.so.1:_ZNK14TFormValidator12containsRuleERK7QStringN2Tf14ValidationRuleE
libtreefrog.so.1:_ZNK14TFormValidator12errorMessageERK7QString
libtreefrog.so.1:_ZNK14TFormValidator13errorMessagesEv
libtreefrog.so.1:_ZNK14TFormValidator14dateTimeFormatEv
libtreefrog.so.1:_ZNK14TFormValidator17isValidationErrorERK7QString
libtreefrog.so.1:_ZNK14TFormValidator18hasValidationErrorEv
libtreefrog.so.1:_ZNK14TFormValidator19validationErrorKeysEv
libtreefrog.so.1:_ZNK14TFormValidator5valueERK7QStringS2_
libtreefrog.so.1:_ZNK14TFormValidator7messageERK7QStringN2Tf14ValidationRuleE
libtreefrog.so.1:_ZNK14TFormValidator9errorRuleERK7QString
libtreefrog.so.1:_ZNK14THtmlAttribute8containsERK7QString
libtreefrog.so.1:_ZNK14THtmlAttribute8toStringEb
libtreefrog.so.1:_ZNK14THtmlAttributeorERKS_
libtreefrog.so.1:_ZNK14TSessionObject10metaObjectEv
libtreefrog.so.1:_ZNK14TTemporaryFile16absoluteFilePathEv
libtreefrog.so.1:_ZNK15TEpollWebSocket10metaObjectEv
libtreefrog.so.1:_ZNK15TEpollWebSocket13isTextRequestEv
libtreefrog.so.1:_ZNK15TEpollWebSocket15isBinaryRequestEv
libtreefrog.so.1:_ZNK15TSendmailMailer10metaObjectEv
libtreefrog.so.1:_ZNK15TSessionManager9storeTypeEv
libtreefrog.so.1:_ZNK15TWebApplication10configPathEv
libtreefrog.so.1:_ZNK15TWebApplication10metaObjectEv
libtreefrog.so.1:_ZNK15TWebApplication10pluginPathEv
libtreefrog.so.1:_ZNK15TWebApplication10publicPathEv
libtreefrog.so.1:_ZNK15TWebApplication13redisSettingsEv
libtreefrog.so.1:_ZNK15TWebApplication13webRootExistsEv
libtreefrog.so.1:_ZNK15TWebApplication15mongoDbSettingsEv
libtreefrog.so.1:_ZNK15TWebApplication16isRedisAvailableEv
libtreefrog.so.1:_ZNK15TWebApplication17accessLogFilePathEv
libtreefrog.so.1:_ZNK15TWebApplication17systemLogFilePathEv
libtreefrog.so.1:_ZNK15TWebApplication18isMongoDbAvailableEv
libtreefrog.so.1:_ZNK15TWebApplication19appSettingsFilePathEv
libtreefrog.so.1:_ZNK15TWebApplication19sqlDatabaseSettingsEi
libtreefrog.so.1:_ZNK15TWebApplication19sqlQueryLogFilePathEv
libtreefrog.so.1:_ZNK15TWebApplication20routesConfigFilePathEv
libtreefrog.so.1:_ZNK15TWebApplication21appSettingsFileExistsEv
libtreefrog.so.1:_ZNK15TWebApplication21maxNumberOfAppServersEv
libtreefrog.so.1:_ZNK15TWebApplication21multiProcessingModuleEv
libtreefrog.so.1:_ZNK15TWebApplication22isSqlDatabaseAvailableEv
libtreefrog.so.1:_ZNK15TWebApplication22validationErrorMessageEi
libtreefrog.so.1:_ZNK15TWebApplication24sqlDatabaseSettingsCountEv
libtreefrog.so.1:_ZNK15TWebApplication25databaseContextMainThreadEv
libtreefrog.so.1:_ZNK15TWebApplication30maxNumberOfThreadsPerAppServerEv
libtreefrog.so.1:_ZNK15TWebApplication7libPathEv
libtreefrog.so.1:_ZNK15TWebApplication7logPathEv
libtreefrog.so.1:_ZNK15TWebApplication7tmpPathEv
libtreefrog.so.1:_ZNK15TWebSocketFrame11toByteArrayEv
libtreefrog.so.1:_ZNK15TWebSocketFrame14isControlFrameEv
libtreefrog.so.1:_ZNK16DirectController10metaObjectEv
libtreefrog.so.1:_ZNK16TAccessValidator8validateEPK13TAbstractUser
libtreefrog.so.1:_ZNK16TDatabaseContext8idleTimeEv
libtreefrog.so.1:_ZNK16TEpollHttpSocket10metaObjectEv
libtreefrog.so.1:_ZNK16TEpollHttpSocket8idleTimeEv
libtreefrog.so.1:_ZNK16TKvsDatabasePool10metaObjectEv
libtreefrog.so.1:_ZNK16TKvsDatabasePool11kvsSettingsEN12TKvsDatabase4TypeE
libtreefrog.so.1:_ZNK16TKvsDatabasePool14isKvsAvailableEN12TKvsDatabase4TypeE
libtreefrog.so.1:_ZNK16TKvsDatabasePool19setDatabaseSettingsER12TKvsDatabaseNS0_4TypeERK7QString
libtreefrog.so.1:_ZNK16TSqlDatabasePool10metaObjectEv
libtreefrog.so.1:_ZNK16TWebSocketWorker10metaObjectEv
libtreefrog.so.1:_ZNK17TActionController11httpRequestEv
libtreefrog.so.1:_ZNK17TActionController13clientAddressEv
libtreefrog.so.1:_ZNK17TActionController13verifyRequestERK12THttpRequest
libtreefrog.so.1:_ZNK17TActionController14isUserLoggedInEv
libtreefrog.so.1:_ZNK17TActionController17authenticityTokenEv
libtreefrog.so.1:_ZNK17TActionController22identityKeyOfLoginUserEv
libtreefrog.so.1:_ZNK17TActionController4nameEv
libtreefrog.so.1:_ZNK17TSystemBusMessage11toByteArrayEv
libtreefrog.so.1:_ZNK17TSystemBusMessage4dataEv
libtreefrog.so.1:_ZNK17TSystemBusMessage6targetEv
libtreefrog.so.1:_ZNK18TAbstractLogStream10metaObjectEv
libtreefrog.so.1:_ZNK18TAbstractWebSocket7sessionEv
libtreefrog.so.1:_ZNK18TBackgroundProcess10autoDeleteEv
libtreefrog.so.1:_ZNK18TBackgroundProcess10metaObjectEv
libtreefrog.so.1:_ZNK18THttpRequestHeader11toByteArrayEv
libtreefrog.so.1:_ZNK18THttpRequestHeader6cookieERK7QString
libtreefrog.so.1:_ZNK18THttpRequestHeader7cookiesEv
libtreefrog.so.1:_ZNK18TMultipartFormData10entityListERK10QByteArray
libtreefrog.so.1:_ZNK18TMultipartFormData11contentTypeERK10QByteArray
libtreefrog.so.1:_ZNK18TMultipartFormData11hasFormItemERK7QString
libtreefrog.so.1:_ZNK18TMultipartFormData12parseContentEP9QIODevice
libtreefrog.so.1:_ZNK18TMultipartFormData12writeContentEP9QIODevice
libtreefrog.so.1:_ZNK18TMultipartFormData13formItemValueERK7QString
libtreefrog.so.1:_ZNK18TMultipartFormData15parseMimeHeaderEP9QIODevice
libtreefrog.so.1:_ZNK18TMultipartFormData16originalFileNameERK10QByteArray
libtreefrog.so.1:_ZNK18TMultipartFormData17allFormItemValuesERK7QString
libtreefrog.so.1:_ZNK18TMultipartFormData19formItemVariantListERK7QString
libtreefrog.so.1:_ZNK18TMultipartFormData4sizeERK10QByteArray
libtreefrog.so.1:_ZNK18TMultipartFormData6entityERK10QByteArray
libtreefrog.so.1:_ZNK18TMultipartFormData7isEmptyEv
libtreefrog.so.1:_ZNK18TMultipartFormData9formItemsERK7QString
libtreefrog.so.1:_ZNK18TMultipartFormData9formItemsEv
libtreefrog.so.1:_ZNK18TMultipartFormData9hasEntityERK10QByteArray
libtreefrog.so.1:_ZNK18TWebSocketEndpoint4nameEv
libtreefrog.so.1:_ZNK19TAbstractController13viewClassNameERK7QString
libtreefrog.so.1:_ZNK19TAbstractController13viewClassNameERK7QStringS2_
libtreefrog.so.1:_ZNK19THttpResponseHeader11toByteArrayEv
libtreefrog.so.1:_ZNK19TMultiplexingServer10metaObjectEv
libtreefrog.so.1:_ZNK19TSessionMongoObject10metaObjectEv
libtreefrog.so.1:_ZNK19TSessionStorePlugin10metaObjectEv
libtreefrog.so.1:_ZNK20TPrototypeAjaxHelper12linkToUpdateERK7QStringRK4QUrlS2_NS_14UpdateBehaviorERK4QMapIi8QVariantEbS2_RK14THtmlAttribute
libtreefrog.so.1:_ZNK20TPrototypeAjaxHelper13linkToRequestERK7QStringRK4QUrlRK4QMapIi8QVariantES2_RK14THtmlAttribute
libtreefrog.so.1:_ZNK20TPrototypeAjaxHelper14updateFunctionERK4QUrlRK7QStringNS_14UpdateBehaviorERK4QMapIi8QVariantEbS5_
libtreefrog.so.1:_ZNK20TPrototypeAjaxHelper15optionsToStringERK4QMapIi8QVariantE
libtreefrog.so.1:_ZNK20TPrototypeAjaxHelper15requestFunctionERK4QUrlRK4QMapIi8QVariantERK7QString
libtreefrog.so.1:_ZNK20TPrototypeAjaxHelper22linkToPeriodicalUpdateERK7QStringRK4QUrlS2_NS_14UpdateBehaviorERK4QMapIi8QVariantEbiiS2_RK14THtmlAttribute
libtreefrog.so.1:_ZNK20TPrototypeAjaxHelper24periodicalUpdateFunctionERK4QUrlRK7QStringNS_14UpdateBehaviorERK4QMapIi8QVariantEbiiS5_
libtreefrog.so.1:_ZNK21TApplicationScheduler10metaObjectEv
libtreefrog.so.1:_ZNK21TApplicationScheduler12isSingleShotEv
libtreefrog.so.1:_ZNK21TApplicationScheduler8intervalEv
libtreefrog.so.1:_ZNK21TMySQLDriverExtension15upsertStatementERK7QStringRK10QSqlRecordS5_S2_S2_
libtreefrog.so.1:_ZNK22TInternetMessageHeader11contentTypeEv
libtreefrog.so.1:_ZNK22TInternetMessageHeader11toByteArrayEv
libtreefrog.so.1:_ZNK22TInternetMessageHeader12hasRawHeaderERK10QByteArray
libtreefrog.so.1:_ZNK22TInternetMessageHeader13contentLengthEv
libtreefrog.so.1:_ZNK22TInternetMessageHeader13rawHeaderListEv
libtreefrog.so.1:_ZNK22TInternetMessageHeader4dateEv
libtreefrog.so.1:_ZNK22TInternetMessageHeader7isEmptyEv
libtreefrog.so.1:_ZNK22TInternetMessageHeader9rawHeaderERK10QByteArray
libtreefrog.so.1:_ZNK22TSharedMemoryLogStream11errorStringEv
libtreefrog.so.1:_ZNK24TThreadApplicationServer10metaObjectEv
libtreefrog.so.1:_ZNK25TBackgroundProcessHandler10autoDeleteEv
libtreefrog.so.1:_ZNK25TBackgroundProcessHandler10metaObjectEv
libtreefrog.so.1:_ZNK26TPostgreSQLDriverExtension15upsertStatementERK7QStringRK10QSqlRecordS5_S2_S2_
libtreefrog.so.1:_ZNK3Pub10metaObjectEv
libtreefrog.so.1:_ZNK5TBson5valueERK7QStringRK8QVariant
libtreefrog.so.1:_ZNK6TDebug4infoEPKcz
libtreefrog.so.1:_ZNK6TDebug4warnEPKcz
libtreefrog.so.1:_ZNK6TDebug5debugEPKcz
libtreefrog.so.1:_ZNK6TDebug5errorEPKcz
libtreefrog.so.1:_ZNK6TDebug5fatalEPKcz
libtreefrog.so.1:_ZNK6TDebug5traceEPKcz
libtreefrog.so.1:_ZNK6TEpoll10canReceiveEv
libtreefrog.so.1:_ZNK6TEpoll4recvEP12TEpollSocket
libtreefrog.so.1:_ZNK6TEpoll4sendEP12TEpollSocket
libtreefrog.so.1:_ZNK6TEpoll7canSendEv
libtreefrog.so.1:_ZNK6TRedis6driverEv
libtreefrog.so.1:_ZNK6TRedis6isOpenEv
libtreefrog.so.1:_ZNK7TLogger13settingsValueERK7QStringRK8QVariant
libtreefrog.so.1:_ZNK7TLogger14logToByteArrayERK4TLog
libtreefrog.so.1:_ZNK9TCriteria7isEmptyEv
libtreefrog.so.1:_ZNK9TCriteriaaaERKS_
libtreefrog.so.1:_ZNK9TCriteriantEv
libtreefrog.so.1:_ZNK9TCriteriaooERKS_
libtreefrog.so.1:_ZNK9TJSLoader12absolutePathERK7QStringRK4QDirNS_5AltJSE
libtreefrog.so.1:_ZNK9TJSLoader14replaceRequireEP9TJSModuleR7QStringRK4QDir
libtreefrog.so.1:_ZNK9TJSLoader17loadAsConstructorERK5QListI8QJSValueE
libtreefrog.so.1:_ZNK9TJSLoader17loadAsConstructorERK8QJSValue
libtreefrog.so.1:_ZNK9TJSLoader6searchERK7QStringNS_5AltJSE
libtreefrog.so.1:_ZNK9TJSLoader8importToEP9TJSModuleb
libtreefrog.so.1:_ZNK9TSqlQuery12queryDirPathEv
libtreefrog.so.1:_ZNK9TSqlQuery15numRowsAffectedEv
libtreefrog.so.1:_ZNK9TSqlQuery4sizeEv
libtreefrog.so.1:_ZNK9TSqlQuery5valueEi
libtreefrog.so.1:_ZNK9TTextView10metaObjectEv
libtreefrog.so.1:_ZNK9TUrlRoute11findRoutingEN2Tf10HttpMethodERK11QStringList
libtreefrog.so.1:_ZNK9TUrlRoute7findUrlERK7QStringS2_RK11QStringList
libtreefrog.so.1:_ZThn16_N10TSchedulerD0Ev
libtreefrog.so.1:_ZThn16_N10TSchedulerD1Ev
libtreefrog.so.1:_ZThn16_N10TWebSocket10disconnectEv
libtreefrog.so.1:_ZThn16_N10TWebSocket12writeRawDataERK10QByteArray
libtreefrog.so.1:_ZThn16_N10TWebSocketD0Ev
libtreefrog.so.1:_ZThn16_N10TWebSocketD1Ev
libtreefrog.so.1:_ZThn16_N13TActionThread13writeResponseER19THttpResponseHeaderP9QIODevice
libtreefrog.so.1:_ZThn16_N13TActionThread15closeHttpSocketEv
libtreefrog.so.1:_ZThn16_N13TActionThread9emitErrorEi
libtreefrog.so.1:_ZThn16_N13TActionThreadD0Ev
libtreefrog.so.1:_ZThn16_N13TActionThreadD1Ev
libtreefrog.so.1:_ZThn16_N13TActionWorker13writeResponseER19THttpResponseHeaderP9QIODevice
libtreefrog.so.1:_ZThn16_N13TActionWorker15closeHttpSocketEv
libtreefrog.so.1:_ZThn16_N13TActionWorkerD0Ev
libtreefrog.so.1:_ZThn16_N13TActionWorkerD1Ev
libtreefrog.so.1:_ZThn16_N16TWebSocketWorkerD0Ev
libtreefrog.so.1:_ZThn16_N16TWebSocketWorkerD1Ev
libtreefrog.so.1:_ZThn16_N19TMultiplexingServer22isAutoReloadingEnabledEv
libtreefrog.so.1:_ZThn16_N19TMultiplexingServer23setAutoReloadingEnabledEb
libtreefrog.so.1:_ZThn16_N19TMultiplexingServer4stopEv
libtreefrog.so.1:_ZThn16_N19TMultiplexingServer5startEb
libtreefrog.so.1:_ZThn16_N19TMultiplexingServerD0Ev
libtreefrog.so.1:_ZThn16_N19TMultiplexingServerD1Ev
libtreefrog.so.1:_ZThn16_N21TApplicationSchedulerD0Ev
libtreefrog.so.1:_ZThn16_N21TApplicationSchedulerD1Ev
libtreefrog.so.1:_ZThn16_N24TThreadApplicationServer22isAutoReloadingEnabledEv
libtreefrog.so.1:_ZThn16_N24TThreadApplicationServer23setAutoReloadingEnabledEb
libtreefrog.so.1:_ZThn16_N24TThreadApplicationServer4stopEv
libtreefrog.so.1:_ZThn16_N24TThreadApplicationServer5startEb
libtreefrog.so.1:_ZThn16_N24TThreadApplicationServerD0Ev
libtreefrog.so.1:_ZThn16_N24TThreadApplicationServerD1Ev
libtreefrog.so.1:_ZThn16_NK17TActionController4nameEv
libtreefrog.so.1:_ZThn72_N15TEpollWebSocket10disconnectEv
libtreefrog.so.1:_ZThn72_N15TEpollWebSocket12writeRawDataERK10QByteArray
libtreefrog.so.1:_ZThn72_N15TEpollWebSocketD0Ev
libtreefrog.so.1:_ZThn72_N15TEpollWebSocketD1Ev
libtreefrog.so.1:_ZlsR11QDataStreamRK4TLog
libtreefrog.so.1:_ZorRK4QMapIi8QVariantES3_
libtreefrog.so.1:_ZrsR11QDataStreamR4TLog
