libdtkcore.so.2:_Z19qInitResources_utilv
libdtkcore.so.2:_Z22qCleanupResources_utilv
libdtkcore.so.2:_ZN11DDBusCaller4callEv
libdtkcore.so.2:_ZN11DDBusCallerC1ERK7QStringSt10shared_ptrI9DDBusDataE
libdtkcore.so.2:_ZN11DDBusCallerC2ERK7QStringSt10shared_ptrI9DDBusDataE
libdtkcore.so.2:_ZN11DDBusSender4pathERK7QString
libdtkcore.so.2:_ZN11DDBusSender4typeEN15QDBusConnection7BusTypeE
libdtkcore.so.2:_ZN11DDBusSender6methodERK7QString
libdtkcore.so.2:_ZN11DDBusSender7serviceERK7QString
libdtkcore.so.2:_ZN11DDBusSender8propertyERK7QString
libdtkcore.so.2:_ZN11DDBusSender9interfaceERK7QString
libdtkcore.so.2:_ZN11DDBusSenderC1Ev
libdtkcore.so.2:_ZN11DDBusSenderC2Ev
libdtkcore.so.2:_ZN13DDBusProperty3getEv
libdtkcore.so.2:_ZN13DDBusPropertyC1ERK7QStringSt10shared_ptrI9DDBusDataE
libdtkcore.so.2:_ZN13DDBusPropertyC2ERK7QStringSt10shared_ptrI9DDBusDataE
libdtkcore.so.2:_ZN3Dtk4Core11DLogManager12setLogFormatERK7QString
libdtkcore.so.2:_ZN3Dtk4Core11DLogManager14getlogFilePathEv
libdtkcore.so.2:_ZN3Dtk4Core11DLogManager14setlogFilePathERK7QString
libdtkcore.so.2:_ZN3Dtk4Core11DLogManager19initConsoleAppenderEv
libdtkcore.so.2:_ZN3Dtk4Core11DLogManager20registerFileAppenderEv
libdtkcore.so.2:_ZN3Dtk4Core11DLogManager23initRollingFileAppenderEv
libdtkcore.so.2:_ZN3Dtk4Core11DLogManager23registerConsoleAppenderEv
libdtkcore.so.2:_ZN3Dtk4Core11DLogManager8joinPathERK7QStringS4_
libdtkcore.so.2:_ZN3Dtk4Core11DLogManagerC1Ev
libdtkcore.so.2:_ZN3Dtk4Core11DLogManagerC2Ev
libdtkcore.so.2:_ZN3Dtk4Core11DLogManagerD1Ev
libdtkcore.so.2:_ZN3Dtk4Core11DLogManagerD2Ev
libdtkcore.so.2:_ZN3Dtk4Core11unqtifyNameERK7QString
libdtkcore.so.2:_ZN3Dtk4Core12DFileWatcher11onFileMovedERK7QStringS4_S4_S4_
libdtkcore.so.2:_ZN3Dtk4Core12DFileWatcher11qt_metacallEN11QMetaObject4CallEiPPv
libdtkcore.so.2:_ZN3Dtk4Core12DFileWatcher11qt_metacastEPKc
libdtkcore.so.2:_ZN3Dtk4Core12DFileWatcher12onFileClosedERK7QStringS4_
libdtkcore.so.2:_ZN3Dtk4Core12DFileWatcher13onFileCreatedERK7QStringS4_
libdtkcore.so.2:_ZN3Dtk4Core12DFileWatcher13onFileDeletedERK7QStringS4_
libdtkcore.so.2:_ZN3Dtk4Core12DFileWatcher14onFileModifiedERK7QStringS4_
libdtkcore.so.2:_ZN3Dtk4Core12DFileWatcher22onFileAttributeChangedERK7QStringS4_
libdtkcore.so.2:_ZN3Dtk4Core12DFileWatcherC1ERK7QStringP7QObject
libdtkcore.so.2:_ZN3Dtk4Core12DFileWatcherC2ERK7QStringP7QObject
libdtkcore.so.2:_ZN3Dtk4Core12FileAppender11setFileNameERK7QString
libdtkcore.so.2:_ZN3Dtk4Core12FileAppender6appendERK9QDateTimeNS0_6Logger8LogLevelEPKciS8_RK7QStringSB_
libdtkcore.so.2:_ZN3Dtk4Core12FileAppender8openFileEv
libdtkcore.so.2:_ZN3Dtk4Core12FileAppender9closeFileEv
libdtkcore.so.2:_ZN3Dtk4Core12FileAppenderC1ERK7QString
libdtkcore.so.2:_ZN3Dtk4Core12FileAppenderC2ERK7QString
libdtkcore.so.2:_ZN3Dtk4Core12FileAppenderD0Ev
libdtkcore.so.2:_ZN3Dtk4Core12FileAppenderD1Ev
libdtkcore.so.2:_ZN3Dtk4Core12FileAppenderD2Ev
libdtkcore.so.2:_ZN3Dtk4Core14DObjectPrivateC1EPNS0_7DObjectE
libdtkcore.so.2:_ZN3Dtk4Core14DObjectPrivateC2EPNS0_7DObjectE
libdtkcore.so.2:_ZN3Dtk4Core14DObjectPrivateD0Ev
libdtkcore.so.2:_ZN3Dtk4Core14DObjectPrivateD1Ev
libdtkcore.so.2:_ZN3Dtk4Core14DObjectPrivateD2Ev
libdtkcore.so.2:_ZN3Dtk4Core14DRecentManager10removeItemERK7QString
libdtkcore.so.2:_ZN3Dtk4Core14DRecentManager11removeItemsERK11QStringList
libdtkcore.so.2:_ZN3Dtk4Core14DRecentManager7addItemERK7QStringRNS0_11DRecentDataE
libdtkcore.so.2:_ZN3Dtk4Core14DSettingsGroup11qt_metacallEN11QMetaObject4CallEiPPv
libdtkcore.so.2:_ZN3Dtk4Core14DSettingsGroup11qt_metacastEPKc
libdtkcore.so.2:_ZN3Dtk4Core14DSettingsGroup14setParentGroupE8QPointerIS1_E
libdtkcore.so.2:_ZN3Dtk4Core14DSettingsGroup8fromJsonERK7QStringRK11QJsonObject
libdtkcore.so.2:_ZN3Dtk4Core14DSettingsGroup9parseJsonERK7QStringRK11QJsonObject
libdtkcore.so.2:_ZN3Dtk4Core14DSettingsGroupC1EP7QObject
libdtkcore.so.2:_ZN3Dtk4Core14DSettingsGroupC2EP7QObject
libdtkcore.so.2:_ZN3Dtk4Core14DSettingsGroupD0Ev
libdtkcore.so.2:_ZN3Dtk4Core14DSettingsGroupD1Ev
libdtkcore.so.2:_ZN3Dtk4Core14DSettingsGroupD2Ev
libdtkcore.so.2:_ZN3Dtk4Core14DStandardPaths14findExecutableERK7QStringRK11QStringList
libdtkcore.so.2:_ZN3Dtk4Core14DStandardPaths16writableLocationEN14QStandardPaths16StandardLocationE
libdtkcore.so.2:_ZN3Dtk4Core14DStandardPaths17standardLocationsEN14QStandardPaths16StandardLocationE
libdtkcore.so.2:_ZN3Dtk4Core14DStandardPaths6locateEN14QStandardPaths16StandardLocationERK7QString6QFlagsINS2_12LocateOptionEE
libdtkcore.so.2:_ZN3Dtk4Core14DStandardPaths7setModeENS1_4ModeE
libdtkcore.so.2:_ZN3Dtk4Core14DStandardPaths9locateAllEN14QStandardPaths16StandardLocationERK7QString6QFlagsINS2_12LocateOptionEE
libdtkcore.so.2:_ZN3Dtk4Core14loggerInstanceEv
libdtkcore.so.2:_ZN3Dtk4Core14parentPathListERK7QString
libdtkcore.so.2:_ZN3Dtk4Core15ConsoleAppender24ignoreEnvironmentPatternEb
libdtkcore.so.2:_ZN3Dtk4Core15ConsoleAppender6appendERK9QDateTimeNS0_6Logger8LogLevelEPKciS8_RK7QStringSB_
libdtkcore.so.2:_ZN3Dtk4Core15ConsoleAppenderC1Ev
libdtkcore.so.2:_ZN3Dtk4Core15ConsoleAppenderC2Ev
libdtkcore.so.2:_ZN3Dtk4Core15DSettingsOption11dataChangedERK7QString8QVariant
libdtkcore.so.2:_ZN3Dtk4Core15DSettingsOption11qt_metacallEN11QMetaObject4CallEiPPv
libdtkcore.so.2:_ZN3Dtk4Core15DSettingsOption11qt_metacastEPKc
libdtkcore.so.2:_ZN3Dtk4Core15DSettingsOption12valueChangedE8QVariant
libdtkcore.so.2:_ZN3Dtk4Core15DSettingsOption14setParentGroupE8QPointerINS0_14DSettingsGroupEE
libdtkcore.so.2:_ZN3Dtk4Core15DSettingsOption7setDataERK7QString8QVariant
libdtkcore.so.2:_ZN3Dtk4Core15DSettingsOption8fromJsonERK7QStringRK11QJsonObject
libdtkcore.so.2:_ZN3Dtk4Core15DSettingsOption8setValueE8QVariant
libdtkcore.so.2:_ZN3Dtk4Core15DSettingsOption9parseJsonERK7QStringRK11QJsonObject
libdtkcore.so.2:_ZN3Dtk4Core15DSettingsOptionC1EP7QObject
libdtkcore.so.2:_ZN3Dtk4Core15DSettingsOptionC2EP7QObject
libdtkcore.so.2:_ZN3Dtk4Core15DSettingsOptionD0Ev
libdtkcore.so.2:_ZN3Dtk4Core15DSettingsOptionD1Ev
libdtkcore.so.2:_ZN3Dtk4Core15DSettingsOptionD2Ev
libdtkcore.so.2:_ZN3Dtk4Core15DSysInfoPrivate16ensureDeepinInfoEv
libdtkcore.so.2:_ZN3Dtk4Core15DSysInfoPrivate17ensureReleaseInfoEv
libdtkcore.so.2:_ZN3Dtk4Core15DSysInfoPrivate18ensureComputerInfoEv
libdtkcore.so.2:_ZN3Dtk4Core15DSysInfoPrivateC1Ev
libdtkcore.so.2:_ZN3Dtk4Core15DSysInfoPrivateC2Ev
libdtkcore.so.2:_ZN3Dtk4Core15QSettingBackend11doSetOptionERK7QStringRK8QVariant
libdtkcore.so.2:_ZN3Dtk4Core15QSettingBackend11qt_metacallEN11QMetaObject4CallEiPPv
libdtkcore.so.2:_ZN3Dtk4Core15QSettingBackend11qt_metacastEPKc
libdtkcore.so.2:_ZN3Dtk4Core15QSettingBackend6doSyncEv
libdtkcore.so.2:_ZN3Dtk4Core15QSettingBackendC1ERK7QStringP7QObject
libdtkcore.so.2:_ZN3Dtk4Core15QSettingBackendC2ERK7QStringP7QObject
libdtkcore.so.2:_ZN3Dtk4Core15QSettingBackendD0Ev
libdtkcore.so.2:_ZN3Dtk4Core15QSettingBackendD1Ev
libdtkcore.so.2:_ZN3Dtk4Core15QSettingBackendD2Ev
libdtkcore.so.2:_ZN3Dtk4Core16AbstractAppender15setDetailsLevelENS0_6Logger8LogLevelE
libdtkcore.so.2:_ZN3Dtk4Core16AbstractAppender15setDetailsLevelERK7QString
libdtkcore.so.2:_ZN3Dtk4Core16AbstractAppender5writeERK9QDateTimeNS0_6Logger8LogLevelEPKciS8_RK7QStringSB_
libdtkcore.so.2:_ZN3Dtk4Core16AbstractAppenderC1Ev
libdtkcore.so.2:_ZN3Dtk4Core16AbstractAppenderC2Ev
libdtkcore.so.2:_ZN3Dtk4Core16AbstractAppenderD0Ev
libdtkcore.so.2:_ZN3Dtk4Core16AbstractAppenderD1Ev
libdtkcore.so.2:_ZN3Dtk4Core16AbstractAppenderD2Ev
libdtkcore.so.2:_ZN3Dtk4Core16DBaseFileWatcher10fileClosedERK4QUrl
libdtkcore.so.2:_ZN3Dtk4Core16DBaseFileWatcher11fileDeletedERK4QUrl
libdtkcore.so.2:_ZN3Dtk4Core16DBaseFileWatcher11ghostSignalERK4QUrlMS1_FvS4_ES4_
libdtkcore.so.2:_ZN3Dtk4Core16DBaseFileWatcher11ghostSignalERK4QUrlMS1_FvS4_S4_ES4_S4_
libdtkcore.so.2:_ZN3Dtk4Core16DBaseFileWatcher11qt_metacallEN11QMetaObject4CallEiPPv
libdtkcore.so.2:_ZN3Dtk4Core16DBaseFileWatcher11qt_metacastEPKc
libdtkcore.so.2:_ZN3Dtk4Core16DBaseFileWatcher11stopWatcherEv
libdtkcore.so.2:_ZN3Dtk4Core16DBaseFileWatcher12fileModifiedERK4QUrl
libdtkcore.so.2:_ZN3Dtk4Core16DBaseFileWatcher12startWatcherEv
libdtkcore.so.2:_ZN3Dtk4Core16DBaseFileWatcher14restartWatcherEv
libdtkcore.so.2:_ZN3Dtk4Core16DBaseFileWatcher14subfileCreatedERK4QUrl
libdtkcore.so.2:_ZN3Dtk4Core16DBaseFileWatcher20fileAttributeChangedERK4QUrl
libdtkcore.so.2:_ZN3Dtk4Core16DBaseFileWatcher24setEnabledSubfileWatcherERK4QUrlb
libdtkcore.so.2:_ZN3Dtk4Core16DBaseFileWatcher9fileMovedERK4QUrlS4_
libdtkcore.so.2:_ZN3Dtk4Core16DBaseFileWatcherC1ERNS0_23DBaseFileWatcherPrivateERK4QUrlP7QObject
libdtkcore.so.2:_ZN3Dtk4Core16DBaseFileWatcherC2ERNS0_23DBaseFileWatcherPrivateERK4QUrlP7QObject
libdtkcore.so.2:_ZN3Dtk4Core16DBaseFileWatcherD0Ev
libdtkcore.so.2:_ZN3Dtk4Core16DBaseFileWatcherD1Ev
libdtkcore.so.2:_ZN3Dtk4Core16DBaseFileWatcherD2Ev
libdtkcore.so.2:_ZN3Dtk4Core16DSettingsBackend11qt_metacallEN11QMetaObject4CallEiPPv
libdtkcore.so.2:_ZN3Dtk4Core16DSettingsBackend11qt_metacastEPKc
libdtkcore.so.2:_ZN3Dtk4Core16DSettingsBackend13optionChangedERK7QStringRK8QVariant
libdtkcore.so.2:_ZN3Dtk4Core16DSettingsBackend4syncEv
libdtkcore.so.2:_ZN3Dtk4Core16DSettingsBackend9setOptionERK7QStringRK8QVariant
libdtkcore.so.2:_ZN3Dtk4Core16GSettingsBackend11doSetOptionERK7QStringRK8QVariant
libdtkcore.so.2:_ZN3Dtk4Core16GSettingsBackend11qt_metacallEN11QMetaObject4CallEiPPv
libdtkcore.so.2:_ZN3Dtk4Core16GSettingsBackend11qt_metacastEPKc
libdtkcore.so.2:_ZN3Dtk4Core16GSettingsBackend6doSyncEv
libdtkcore.so.2:_ZN3Dtk4Core16GSettingsBackendC1EPNS0_9DSettingsEP7QObject
libdtkcore.so.2:_ZN3Dtk4Core16GSettingsBackendC2EPNS0_9DSettingsEP7QObject
libdtkcore.so.2:_ZN3Dtk4Core16GSettingsBackendD0Ev
libdtkcore.so.2:_ZN3Dtk4Core16GSettingsBackendD1Ev
libdtkcore.so.2:_ZN3Dtk4Core16GSettingsBackendD2Ev
libdtkcore.so.2:_ZN3Dtk4Core18DDiskSizeFormatter4rateEi
libdtkcore.so.2:_ZN3Dtk4Core18DDiskSizeFormatterC1Ev
libdtkcore.so.2:_ZN3Dtk4Core18DDiskSizeFormatterC2Ev
libdtkcore.so.2:_ZN3Dtk4Core18DFileSystemWatcher10fileClosedERK7QStringS4_NS1_14QPrivateSignalE
libdtkcore.so.2:_ZN3Dtk4Core18DFileSystemWatcher10removePathERK7QString
libdtkcore.so.2:_ZN3Dtk4Core18DFileSystemWatcher11fileCreatedERK7QStringS4_NS1_14QPrivateSignalE
libdtkcore.so.2:_ZN3Dtk4Core18DFileSystemWatcher11fileDeletedERK7QStringS4_NS1_14QPrivateSignalE
libdtkcore.so.2:_ZN3Dtk4Core18DFileSystemWatcher11qt_metacallEN11QMetaObject4CallEiPPv
libdtkcore.so.2:_ZN3Dtk4Core18DFileSystemWatcher11qt_metacastEPKc
libdtkcore.so.2:_ZN3Dtk4Core18DFileSystemWatcher11removePathsERK11QStringList
libdtkcore.so.2:_ZN3Dtk4Core18DFileSystemWatcher12fileModifiedERK7QStringS4_NS1_14QPrivateSignalE
libdtkcore.so.2:_ZN3Dtk4Core18DFileSystemWatcher20fileAttributeChangedERK7QStringS4_NS1_14QPrivateSignalE
libdtkcore.so.2:_ZN3Dtk4Core18DFileSystemWatcher7addPathERK7QString
libdtkcore.so.2:_ZN3Dtk4Core18DFileSystemWatcher8addPathsERK11QStringList
libdtkcore.so.2:_ZN3Dtk4Core18DFileSystemWatcher9fileMovedERK7QStringS4_S4_S4_NS1_14QPrivateSignalE
libdtkcore.so.2:_ZN3Dtk4Core18DFileSystemWatcherC1EP7QObject
libdtkcore.so.2:_ZN3Dtk4Core18DFileSystemWatcherC1ERK11QStringListP7QObject
libdtkcore.so.2:_ZN3Dtk4Core18DFileSystemWatcherC2EP7QObject
libdtkcore.so.2:_ZN3Dtk4Core18DFileSystemWatcherC2ERK11QStringListP7QObject
libdtkcore.so.2:_ZN3Dtk4Core18DFileSystemWatcherD0Ev
libdtkcore.so.2:_ZN3Dtk4Core18DFileSystemWatcherD1Ev
libdtkcore.so.2:_ZN3Dtk4Core18DFileSystemWatcherD2Ev
libdtkcore.so.2:_ZN3Dtk4Core18DTimeUnitFormatterC1Ev
libdtkcore.so.2:_ZN3Dtk4Core18DTimeUnitFormatterC2Ev
libdtkcore.so.2:_ZN3Dtk4Core18LoggerTimingHelper5startEPKcz
libdtkcore.so.2:_ZN3Dtk4Core18LoggerTimingHelper5startERK7QString
libdtkcore.so.2:_ZN3Dtk4Core18LoggerTimingHelperD1Ev
libdtkcore.so.2:_ZN3Dtk4Core18LoggerTimingHelperD2Ev
libdtkcore.so.2:_ZN3Dtk4Core19DFileWatcherManager10fileClosedERK7QString
libdtkcore.so.2:_ZN3Dtk4Core19DFileWatcherManager11fileDeletedERK7QString
libdtkcore.so.2:_ZN3Dtk4Core19DFileWatcherManager11qt_metacallEN11QMetaObject4CallEiPPv
libdtkcore.so.2:_ZN3Dtk4Core19DFileWatcherManager11qt_metacastEPKc
libdtkcore.so.2:_ZN3Dtk4Core19DFileWatcherManager12fileModifiedERK7QString
libdtkcore.so.2:_ZN3Dtk4Core19DFileWatcherManager14subfileCreatedERK7QString
libdtkcore.so.2:_ZN3Dtk4Core19DFileWatcherManager20fileAttributeChangedERK7QString
libdtkcore.so.2:_ZN3Dtk4Core19DFileWatcherManager3addERK7QString
libdtkcore.so.2:_ZN3Dtk4Core19DFileWatcherManager6removeERK7QString
libdtkcore.so.2:_ZN3Dtk4Core19DFileWatcherManager9fileMovedERK7QStringS4_
libdtkcore.so.2:_ZN3Dtk4Core19DFileWatcherManagerC1EP7QObject
libdtkcore.so.2:_ZN3Dtk4Core19DFileWatcherManagerC2EP7QObject
libdtkcore.so.2:_ZN3Dtk4Core19DFileWatcherManagerD0Ev
libdtkcore.so.2:_ZN3Dtk4Core19DFileWatcherManagerD1Ev
libdtkcore.so.2:_ZN3Dtk4Core19DFileWatcherManagerD2Ev
libdtkcore.so.2:_ZN3Dtk4Core19DFileWatcherPrivate10formatPathERK7QString
libdtkcore.so.2:_ZN3Dtk4Core19DFileWatcherPrivate18_q_handleFileCloseERK7QStringS4_
libdtkcore.so.2:_ZN3Dtk4Core19DFileWatcherPrivate18_q_handleFileMovedERK7QStringS4_S4_S4_
libdtkcore.so.2:_ZN3Dtk4Core19DFileWatcherPrivate20_q_handleFileCreatedERK7QStringS4_
libdtkcore.so.2:_ZN3Dtk4Core19DFileWatcherPrivate20_q_handleFileDeletedERK7QStringS4_
libdtkcore.so.2:_ZN3Dtk4Core19DFileWatcherPrivate21_q_handleFileModifiedERK7QStringS4_
libdtkcore.so.2:_ZN3Dtk4Core19DFileWatcherPrivate29_q_handleFileAttributeChangedERK7QStringS4_
libdtkcore.so.2:_ZN3Dtk4Core19DFileWatcherPrivate4stopEv
libdtkcore.so.2:_ZN3Dtk4Core19DFileWatcherPrivate5startEv
libdtkcore.so.2:_ZN3Dtk4Core19RollingFileAppender14removeOldFilesEv
libdtkcore.so.2:_ZN3Dtk4Core19RollingFileAppender14setDatePatternENS1_11DatePatternE
libdtkcore.so.2:_ZN3Dtk4Core19RollingFileAppender14setDatePatternERK7QString
libdtkcore.so.2:_ZN3Dtk4Core19RollingFileAppender16computeFrequencyEv
libdtkcore.so.2:_ZN3Dtk4Core19RollingFileAppender16setLogFilesLimitEi
libdtkcore.so.2:_ZN3Dtk4Core19RollingFileAppender19computeRollOverTimeEv
libdtkcore.so.2:_ZN3Dtk4Core19RollingFileAppender20setDatePatternStringERK7QString
libdtkcore.so.2:_ZN3Dtk4Core19RollingFileAppender6appendERK9QDateTimeNS0_6Logger8LogLevelEPKciS8_RK7QStringSB_
libdtkcore.so.2:_ZN3Dtk4Core19RollingFileAppender8rollOverEv
libdtkcore.so.2:_ZN3Dtk4Core19RollingFileAppenderC1ERK7QString
libdtkcore.so.2:_ZN3Dtk4Core19RollingFileAppenderC2ERK7QString
libdtkcore.so.2:_ZN3Dtk4Core21DSettingsGroupPrivate9parseJsonERK7QStringRK11QJsonObject
libdtkcore.so.2:_ZN3Dtk4Core22AbstractStringAppender16qCleanupFuncinfoEPKc
libdtkcore.so.2:_ZN3Dtk4Core22AbstractStringAppender17stripFunctionNameEPKc
libdtkcore.so.2:_ZN3Dtk4Core22AbstractStringAppender9setFormatERK7QString
libdtkcore.so.2:_ZN3Dtk4Core22AbstractStringAppenderC1Ev
libdtkcore.so.2:_ZN3Dtk4Core22AbstractStringAppenderC2Ev
libdtkcore.so.2:_ZN3Dtk4Core22DAbstractUnitFormatterC1Ev
libdtkcore.so.2:_ZN3Dtk4Core22DAbstractUnitFormatterC2Ev
libdtkcore.so.2:_ZN3Dtk4Core22DAbstractUnitFormatterD1Ev
libdtkcore.so.2:_ZN3Dtk4Core22DAbstractUnitFormatterD2Ev
libdtkcore.so.2:_ZN3Dtk4Core22DSettingsOptionPrivate9parseJsonERK7QStringRK11QJsonObject
libdtkcore.so.2:_ZN3Dtk4Core23DBaseFileWatcherPrivateC1EPNS0_16DBaseFileWatcherE
libdtkcore.so.2:_ZN3Dtk4Core23DBaseFileWatcherPrivateC2EPNS0_16DBaseFileWatcherE
libdtkcore.so.2:_ZN3Dtk4Core25DFileSystemWatcherPrivate11removePathsERK11QStringListPS2_S5_
libdtkcore.so.2:_ZN3Dtk4Core25DFileSystemWatcherPrivate13onFileChangedERK7QStringb
libdtkcore.so.2:_ZN3Dtk4Core25DFileSystemWatcherPrivate18_q_readFromInotifyEv
libdtkcore.so.2:_ZN3Dtk4Core25DFileSystemWatcherPrivate18onDirectoryChangedERK7QStringb
libdtkcore.so.2:_ZN3Dtk4Core25DFileSystemWatcherPrivate8addPathsERK11QStringListPS2_S5_
libdtkcore.so.2:_ZN3Dtk4Core25DFileSystemWatcherPrivateC1EiPNS0_18DFileSystemWatcherE
libdtkcore.so.2:_ZN3Dtk4Core25DFileSystemWatcherPrivateC2EiPNS0_18DFileSystemWatcherE
libdtkcore.so.2:_ZN3Dtk4Core25DFileSystemWatcherPrivateD0Ev
libdtkcore.so.2:_ZN3Dtk4Core25DFileSystemWatcherPrivateD1Ev
libdtkcore.so.2:_ZN3Dtk4Core25DFileSystemWatcherPrivateD2Ev
libdtkcore.so.2:_ZN3Dtk4Core26DFileWatcherManagerPrivateC1EPNS0_19DFileWatcherManagerE
libdtkcore.so.2:_ZN3Dtk4Core26DFileWatcherManagerPrivateC2EPNS0_19DFileWatcherManagerE
libdtkcore.so.2:_ZN3Dtk4Core5DUtil13DNotifySender4callEv
libdtkcore.so.2:_ZN3Dtk4Core5DUtil13DNotifySender5hintsERK4QMapI7QString8QVariantE
libdtkcore.so.2:_ZN3Dtk4Core5DUtil13DNotifySender7actionsERK11QStringList
libdtkcore.so.2:_ZN3Dtk4Core5DUtil13DNotifySender7appBodyERK7QString
libdtkcore.so.2:_ZN3Dtk4Core5DUtil13DNotifySender7appIconERK7QString
libdtkcore.so.2:_ZN3Dtk4Core5DUtil13DNotifySender7appNameERK7QString
libdtkcore.so.2:_ZN3Dtk4Core5DUtil13DNotifySender7timeOutEi
libdtkcore.so.2:_ZN3Dtk4Core5DUtil13DNotifySender9replaceIdEj
libdtkcore.so.2:_ZN3Dtk4Core5DUtil13DNotifySenderC1ERK7QString
libdtkcore.so.2:_ZN3Dtk4Core5DUtil13DNotifySenderC2ERK7QString
libdtkcore.so.2:_ZN3Dtk4Core6Logger11writeAssertEPKciS3_S3_
libdtkcore.so.2:_ZN3Dtk4Core6Logger13levelToStringENS1_8LogLevelE
libdtkcore.so.2:_ZN3Dtk4Core6Logger14globalInstanceEv
libdtkcore.so.2:_ZN3Dtk4Core6Logger15levelFromStringERK7QString
libdtkcore.so.2:_ZN3Dtk4Core6Logger16registerAppenderEPNS0_16AbstractAppenderE
libdtkcore.so.2:_ZN3Dtk4Core6Logger18setDefaultCategoryERK7QString
libdtkcore.so.2:_ZN3Dtk4Core6Logger19logToGlobalInstanceERK7QStringb
libdtkcore.so.2:_ZN3Dtk4Core6Logger24registerCategoryAppenderERK7QStringPNS0_16AbstractAppenderE
libdtkcore.so.2:_ZN3Dtk4Core6Logger5writeENS1_8LogLevelEPKciS4_S4_
libdtkcore.so.2:_ZN3Dtk4Core6Logger5writeENS1_8LogLevelEPKciS4_S4_RK7QString
libdtkcore.so.2:_ZN3Dtk4Core6Logger5writeERK9QDateTimeNS1_8LogLevelEPKciS7_S7_RK7QString
libdtkcore.so.2:_ZN3Dtk4Core6Logger5writeERK9QDateTimeNS1_8LogLevelEPKciS7_S7_RK7QStringb
libdtkcore.so.2:_ZN3Dtk4Core6LoggerC1ERK7QString
libdtkcore.so.2:_ZN3Dtk4Core6LoggerC1Ev
libdtkcore.so.2:_ZN3Dtk4Core6LoggerC2ERK7QString
libdtkcore.so.2:_ZN3Dtk4Core6LoggerC2Ev
libdtkcore.so.2:_ZN3Dtk4Core6LoggerD1Ev
libdtkcore.so.2:_ZN3Dtk4Core6LoggerD2Ev
libdtkcore.so.2:_ZN3Dtk4Core7DObjectC1EPS1_
libdtkcore.so.2:_ZN3Dtk4Core7DObjectC1ERNS0_14DObjectPrivateEPS1_
libdtkcore.so.2:_ZN3Dtk4Core7DObjectC2EPS1_
libdtkcore.so.2:_ZN3Dtk4Core7DObjectC2ERNS0_14DObjectPrivateEPS1_
libdtkcore.so.2:_ZN3Dtk4Core7DObjectD0Ev
libdtkcore.so.2:_ZN3Dtk4Core7DObjectD1Ev
libdtkcore.so.2:_ZN3Dtk4Core7DObjectD2Ev
libdtkcore.so.2:_ZN3Dtk4Core8DPathBufC1ERK7QString
libdtkcore.so.2:_ZN3Dtk4Core8DPathBufC1Ev
libdtkcore.so.2:_ZN3Dtk4Core8DPathBufC2ERK7QString
libdtkcore.so.2:_ZN3Dtk4Core8DPathBufC2Ev
libdtkcore.so.2:_ZN3Dtk4Core8DSysInfo10deepinTypeEv
libdtkcore.so.2:_ZN3Dtk4Core8DSysInfo11productTypeEv
libdtkcore.so.2:_ZN3Dtk4Core8DSysInfo12computerNameEv
libdtkcore.so.2:_ZN3Dtk4Core8DSysInfo12cpuModelNameEv
libdtkcore.so.2:_ZN3Dtk4Core8DSysInfo13deepinEditionEv
libdtkcore.so.2:_ZN3Dtk4Core8DSysInfo13deepinVersionEv
libdtkcore.so.2:_ZN3Dtk4Core8DSysInfo14productVersionEv
libdtkcore.so.2:_ZN3Dtk4Core8DSysInfo14systemDiskSizeEv
libdtkcore.so.2:_ZN3Dtk4Core8DSysInfo15deepinCopyrightEv
libdtkcore.so.2:_ZN3Dtk4Core8DSysInfo15memoryTotalSizeEv
libdtkcore.so.2:_ZN3Dtk4Core8DSysInfo17productTypeStringEv
libdtkcore.so.2:_ZN3Dtk4Core8DSysInfo19operatingSystemNameEv
libdtkcore.so.2:_ZN3Dtk4Core8DSysInfo21deepinTypeDisplayNameERK7QLocale
libdtkcore.so.2:_ZN3Dtk4Core8DSysInfo5isDDEEv
libdtkcore.so.2:_ZN3Dtk4Core8DSysInfo8isDeepinEv
libdtkcore.so.2:_ZN3Dtk4Core9DSettings10setBackendEPNS0_16DSettingsBackendE
libdtkcore.so.2:_ZN3Dtk4Core9DSettings11qt_metacallEN11QMetaObject4CallEiPPv
libdtkcore.so.2:_ZN3Dtk4Core9DSettings11qt_metacastEPKc
libdtkcore.so.2:_ZN3Dtk4Core9DSettings12fromJsonFileERK7QString
libdtkcore.so.2:_ZN3Dtk4Core9DSettings12valueChangedERK7QStringRK8QVariant
libdtkcore.so.2:_ZN3Dtk4Core9DSettings4syncEv
libdtkcore.so.2:_ZN3Dtk4Core9DSettings5resetEv
libdtkcore.so.2:_ZN3Dtk4Core9DSettings8fromJsonERK10QByteArray
libdtkcore.so.2:_ZN3Dtk4Core9DSettings9loadValueEv
libdtkcore.so.2:_ZN3Dtk4Core9DSettings9parseJsonERK10QByteArray
libdtkcore.so.2:_ZN3Dtk4Core9DSettings9setOptionERK7QStringRK8QVariant
libdtkcore.so.2:_ZN3Dtk4Core9DSettingsC1EP7QObject
libdtkcore.so.2:_ZN3Dtk4Core9DSettingsC2EP7QObject
libdtkcore.so.2:_ZN3Dtk4Core9DSettingsD0Ev
libdtkcore.so.2:_ZN3Dtk4Core9DSettingsD1Ev
libdtkcore.so.2:_ZN3Dtk4Core9DSettingsD2Ev
libdtkcore.so.2:_ZN3Dtk4Core9qtifyNameERK7QString
libdtkcore.so.2:_ZN9DDBusDataC1Ev
libdtkcore.so.2:_ZN9DDBusDataC2Ev
libdtkcore.so.2:_ZNK3Dtk4Core12DFileWatcher10metaObjectEv
libdtkcore.so.2:_ZNK3Dtk4Core12FileAppender4sizeEv
libdtkcore.so.2:_ZNK3Dtk4Core12FileAppender8fileNameEv
libdtkcore.so.2:_ZNK3Dtk4Core14DSettingsGroup10childGroupERK7QString
libdtkcore.so.2:_ZNK3Dtk4Core14DSettingsGroup10metaObjectEv
libdtkcore.so.2:_ZNK3Dtk4Core14DSettingsGroup11childGroupsEv
libdtkcore.so.2:_ZNK3Dtk4Core14DSettingsGroup11parentGroupEv
libdtkcore.so.2:_ZNK3Dtk4Core14DSettingsGroup12childOptionsEv
libdtkcore.so.2:_ZNK3Dtk4Core14DSettingsGroup3keyEv
libdtkcore.so.2:_ZNK3Dtk4Core14DSettingsGroup4nameEv
libdtkcore.so.2:_ZNK3Dtk4Core14DSettingsGroup6optionERK7QString
libdtkcore.so.2:_ZNK3Dtk4Core14DSettingsGroup7optionsEv
libdtkcore.so.2:_ZNK3Dtk4Core14DSettingsGroup8isHiddenEv
libdtkcore.so.2:_ZNK3Dtk4Core15ConsoleAppender6formatEv
libdtkcore.so.2:_ZNK3Dtk4Core15DSettingsOption10metaObjectEv
libdtkcore.so.2:_ZNK3Dtk4Core15DSettingsOption11parentGroupEv
libdtkcore.so.2:_ZNK3Dtk4Core15DSettingsOption12defaultValueEv
libdtkcore.so.2:_ZNK3Dtk4Core15DSettingsOption3keyEv
libdtkcore.so.2:_ZNK3Dtk4Core15DSettingsOption4dataERK7QString
libdtkcore.so.2:_ZNK3Dtk4Core15DSettingsOption4nameEv
libdtkcore.so.2:_ZNK3Dtk4Core15DSettingsOption5valueEv
libdtkcore.so.2:_ZNK3Dtk4Core15DSettingsOption8canResetEv
libdtkcore.so.2:_ZNK3Dtk4Core15DSettingsOption8isHiddenEv
libdtkcore.so.2:_ZNK3Dtk4Core15DSettingsOption8viewTypeEv
libdtkcore.so.2:_ZNK3Dtk4Core15QSettingBackend10metaObjectEv
libdtkcore.so.2:_ZNK3Dtk4Core15QSettingBackend4keysEv
libdtkcore.so.2:_ZNK3Dtk4Core15QSettingBackend9getOptionERK7QString
libdtkcore.so.2:_ZNK3Dtk4Core16AbstractAppender12detailsLevelEv
libdtkcore.so.2:_ZNK3Dtk4Core16DBaseFileWatcher10metaObjectEv
libdtkcore.so.2:_ZNK3Dtk4Core16DBaseFileWatcher7fileUrlEv
libdtkcore.so.2:_ZNK3Dtk4Core16DSettingsBackend10metaObjectEv
libdtkcore.so.2:_ZNK3Dtk4Core16GSettingsBackend10metaObjectEv
libdtkcore.so.2:_ZNK3Dtk4Core16GSettingsBackend4keysEv
libdtkcore.so.2:_ZNK3Dtk4Core16GSettingsBackend9getOptionERK7QString
libdtkcore.so.2:_ZNK3Dtk4Core17CuteMessageLogger5writeEPKcz
libdtkcore.so.2:_ZNK3Dtk4Core17CuteMessageLogger5writeERK7QString
libdtkcore.so.2:_ZNK3Dtk4Core17CuteMessageLogger5writeEv
libdtkcore.so.2:_ZNK3Dtk4Core18DDiskSizeFormatter7unitStrEi
libdtkcore.so.2:_ZNK3Dtk4Core18DFileSystemWatcher10metaObjectEv
libdtkcore.so.2:_ZNK3Dtk4Core18DFileSystemWatcher11directoriesEv
libdtkcore.so.2:_ZNK3Dtk4Core18DFileSystemWatcher5filesEv
libdtkcore.so.2:_ZNK3Dtk4Core18DTimeUnitFormatter15unitConvertRateEi
libdtkcore.so.2:_ZNK3Dtk4Core18DTimeUnitFormatter7unitStrEi
libdtkcore.so.2:_ZNK3Dtk4Core19DFileWatcherManager10metaObjectEv
libdtkcore.so.2:_ZNK3Dtk4Core19RollingFileAppender11datePatternEv
libdtkcore.so.2:_ZNK3Dtk4Core19RollingFileAppender13logFilesLimitEv
libdtkcore.so.2:_ZNK3Dtk4Core19RollingFileAppender17datePatternStringEv
libdtkcore.so.2:_ZNK3Dtk4Core22AbstractStringAppender15formattedStringERK9QDateTimeNS0_6Logger8LogLevelEPKciS8_RK7QStringSB_
libdtkcore.so.2:_ZNK3Dtk4Core22AbstractStringAppender6formatEv
libdtkcore.so.2:_ZNK3Dtk4Core22DAbstractUnitFormatter16formatAsUnitListEdi
libdtkcore.so.2:_ZNK3Dtk4Core22DAbstractUnitFormatter6formatEdi
libdtkcore.so.2:_ZNK3Dtk4Core22DAbstractUnitFormatter8formatAsEdii
libdtkcore.so.2:_ZNK3Dtk4Core25DFileSystemWatcherPrivate13getPathFromIDEi
libdtkcore.so.2:_ZNK3Dtk4Core6Logger15defaultCategoryEv
libdtkcore.so.2:_ZNK3Dtk4Core9DSettings10metaObjectEv
libdtkcore.so.2:_ZNK3Dtk4Core9DSettings4keysEv
libdtkcore.so.2:_ZNK3Dtk4Core9DSettings4metaEv
libdtkcore.so.2:_ZNK3Dtk4Core9DSettings5groupERK7QString
libdtkcore.so.2:_ZNK3Dtk4Core9DSettings5valueERK7QString
libdtkcore.so.2:_ZNK3Dtk4Core9DSettings6groupsEv
libdtkcore.so.2:_ZNK3Dtk4Core9DSettings6optionERK7QString
libdtkcore.so.2:_ZNK3Dtk4Core9DSettings7optionsEv
libdtkcore.so.2:_ZNK3Dtk4Core9DSettings9getOptionERK7QString
libdtkcore.so.2:_ZNK3Dtk4Core9DSettings9groupKeysEv
libdtkcore.so.2:_ZThn16_N3Dtk4Core16DBaseFileWatcherD0Ev
libdtkcore.so.2:_ZThn16_N3Dtk4Core16DBaseFileWatcherD1Ev
libdtkcore.so.2:_ZThn16_N3Dtk4Core18DFileSystemWatcherD0Ev
libdtkcore.so.2:_ZThn16_N3Dtk4Core18DFileSystemWatcherD1Ev
libdtkcore.so.2:_ZThn16_N3Dtk4Core19DFileWatcherManagerD0Ev
libdtkcore.so.2:_ZThn16_N3Dtk4Core19DFileWatcherManagerD1Ev
