libdisomaster.so.1:_Z18XorrisoInfoHandlerPvPc
libdisomaster.so.1:_Z20XorrisoResultHandlerPvPc
libdisomaster.so.1:_ZN12DISOMasterNS10DISOMaster10checkmediaEPdS1_S1_
libdisomaster.so.1:_ZN12DISOMasterNS10DISOMaster10stageFilesE5QHashI4QUrlS2_E
libdisomaster.so.1:_ZN12DISOMasterNS10DISOMaster11qt_metacallEN11QMetaObject4CallEiPPv
libdisomaster.so.1:_ZN12DISOMasterNS10DISOMaster11qt_metacastEPKc
libdisomaster.so.1:_ZN12DISOMasterNS10DISOMaster13acquireDeviceE7QString
libdisomaster.so.1:_ZN12DISOMasterNS10DISOMaster13releaseDeviceEv
libdisomaster.so.1:_ZN12DISOMasterNS10DISOMaster15getInfoMessagesEv
libdisomaster.so.1:_ZN12DISOMasterNS10DISOMaster16jobStatusChangedENS0_9JobStatusEi
libdisomaster.so.1:_ZN12DISOMasterNS10DISOMaster17getDevicePropertyEv
libdisomaster.so.1:_ZN12DISOMasterNS10DISOMaster18removeStagingFilesE5QListI4QUrlE
libdisomaster.so.1:_ZN12DISOMasterNS10DISOMaster26nullifyDevicePropertyCacheE7QString
libdisomaster.so.1:_ZN12DISOMasterNS10DISOMaster5eraseEv
libdisomaster.so.1:_ZN12DISOMasterNS10DISOMaster6commitEib7QString
libdisomaster.so.1:_ZN12DISOMasterNS10DISOMaster7dumpISOE4QUrl
libdisomaster.so.1:_ZN12DISOMasterNS10DISOMaster8writeISOE4QUrli
libdisomaster.so.1:_ZN12DISOMasterNS10DISOMasterC1EP7QObject
libdisomaster.so.1:_ZN12DISOMasterNS10DISOMasterC2EP7QObject
libdisomaster.so.1:_ZN12DISOMasterNS10DISOMasterD0Ev
libdisomaster.so.1:_ZN12DISOMasterNS10DISOMasterD1Ev
libdisomaster.so.1:_ZN12DISOMasterNS10DISOMasterD2Ev
libdisomaster.so.1:_ZN12DISOMasterNS17DISOMasterPrivate15messageReceivedEiPc
libdisomaster.so.1:_ZN12DISOMasterNS17DISOMasterPrivate24getCurrentDevicePropertyEv
libdisomaster.so.1:_ZNK12DISOMasterNS10DISOMaster10metaObjectEv
libdisomaster.so.1:_ZNK12DISOMasterNS10DISOMaster12stagingFilesEv
libdisomaster.so.1:_ZNK12DISOMasterNS10DISOMaster13currentDeviceEv
libdisomaster.so.1:_ZNK12DISOMasterNS10DISOMaster15getCurrentSpeedEv
libdisomaster.so.1:_ZNK12DISOMasterNS10DISOMaster23getDevicePropertyCachedE7QString
