libdtkwm.so.2:_ZN3Dtk2Wm14DWindowManager10getWindowsEv
libdtkwm.so.2:_ZN3Dtk2Wm14DWindowManager10killWindowEj
libdtkwm.so.2:_ZN3Dtk2Wm14DWindowManager11getAtomNameEj
libdtkwm.so.2:_ZN3Dtk2Wm14DWindowManager11getPropertyEj7QStringj
libdtkwm.so.2:_ZN3Dtk2Wm14DWindowManager11qt_metacallEN11QMetaObject4CallEiPPv
libdtkwm.so.2:_ZN3Dtk2Wm14DWindowManager11qt_metacastEPKc
libdtkwm.so.2:_ZN3Dtk2Wm14DWindowManager12getWindowPidEj
libdtkwm.so.2:_ZN3Dtk2Wm14DWindowManager13getWindowIconEji
libdtkwm.so.2:_ZN3Dtk2Wm14DWindowManager13getWindowNameEj
libdtkwm.so.2:_ZN3Dtk2Wm14DWindowManager13getWindowRectEj
libdtkwm.so.2:_ZN3Dtk2Wm14DWindowManager13setWindowBlurEiR7QVectorIjE
libdtkwm.so.2:_ZN3Dtk2Wm14DWindowManager14getWindowClassEj
libdtkwm.so.2:_ZN3Dtk2Wm14DWindowManager14getWindowTypesEj
libdtkwm.so.2:_ZN3Dtk2Wm14DWindowManager15getWindowStatesEj
libdtkwm.so.2:_ZN3Dtk2Wm14DWindowManager15translateCoordsEjRiS2_
libdtkwm.so.2:_ZN3Dtk2Wm14DWindowManager17getRootWindowRectEv
libdtkwm.so.2:_ZN3Dtk2Wm14DWindowManager17setRootWindowRectE5QRect
libdtkwm.so.2:_ZN3Dtk2Wm14DWindowManager18getWindowWorkspaceEj
libdtkwm.so.2:_ZN3Dtk2Wm14DWindowManager19getCurrentWorkspaceEj
libdtkwm.so.2:_ZN3Dtk2Wm14DWindowManager21getWindowFlatpakAppidEj
libdtkwm.so.2:_ZN3Dtk2Wm14DWindowManager21getWindowFrameExtentsEj
libdtkwm.so.2:_ZN3Dtk2Wm14DWindowManager22adjustRectInScreenAreaENS0_10WindowRectE
libdtkwm.so.2:_ZN3Dtk2Wm14DWindowManager7getAtomE7QString
libdtkwm.so.2:_ZN3Dtk2Wm14DWindowManagerC1EP7QObject
libdtkwm.so.2:_ZN3Dtk2Wm14DWindowManagerC2EP7QObject
libdtkwm.so.2:_ZN3Dtk2Wm14DWindowManagerD0Ev
libdtkwm.so.2:_ZN3Dtk2Wm14DWindowManagerD1Ev
libdtkwm.so.2:_ZN3Dtk2Wm14DWindowManagerD2Ev
libdtkwm.so.2:_ZN3Dtk2Wm18DScreenWindowsUtil11qt_metacallEN11QMetaObject4CallEiPPv
libdtkwm.so.2:_ZN3Dtk2Wm18DScreenWindowsUtil11qt_metacastEPKc
libdtkwm.so.2:_ZN3Dtk2Wm18DScreenWindowsUtil8instanceE6QPoint
libdtkwm.so.2:_ZN3Dtk2Wm18DScreenWindowsUtilC1E6QPointP7QObject
libdtkwm.so.2:_ZN3Dtk2Wm18DScreenWindowsUtilC2E6QPointP7QObject
libdtkwm.so.2:_ZN3Dtk2Wm18DScreenWindowsUtilD0Ev
libdtkwm.so.2:_ZN3Dtk2Wm18DScreenWindowsUtilD1Ev
libdtkwm.so.2:_ZN3Dtk2Wm18DScreenWindowsUtilD2Ev
libdtkwm.so.2:_ZNK3Dtk2Wm14DWindowManager10metaObjectEv
libdtkwm.so.2:_ZNK3Dtk2Wm18DScreenWindowsUtil10metaObjectEv
libdtkwm.so.2:_ZNK3Dtk2Wm18DScreenWindowsUtil11windowsNameEv
libdtkwm.so.2:_ZNK3Dtk2Wm18DScreenWindowsUtil11windowsRectEv
libdtkwm.so.2:_ZNK3Dtk2Wm18DScreenWindowsUtil12getScreenNumEv
libdtkwm.so.2:_ZNK3Dtk2Wm18DScreenWindowsUtil12rootWindowIdEv
libdtkwm.so.2:_ZNK3Dtk2Wm18DScreenWindowsUtil13primaryScreenEv
libdtkwm.so.2:_ZNK3Dtk2Wm18DScreenWindowsUtil14backgroundRectEv
libdtkwm.so.2:_ZNK3Dtk2Wm18DScreenWindowsUtil14isPrimayScreenEv
libdtkwm.so.2:_ZThn16_N3Dtk2Wm14DWindowManagerD0Ev
libdtkwm.so.2:_ZThn16_N3Dtk2Wm14DWindowManagerD1Ev
libdtkwm.so.2:_ZThn16_N3Dtk2Wm18DScreenWindowsUtilD0Ev
libdtkwm.so.2:_ZThn16_N3Dtk2Wm18DScreenWindowsUtilD1Ev
