libgsettings-qt.so.1:_Z10qtify_namePKc
libgsettings-qt.so.1:_Z12unqtify_nameRK7QString
libgsettings-qt.so.1:_Z19qconf_types_convertPK13_GVariantType
libgsettings-qt.so.1:_Z23qconf_types_to_qvariantP9_GVariant
libgsettings-qt.so.1:_Z32qconf_types_collect_from_variantPK13_GVariantTypeRK8QVariant
libgsettings-qt.so.1:_ZN10QGSettings11qt_metacallEN11QMetaObject4CallEiPPv
libgsettings-qt.so.1:_ZN10QGSettings11qt_metacastEPKc
libgsettings-qt.so.1:_ZN10QGSettings17isSchemaInstalledERK10QByteArray
libgsettings-qt.so.1:_ZN10QGSettings3setERK7QStringRK8QVariant
libgsettings-qt.so.1:_ZN10QGSettings5resetERK7QString
libgsettings-qt.so.1:_ZN10QGSettings6trySetERK7QStringRK8QVariant
libgsettings-qt.so.1:_ZN10QGSettings7changedERK7QString
libgsettings-qt.so.1:_ZN10QGSettingsC1ERK10QByteArrayS2_P7QObject
libgsettings-qt.so.1:_ZN10QGSettingsC2ERK10QByteArrayS2_P7QObject
libgsettings-qt.so.1:_ZN10QGSettingsD0Ev
libgsettings-qt.so.1:_ZN10QGSettingsD1Ev
libgsettings-qt.so.1:_ZN10QGSettingsD2Ev
libgsettings-qt.so.1:_ZN17QGSettingsPrivate14settingChangedEP10_GSettingsPKcPv
libgsettings-qt.so.1:_ZNK10QGSettings10metaObjectEv
libgsettings-qt.so.1:_ZNK10QGSettings3getERK7QString
libgsettings-qt.so.1:_ZNK10QGSettings4keysEv
libgsettings-qt.so.1:_ZNK10QGSettings7choicesERK7QString
