libdde-file-manager.so.1:_Z10isAppGroup7QString
libdde-file-manager.so.1:_Z10isComputer7QString
libdde-file-manager.so.1:_Z10sizeStringRK7QString
libdde-file-manager.so.1:_Z10trimmedEnd7QString
libdde-file-manager.so.1:_Z10vfsManagerv
libdde-file-manager.so.1:_Z10x2nreallocPvPmm
libdde-file-manager.so.1:_Z11isInDesktop7QString
libdde-file-manager.so.1:_Z11mountClientv
libdde-file-manager.so.1:_Z11svgToPixmapRK7QStringii
libdde-file-manager.so.1:_Z12boundingPath5QListI6QRectFEdd
libdde-file-manager.so.1:_Z12boundingRect5QListI6QRectFE
libdde-file-manager.so.1:_Z12mountManagerv
libdde-file-manager.so.1:_Z13isAvfsMountedv
libdde-file-manager.so.1:_Z13streamsavedirP11__dirstream
libdde-file-manager.so.1:_Z14getQssFromFile7QString
libdde-file-manager.so.1:_Z14parentPathListRK7QString
libdde-file-manager.so.1:_Z15getMimeTypeName7QString
libdde-file-manager.so.1:_Z15svgToHDPIPixmapRK7QString
libdde-file-manager.so.1:_Z15svgToHDPIPixmapRK7QStringii
libdde-file-manager.so.1:_Z16deleteFilePrefix7QString
libdde-file-manager.so.1:_Z16getDialogManagerb
libdde-file-manager.so.1:_Z16getUDiskListenerb
libdde-file-manager.so.1:_Z16isDesktopAppFile7QString
libdde-file-manager.so.1:_Z16qt_strip_filtersRK11QStringList
libdde-file-manager.so.1:_Z17getThumbnailsPathv
libdde-file-manager.so.1:_Z17isInDesktopFolder7QString
libdde-file-manager.so.1:_Z18isRequestThumbnail7QString
libdde-file-manager.so.1:_Z19getGvfsMountManagerb
libdde-file-manager.so.1:_Z19getMimeTypeIconName7QString
libdde-file-manager.so.1:_Z19qInitResources_datav
libdde-file-manager.so.1:_Z19qInitResources_skinv
libdde-file-manager.so.1:_Z20searchKeywordPatternRK7QString
libdde-file-manager.so.1:_Z21qInitResources_themesv
libdde-file-manager.so.1:_Z22qCleanupResources_datav
libdde-file-manager.so.1:_Z22qCleanupResources_skinv
libdde-file-manager.so.1:_Z22qInitResources_dialogsv
libdde-file-manager.so.1:_Z24qCleanupResources_themesv
libdde-file-manager.so.1:_Z24qInitResources_configurev
libdde-file-manager.so.1:_Z25qCleanupResources_dialogsv
libdde-file-manager.so.1:_Z26getMimeTypeGenericIconName7QString
libdde-file-manager.so.1:_Z26qInitResources_filemanagerv
libdde-file-manager.so.1:_Z27qCleanupResources_configurev
libdde-file-manager.so.1:_Z29qCleanupResources_filemanagerv
libdde-file-manager.so.1:_Z5isApp7QString
libdde-file-manager.so.1:_Z5qHashRK4DUrlj
libdde-file-manager.so.1:_Z7isTrash7QString
libdde-file-manager.so.1:_Z7savedirPKc
libdde-file-manager.so.1:_Z8dRound64di
libdde-file-manager.so.1:_Z8isAllApp11QStringList
libdde-file-manager.so.1:_Z8isFolder7QString
libdde-file-manager.so.1:_Z8joinPathRK10QByteArrayS1_
libdde-file-manager.so.1:_Z8joinPathRK7QStringS1_
libdde-file-manager.so.1:_Z9cleanPathR7QString
libdde-file-manager.so.1:_Z9decodeUrl7QString
libdde-file-manager.so.1:_Z9isDesktop7QString
libdde-file-manager.so.1:_Z9vfsDevicev
libdde-file-manager.so.1:_ZN10BaseDialog11qt_metacallEN11QMetaObject4CallEiPPv
libdde-file-manager.so.1:_ZN10BaseDialog11qt_metacastEPKc
libdde-file-manager.so.1:_ZN10BaseDialog11resizeEventEP12QResizeEvent
libdde-file-manager.so.1:_ZN10BaseDialog8setTitleERK7QString
libdde-file-manager.so.1:_ZN10BaseDialogC1EP7QWidget
libdde-file-manager.so.1:_ZN10BaseDialogC2EP7QWidget
libdde-file-manager.so.1:_ZN10BaseDialogD0Ev
libdde-file-manager.so.1:_ZN10BaseDialogD1Ev
libdde-file-manager.so.1:_ZN10BaseDialogD2Ev
libdde-file-manager.so.1:_ZN10BlurWidget11qt_metacallEN11QMetaObject4CallEiPPv
libdde-file-manager.so.1:_ZN10BlurWidget11qt_metacastEPKc
libdde-file-manager.so.1:_ZN10BlurWidgetC1EP7QWidget
libdde-file-manager.so.1:_ZN10BlurWidgetC2EP7QWidget
libdde-file-manager.so.1:_ZN10DRenameBar10setVisibleEb
libdde-file-manager.so.1:_ZN10DRenameBar11initConnectEv
libdde-file-manager.so.1:_ZN10DRenameBar11qt_metacallEN11QMetaObject4CallEiPPv
libdde-file-manager.so.1:_ZN10DRenameBar11qt_metacastEPKc
libdde-file-manager.so.1:_ZN10DRenameBar12storeUrlListERK5QListI4DUrlE
libdde-file-manager.so.1:_ZN10DRenameBar13keyPressEventEP9QKeyEvent
libdde-file-manager.so.1:_ZN10DRenameBar14visibleChangedEb
libdde-file-manager.so.1:_ZN10DRenameBar15eventDispatcherEv
libdde-file-manager.so.1:_ZN10DRenameBar16onVisibleChangedEb
libdde-file-manager.so.1:_ZN10DRenameBar16restoreRenameBarEv
libdde-file-manager.so.1:_ZN10DRenameBar17clickCancelButtonEv
libdde-file-manager.so.1:_ZN10DRenameBar17clickRenameButtonEv
libdde-file-manager.so.1:_ZN10DRenameBar22onRenamePatternChangedERKi
libdde-file-manager.so.1:_ZN10DRenameBar22requestReplaceOperatorEv
libdde-file-manager.so.1:_ZN10DRenameBar23onAddTextPatternChangedERKi
libdde-file-manager.so.1:_ZN10DRenameBar31onCustomOperatorFileNameChangedEv
libdde-file-manager.so.1:_ZN10DRenameBar31onCustomOperatorSNNumberChangedEv
libdde-file-manager.so.1:_ZN10DRenameBar32onAddOperatorAddedContentChangedERK7QString
libdde-file-manager.so.1:_ZN10DRenameBar32onReplaceOperatorFileNameChangedERK7QString
libdde-file-manager.so.1:_ZN10DRenameBar9loadStateERSt10unique_ptrI20RecordRenameBarStateSt14default_deleteIS1_EE
libdde-file-manager.so.1:_ZN10DRenameBarC1EP7QWidget
libdde-file-manager.so.1:_ZN10DRenameBarC2EP7QWidget
libdde-file-manager.so.1:_ZN10DStatusBar11eventFilterEP7QObjectP6QEvent
libdde-file-manager.so.1:_ZN10DStatusBar11initConnectEv
libdde-file-manager.so.1:_ZN10DStatusBar11itemCountedERK8DFMEventi
libdde-file-manager.so.1:_ZN10DStatusBar11modeChangedEv
libdde-file-manager.so.1:_ZN10DStatusBar11qt_metacallEN11QMetaObject4CallEiPPv
libdde-file-manager.so.1:_ZN10DStatusBar11qt_metacastEPKc
libdde-file-manager.so.1:_ZN10DStatusBar12computerSizeERK5QListI4DUrlE
libdde-file-manager.so.1:_ZN10DStatusBar12itemSelectedERK8DFMEventi
libdde-file-manager.so.1:_ZN10DStatusBar14setComBoxItemsERK11QStringList
libdde-file-manager.so.1:_ZN10DStatusBar19updateStatusMessageEv
libdde-file-manager.so.1:_ZN10DStatusBar21clearLayoutAndAnchorsEv
libdde-file-manager.so.1:_ZN10DStatusBar22computerFolderContainsERK5QListI4DUrlE
libdde-file-manager.so.1:_ZN10DStatusBar24setLoadingIncatorVisibleEbRK7QString
libdde-file-manager.so.1:_ZN10DStatusBar31handdleComputerFileSizeFinishedEv
libdde-file-manager.so.1:_ZN10DStatusBar37handdleComputerFolderContainsFinishedEv
libdde-file-manager.so.1:_ZN10DStatusBar6initUIEv
libdde-file-manager.so.1:_ZN10DStatusBar7setModeENS_4ModeE
libdde-file-manager.so.1:_ZN10DStatusBarC1EP7QWidget
libdde-file-manager.so.1:_ZN10DStatusBarC2EP7QWidget
libdde-file-manager.so.1:_ZN10ExtendView11initConnectEv
libdde-file-manager.so.1:_ZN10ExtendView11qt_metacallEN11QMetaObject4CallEiPPv
libdde-file-manager.so.1:_ZN10ExtendView11qt_metacastEPKc
libdde-file-manager.so.1:_ZN10ExtendView11setStartUrlERK4DUrl
libdde-file-manager.so.1:_ZN10ExtendView6initUIEv
libdde-file-manager.so.1:_ZN10ExtendViewC1EP7QWidget
libdde-file-manager.so.1:_ZN10ExtendViewC2EP7QWidget
libdde-file-manager.so.1:_ZN10ExtendViewD0Ev
libdde-file-manager.so.1:_ZN10ExtendViewD1Ev
libdde-file-manager.so.1:_ZN10ExtendViewD2Ev
libdde-file-manager.so.1:_ZN10GlobalData22onClipboardDataChangedEv
libdde-file-manager.so.1:_ZN10Properties3setERK7QStringRK8QVariant
libdde-file-manager.so.1:_ZN10Properties4loadERK7QStringS2_
libdde-file-manager.so.1:_ZN10Properties4saveERK7QStringS2_
libdde-file-manager.so.1:_ZN10Properties5valueERK7QStringRK8QVariant
libdde-file-manager.so.1:_ZN10PropertiesC1ERK7QStringS2_
libdde-file-manager.so.1:_ZN10PropertiesC1ERKS_
libdde-file-manager.so.1:_ZN10PropertiesC2ERK7QStringS2_
libdde-file-manager.so.1:_ZN10PropertiesC2ERKS_
libdde-file-manager.so.1:_ZN10Subscriber11setEventKeyEi
libdde-file-manager.so.1:_ZN10TagManager10deleteTagsERK5QListI7QStringE
libdde-file-manager.so.1:_ZN10TagManager10getAllTagsEv
libdde-file-manager.so.1:_ZN10TagManager10untagFilesERK4QMapI7QString5QListIS1_EE
libdde-file-manager.so.1:_ZN10TagManager11deleteFilesERK5QListI4DUrlE
libdde-file-manager.so.1:_ZN10TagManager11qt_metacallEN11QMetaObject4CallEiPPv
libdde-file-manager.so.1:_ZN10TagManager11qt_metacastEPKc
libdde-file-manager.so.1:_ZN10TagManager12init_connectEv
libdde-file-manager.so.1:_ZN10TagManager13changeTagNameERK4QMapI7QStringS1_E
libdde-file-manager.so.1:_ZN10TagManager13changeTagNameERK5QPairI7QStringS1_E
libdde-file-manager.so.1:_ZN10TagManager13makeFilesTagsERK5QListI7QStringERKS0_I4DUrlE
libdde-file-manager.so.1:_ZN10TagManager14changeTagColorERK4QMapI7QStringS1_E
libdde-file-manager.so.1:_ZN10TagManager14changeTagColorERK7QStringS2_
libdde-file-manager.so.1:_ZN10TagManager15changeFilesNameERK5QListI5QPairI10QByteArrayS2_EE
libdde-file-manager.so.1:_ZN10TagManager15filesWereTaggedERK4QMapI7QString5QListIS1_EE
libdde-file-manager.so.1:_ZN10TagManager17removeTagsOfFilesERK5QListI7QStringERKS0_I4DUrlE
libdde-file-manager.so.1:_ZN10TagManager18getFilesThroughTagERK7QString
libdde-file-manager.so.1:_ZN10TagManager19getTagsThroughFilesERK5QListI4DUrlE
libdde-file-manager.so.1:_ZN10TagManager24makeFilesTagThroughColorERK7QStringRK5QListI4DUrlE
libdde-file-manager.so.1:_ZN10TagManager9addNewTagERK5QListI7QStringE
libdde-file-manager.so.1:_ZN10TagManager9deleteTagERK5QListI7QStringE
libdde-file-manager.so.1:_ZN10TagManagerC1Ev
libdde-file-manager.so.1:_ZN10TagManagerC2Ev
libdde-file-manager.so.1:_ZN11DDetailView11qt_metacallEN11QMetaObject4CallEiPPv
libdde-file-manager.so.1:_ZN11DDetailView11qt_metacastEPKc
libdde-file-manager.so.1:_ZN11DDetailViewC1EP7QWidget
libdde-file-manager.so.1:_ZN11DDetailViewC2EP7QWidget
libdde-file-manager.so.1:_ZN11DDetailViewD0Ev
libdde-file-manager.so.1:_ZN11DDetailViewD1Ev
libdde-file-manager.so.1:_ZN11DDetailViewD2Ev
libdde-file-manager.so.1:_ZN11DDragWidget10setHotSpotERK6QPoint
libdde-file-manager.so.1:_ZN11DDragWidget10timerEventEv
libdde-file-manager.so.1:_ZN11DDragWidget11eventFilterEP7QObjectP6QEvent
libdde-file-manager.so.1:_ZN11DDragWidget11qt_metacallEN11QMetaObject4CallEiPPv
libdde-file-manager.so.1:_ZN11DDragWidget11qt_metacastEPKc
libdde-file-manager.so.1:_ZN11DDragWidget9setPixmapERK7QPixmap
libdde-file-manager.so.1:_ZN11DDragWidget9startDragEv
libdde-file-manager.so.1:_ZN11DDragWidgetC1EP7QObject
libdde-file-manager.so.1:_ZN11DDragWidgetC2EP7QObject
libdde-file-manager.so.1:_ZN11DDragWidgetD0Ev
libdde-file-manager.so.1:_ZN11DDragWidgetD1Ev
libdde-file-manager.so.1:_ZN11DDragWidgetD2Ev
libdde-file-manager.so.1:_ZN11DFMSplitter11qt_metacallEN11QMetaObject4CallEiPPv
libdde-file-manager.so.1:_ZN11DFMSplitter11qt_metacastEPKc
libdde-file-manager.so.1:_ZN11DFMSplitter12createHandleEv
libdde-file-manager.so.1:_ZN11DFMSplitter12moveSplitterEii
libdde-file-manager.so.1:_ZN11DFMSplitterC1EN2Qt11OrientationEP7QWidget
libdde-file-manager.so.1:_ZN11DFMSplitterC2EN2Qt11OrientationEP7QWidget
libdde-file-manager.so.1:_ZN11DFileDialog10closeEventEP11QCloseEvent
libdde-file-manager.so.1:_ZN11DFileDialog10selectFileERK7QString
libdde-file-manager.so.1:_ZN11DFileDialog10setOptionsE6QFlagsIN11QFileDialog6OptionEE
libdde-file-manager.so.1:_ZN11DFileDialog11eventFilterEP7QObjectP6QEvent
libdde-file-manager.so.1:_ZN11DFileDialog11qt_metacallEN11QMetaObject4CallEiPPv
libdde-file-manager.so.1:_ZN11DFileDialog11qt_metacastEPKc
libdde-file-manager.so.1:_ZN11DFileDialog11setFileModeEN11QFileDialog8FileModeE
libdde-file-manager.so.1:_ZN11DFileDialog11setViewModeEN9DFileView8ViewModeE
libdde-file-manager.so.1:_ZN11DFileDialog12setDirectoryERK4QDir
libdde-file-manager.so.1:_ZN11DFileDialog12setDirectoryERK7QString
libdde-file-manager.so.1:_ZN11DFileDialog12setLabelTextEN11QFileDialog11DialogLabelERK7QString
libdde-file-manager.so.1:_ZN11DFileDialog13fmEventFilterERK14QSharedPointerI8DFMEventEPN16dde_file_manager23DFMAbstractEventHandlerEP8QVariant
libdde-file-manager.so.1:_ZN11DFileDialog13handleNewViewEPN16dde_file_manager11DFMBaseViewE
libdde-file-manager.so.1:_ZN11DFileDialog13setAcceptModeEN11QFileDialog10AcceptModeE
libdde-file-manager.so.1:_ZN11DFileDialog14adjustPositionEP7QWidget
libdde-file-manager.so.1:_ZN11DFileDialog14setNameFiltersERK11QStringList
libdde-file-manager.so.1:_ZN11DFileDialog15addCustomWidgetENS_16CustomWidgetTypeERK7QString
libdde-file-manager.so.1:_ZN11DFileDialog15setDirectoryUrlERK4DUrl
libdde-file-manager.so.1:_ZN11DFileDialog15setHideOnAcceptEb
libdde-file-manager.so.1:_ZN11DFileDialog16selectNameFilterERK7QString
libdde-file-manager.so.1:_ZN11DFileDialog17currentUrlChangedEv
libdde-file-manager.so.1:_ZN11DFileDialog18endAddCustomWidgetEv
libdde-file-manager.so.1:_ZN11DFileDialog18handleEnterPressedEv
libdde-file-manager.so.1:_ZN11DFileDialog19addDisableUrlSchemeERK7QString
libdde-file-manager.so.1:_ZN11DFileDialog19setCurrentInputNameERK7QString
libdde-file-manager.so.1:_ZN11DFileDialog20beginAddCustomWidgetEv
libdde-file-manager.so.1:_ZN11DFileDialog21onAcceptButtonClickedEv
libdde-file-manager.so.1:_ZN11DFileDialog21onRejectButtonClickedEv
libdde-file-manager.so.1:_ZN11DFileDialog21selectionFilesChangedEv
libdde-file-manager.so.1:_ZN11DFileDialog23selectNameFilterByIndexEi
libdde-file-manager.so.1:_ZN11DFileDialog25onCurrentInputNameChangedEv
libdde-file-manager.so.1:_ZN11DFileDialog25selectedNameFilterChangedEv
libdde-file-manager.so.1:_ZN11DFileDialog4doneEi
libdde-file-manager.so.1:_ZN11DFileDialog4execEv
libdde-file-manager.so.1:_ZN11DFileDialog4openEv
libdde-file-manager.so.1:_ZN11DFileDialog6acceptEv
libdde-file-manager.so.1:_ZN11DFileDialog6rejectEv
libdde-file-manager.so.1:_ZN11DFileDialog8acceptedEv
libdde-file-manager.so.1:_ZN11DFileDialog8finishedEi
libdde-file-manager.so.1:_ZN11DFileDialog8rejectedEv
libdde-file-manager.so.1:_ZN11DFileDialog9selectUrlERK4QUrl
libdde-file-manager.so.1:_ZN11DFileDialog9setFilterE6QFlagsIN4QDir6FilterEE
libdde-file-manager.so.1:_ZN11DFileDialog9setOptionEN11QFileDialog6OptionEb
libdde-file-manager.so.1:_ZN11DFileDialog9showEventEP10QShowEvent
libdde-file-manager.so.1:_ZN11DFileDialogC1EP7QWidget
libdde-file-manager.so.1:_ZN11DFileDialogC2EP7QWidget
libdde-file-manager.so.1:_ZN11DFileDialogD0Ev
libdde-file-manager.so.1:_ZN11DFileDialogD1Ev
libdde-file-manager.so.1:_ZN11DFileDialogD2Ev
libdde-file-manager.so.1:_ZN11DScrollArea10wheelEventEP11QWheelEvent
libdde-file-manager.so.1:_ZN11DScrollAreaC1EP7QWidget
libdde-file-manager.so.1:_ZN11DScrollAreaC2EP7QWidget
libdde-file-manager.so.1:_ZN11DTaskDialog10addTaskJobEPN16dde_file_manager16DFileCopyMoveJobE
libdde-file-manager.so.1:_ZN11DTaskDialog10adjustSizeEv
libdde-file-manager.so.1:_ZN11DTaskDialog10closeEventEP11QCloseEvent
libdde-file-manager.so.1:_ZN11DTaskDialog10removeTaskERK4QMapI7QStringS1_Eb
libdde-file-manager.so.1:_ZN11DTaskDialog11initConnectEv
libdde-file-manager.so.1:_ZN11DTaskDialog11moveYCenterEv
libdde-file-manager.so.1:_ZN11DTaskDialog11qt_metacallEN11QMetaObject4CallEiPPv
libdde-file-manager.so.1:_ZN11DTaskDialog11qt_metacastEPKc
libdde-file-manager.so.1:_ZN11DTaskDialog13conflictHidedERK4QMapI7QStringS1_E
libdde-file-manager.so.1:_ZN11DTaskDialog13keyPressEventEP9QKeyEvent
libdde-file-manager.so.1:_ZN11DTaskDialog13onItemHoveredERKb
libdde-file-manager.so.1:_ZN11DTaskDialog13removeTaskJobEPv
libdde-file-manager.so.1:_ZN11DTaskDialog14conflictShowedERK4QMapI7QStringS1_E
libdde-file-manager.so.1:_ZN11DTaskDialog15addConflictTaskERK4QMapI7QStringS1_E
libdde-file-manager.so.1:_ZN11DTaskDialog15delayRemoveTaskERK4QMapI7QStringS1_E
libdde-file-manager.so.1:_ZN11DTaskDialog15handleTaskCloseERK4QMapI7QStringS1_E
libdde-file-manager.so.1:_ZN11DTaskDialog16removeTaskByPathE7QString
libdde-file-manager.so.1:_ZN11DTaskDialog17getTaskListWidgetEv
libdde-file-manager.so.1:_ZN11DTaskDialog21removeTaskImmediatelyERK4QMapI7QStringS1_E
libdde-file-manager.so.1:_ZN11DTaskDialog22currentHoverRowChangedERKiRKbS1_
libdde-file-manager.so.1:_ZN11DTaskDialog22handleConflictResponseERK4QMapI7QStringS1_ERKS0_IS1_8QVariantE
libdde-file-manager.so.1:_ZN11DTaskDialog22handleUpdateTaskWidgetERK4QMapI7QStringS1_ES4_
libdde-file-manager.so.1:_ZN11DTaskDialog23showConflictDiloagByJobERK4QMapI7QStringS1_E
libdde-file-manager.so.1:_ZN11DTaskDialog25conflictRepsonseConfirmedERK4QMapI7QStringS1_ERKS0_IS1_8QVariantE
libdde-file-manager.so.1:_ZN11DTaskDialog25handleMinimizeButtonClickEv
libdde-file-manager.so.1:_ZN11DTaskDialog6closedEv
libdde-file-manager.so.1:_ZN11DTaskDialog6initUIEv
libdde-file-manager.so.1:_ZN11DTaskDialog7addTaskERK4QMapI7QStringS1_E
libdde-file-manager.so.1:_ZN11DTaskDialog8setTitleE7QString
libdde-file-manager.so.1:_ZN11DTaskDialog8setTitleEi
libdde-file-manager.so.1:_ZN11DTaskDialog9abortTaskERK4QMapI7QStringS1_E
libdde-file-manager.so.1:_ZN11DTaskDialogC1EP7QWidget
libdde-file-manager.so.1:_ZN11DTaskDialogC2EP7QWidget
libdde-file-manager.so.1:_ZN11DThreadUtil17FunctionCallProxy11qt_metacallEN11QMetaObject4CallEiPPv
libdde-file-manager.so.1:_ZN11DThreadUtil17FunctionCallProxy11qt_metacastEPKc
libdde-file-manager.so.1:_ZN11DThreadUtil17FunctionCallProxy16callInLiveThreadEPSt8functionIFvvEE
libdde-file-manager.so.1:_ZN11DThreadUtil17FunctionCallProxyC1EP7QThread
libdde-file-manager.so.1:_ZN11DThreadUtil17FunctionCallProxyC2EP7QThread
libdde-file-manager.so.1:_ZN11DebugObejctC1EP7QObject
libdde-file-manager.so.1:_ZN11DebugObejctC2EP7QObject
libdde-file-manager.so.1:_ZN11DesktopFileC1ERK7QString
libdde-file-manager.so.1:_ZN11DesktopFileC2ERK7QString
libdde-file-manager.so.1:_ZN11NetworkNode11setIconTypeERK7QString
libdde-file-manager.so.1:_ZN11NetworkNode14setDisplayNameERK7QString
libdde-file-manager.so.1:_ZN11NetworkNode6setUrlERK7QString
libdde-file-manager.so.1:_ZN11NetworkNodeC1Ev
libdde-file-manager.so.1:_ZN11NetworkNodeC2Ev
libdde-file-manager.so.1:_ZN11NetworkNodeD1Ev
libdde-file-manager.so.1:_ZN11NetworkNodeD2Ev
libdde-file-manager.so.1:_ZN11PathManager11qt_metacallEN11QMetaObject4CallEiPPv
libdde-file-manager.so.1:_ZN11PathManager11qt_metacastEPKc
libdde-file-manager.so.1:_ZN11PathManager13getSystemPathE7QString
libdde-file-manager.so.1:_ZN11PathManager15loadSystemPathsEv
libdde-file-manager.so.1:_ZN11PathManager21getSystemPathIconNameE7QString
libdde-file-manager.so.1:_ZN11PathManager27getSystemPathIconNameByPathE7QString
libdde-file-manager.so.1:_ZN11PathManager30getSystemPathDisplayNameByPathE7QString
libdde-file-manager.so.1:_ZN11PathManager6mkPathERK7QString
libdde-file-manager.so.1:_ZN11PathManager9initPathsEv
libdde-file-manager.so.1:_ZN11PathManagerC1EP7QObject
libdde-file-manager.so.1:_ZN11PathManagerC2EP7QObject
libdde-file-manager.so.1:_ZN11PathManagerD0Ev
libdde-file-manager.so.1:_ZN11PathManagerD1Ev
libdde-file-manager.so.1:_ZN11PathManagerD2Ev
libdde-file-manager.so.1:_ZN11TagFileInfo12makeAbsoluteEv
libdde-file-manager.so.1:_ZN11TagFileInfoC1ERK4DUrl
libdde-file-manager.so.1:_ZN11TagFileInfoC2ERK4DUrl
libdde-file-manager.so.1:_ZN12AVFSFileInfo10realDirUrlERK4DUrl
libdde-file-manager.so.1:_ZN12AVFSFileInfo11realFileUrlERK4DUrl
libdde-file-manager.so.1:_ZN12AVFSFileInfoC1ER19AVFSFileInfoPrivate
libdde-file-manager.so.1:_ZN12AVFSFileInfoC1ERK4DUrl
libdde-file-manager.so.1:_ZN12AVFSFileInfoC2ER19AVFSFileInfoPrivate
libdde-file-manager.so.1:_ZN12AVFSFileInfoC2ERK4DUrl
libdde-file-manager.so.1:_ZN12AVFSIterator4nextEv
libdde-file-manager.so.1:_ZN12AVFSIteratorC1ERK4DUrlRK11QStringList6QFlagsIN4QDir6FilterEES6_IN12QDirIterator12IteratorFlagEE
libdde-file-manager.so.1:_ZN12AVFSIteratorC2ERK4DUrlRK11QStringList6QFlagsIN4QDir6FilterEES6_IN12QDirIterator12IteratorFlagEE
libdde-file-manager.so.1:_ZN12AVFSIteratorD0Ev
libdde-file-manager.so.1:_ZN12AVFSIteratorD1Ev
libdde-file-manager.so.1:_ZN12AVFSIteratorD2Ev
libdde-file-manager.so.1:_ZN12ComputerView10mountAddedE28QExplicitlySharedDataPointerI15UDiskDeviceInfoE
libdde-file-manager.so.1:_ZN12ComputerView10setRootUrlERK4DUrl
libdde-file-manager.so.1:_ZN12ComputerView10shrinkIconEv
libdde-file-manager.so.1:_ZN12ComputerView10wheelEventEP11QWheelEvent
libdde-file-manager.so.1:_ZN12ComputerView11enlargeIconEv
libdde-file-manager.so.1:_ZN12ComputerView11initConnectEv
libdde-file-manager.so.1:_ZN12ComputerView11qt_metacallEN11QMetaObject4CallEiPPv
libdde-file-manager.so.1:_ZN12ComputerView11qt_metacastEPKc
libdde-file-manager.so.1:_ZN12ComputerView11resizeEventEP12QResizeEvent
libdde-file-manager.so.1:_ZN12ComputerView11volumeAddedE28QExplicitlySharedDataPointerI15UDiskDeviceInfoE
libdde-file-manager.so.1:_ZN12ComputerView12mountRemovedE28QExplicitlySharedDataPointerI15UDiskDeviceInfoE
libdde-file-manager.so.1:_ZN12ComputerView13keyPressEventEP9QKeyEvent
libdde-file-manager.so.1:_ZN12ComputerView13loadViewStateEv
libdde-file-manager.so.1:_ZN12ComputerView13onRequestEditERK15DFMUrlBaseEvent
libdde-file-manager.so.1:_ZN12ComputerView13saveViewStateEv
libdde-file-manager.so.1:_ZN12ComputerView13volumeRemovedE28QExplicitlySharedDataPointerI15UDiskDeviceInfoE
libdde-file-manager.so.1:_ZN12ComputerView14mouseMoveEventEP11QMouseEvent
libdde-file-manager.so.1:_ZN12ComputerView15loadCustomItemsEv
libdde-file-manager.so.1:_ZN12ComputerView15loadNativeItemsEv
libdde-file-manager.so.1:_ZN12ComputerView15loadSystemItemsEv
libdde-file-manager.so.1:_ZN12ComputerView15mousePressEventEP11QMouseEvent
libdde-file-manager.so.1:_ZN12ComputerView15updateStatusBarEv
libdde-file-manager.so.1:_ZN12ComputerView21updateItemBySizeIndexERKiP16ComputerViewItem
libdde-file-manager.so.1:_ZN12ComputerView22setIconSizeBySizeIndexEi
libdde-file-manager.so.1:_ZN12ComputerView23findDeviceViewItemByUrlERK4DUrl
libdde-file-manager.so.1:_ZN12ComputerView24loadCustomItemsByNameUrlERK7QStringS2_
libdde-file-manager.so.1:_ZN12ComputerView25resizeAllItemsBySizeIndexEi
libdde-file-manager.so.1:_ZN12ComputerView26updateComputerItemByDeviceE28QExplicitlySharedDataPointerI15UDiskDeviceInfoE
libdde-file-manager.so.1:_ZN12ComputerView6initUIEv
libdde-file-manager.so.1:_ZN12ComputerView6schemeEv
libdde-file-manager.so.1:_ZN12ComputerView8initDataEv
libdde-file-manager.so.1:_ZN12ComputerView9showEventEP10QShowEvent
libdde-file-manager.so.1:_ZN12ComputerViewC1EP7QWidget
libdde-file-manager.so.1:_ZN12ComputerViewC2EP7QWidget
libdde-file-manager.so.1:_ZN12ComputerViewD0Ev
libdde-file-manager.so.1:_ZN12ComputerViewD1Ev
libdde-file-manager.so.1:_ZN12ComputerViewD2Ev
libdde-file-manager.so.1:_ZN12DFMBackEvent8fromJsonERK11QJsonObject
libdde-file-manager.so.1:_ZN12DFMBackEventC1EPK7QObject
libdde-file-manager.so.1:_ZN12DFMBackEventC2EPK7QObject
libdde-file-manager.so.1:_ZN12DFileService10isRegistedERK7QStringS2_
libdde-file-manager.so.1:_ZN12DFileService10isRegistedERK7QStringS2_RKSt9type_info
libdde-file-manager.so.1:_ZN12DFileService11qt_metacallEN11QMetaObject4CallEiPPv
libdde-file-manager.so.1:_ZN12DFileService11qt_metacastEPKc
libdde-file-manager.so.1:_ZN12DFileService11shareFolderEPK7QObjectRK4DUrlRK7QStringbb
libdde-file-manager.so.1:_ZN12DFileService16createFileDeviceEPK7QObjectRK4DUrl
libdde-file-manager.so.1:_ZN12DFileService17createFileHandlerEPK7QObjectRK4DUrl
libdde-file-manager.so.1:_ZN12DFileService17createStorageInfoEPK7QObjectRK4DUrl
libdde-file-manager.so.1:_ZN12DFileService17setFileUrlHandlerERK7QStringS2_P23DAbstractFileController
libdde-file-manager.so.1:_ZN12DFileService18getSymlinkFileNameERK4DUrlRK4QDir
libdde-file-manager.so.1:_ZN12DFileService19clearFileUrlHandlerERK7QStringS2_
libdde-file-manager.so.1:_ZN12DFileService19getHandlerTypeByUrlERK4DUrlbb
libdde-file-manager.so.1:_ZN12DFileService19insertToCreatorHashERK5QPairI7QStringS1_ERKS0_IS1_St8functionIFP23DAbstractFileControllervEEE
libdde-file-manager.so.1:_ZN12DFileService19unsetFileUrlHandlerEP23DAbstractFileController
libdde-file-manager.so.1:_ZN12DFileService22initHandlersByCreatorsEv
libdde-file-manager.so.1:_ZN12DFileService29checkMultiSelectionFilesCacheEv
libdde-file-manager.so.1:_ZN12DFileService7fmEventERK14QSharedPointerI8DFMEventEP8QVariant
libdde-file-manager.so.1:_ZN12DFileService8instanceEv
libdde-file-manager.so.1:_ZN12DFileServiceC1EP7QObject
libdde-file-manager.so.1:_ZN12DFileServiceC2EP7QObject
libdde-file-manager.so.1:_ZN12DFileServiceD0Ev
libdde-file-manager.so.1:_ZN12DFileServiceD1Ev
libdde-file-manager.so.1:_ZN12DFileServiceD2Ev
libdde-file-manager.so.1:_ZN12DFileWatcher11onFileMovedERK7QStringS2_S2_S2_
libdde-file-manager.so.1:_ZN12DFileWatcher11qt_metacallEN11QMetaObject4CallEiPPv
libdde-file-manager.so.1:_ZN12DFileWatcher11qt_metacastEPKc
libdde-file-manager.so.1:_ZN12DFileWatcher12onFileClosedERK7QStringS2_
libdde-file-manager.so.1:_ZN12DFileWatcher13onFileCreatedERK7QStringS2_
libdde-file-manager.so.1:_ZN12DFileWatcher13onFileDeletedERK7QStringS2_
libdde-file-manager.so.1:_ZN12DFileWatcher14onFileModifiedERK7QStringS2_
libdde-file-manager.so.1:_ZN12DFileWatcher15getMonitorFilesEv
libdde-file-manager.so.1:_ZN12DFileWatcher22onFileAttributeChangedERK7QStringS2_
libdde-file-manager.so.1:_ZN12DFileWatcherC1ERK7QStringP7QObject
libdde-file-manager.so.1:_ZN12DFileWatcherC2ERK7QStringP7QObject
libdde-file-manager.so.1:_ZN12DHoverButton10enterEventEP6QEvent
libdde-file-manager.so.1:_ZN12DHoverButton10leaveEventEP6QEvent
libdde-file-manager.so.1:_ZN12DHoverButton11qt_metacallEN11QMetaObject4CallEiPPv
libdde-file-manager.so.1:_ZN12DHoverButton11qt_metacastEPKc
libdde-file-manager.so.1:_ZN12DHoverButton15mousePressEventEP11QMouseEvent
libdde-file-manager.so.1:_ZN12DHoverButton6initUIEv
libdde-file-manager.so.1:_ZN12DHoverButton7setMenuEP9DFileMenu
libdde-file-manager.so.1:_ZN12DHoverButtonC1ERK7QStringS2_P7QWidget
libdde-file-manager.so.1:_ZN12DHoverButtonC2ERK7QStringS2_P7QWidget
libdde-file-manager.so.1:_ZN12DQuickSearch10create_lftERK7QString
libdde-file-manager.so.1:_ZN12DQuickSearch10isFilteredERK4DUrl
libdde-file-manager.so.1:_ZN12DQuickSearch11createCacheEv
libdde-file-manager.so.1:_ZN12DQuickSearch11isUsbDeviceERK7QString
libdde-file-manager.so.1:_ZN12DQuickSearch11qt_metacallEN11QMetaObject4CallEiPPv
libdde-file-manager.so.1:_ZN12DQuickSearch11qt_metacastEPKc
libdde-file-manager.so.1:_ZN12DQuickSearch12onMountAddedERK7QStringRK10QByteArray
libdde-file-manager.so.1:_ZN12DQuickSearch13count_adler32ERK7QString
libdde-file-manager.so.1:_ZN12DQuickSearch13filter_resultERK5QListI7QStringERK10QByteArray
libdde-file-manager.so.1:_ZN12DQuickSearch14onMountRemovedERK7QStringRK10QByteArray
libdde-file-manager.so.1:_ZN12DQuickSearch16filesWereCreatedERK5QListI10QByteArrayE
libdde-file-manager.so.1:_ZN12DQuickSearch16filesWereDeletedERK5QListI10QByteArrayE
libdde-file-manager.so.1:_ZN12DQuickSearch16filesWereRenamedERK5QListI5QPairI10QByteArrayS2_EE
libdde-file-manager.so.1:_ZN12DQuickSearch18read_adler32_valueERK7QString
libdde-file-manager.so.1:_ZN12DQuickSearch19cache_every_partionEv
libdde-file-manager.so.1:_ZN12DQuickSearch19getDevAndMountPointERK7QString
libdde-file-manager.so.1:_ZN12DQuickSearch19store_adler32_valueERK7QStringRKm
libdde-file-manager.so.1:_ZN12DQuickSearch21initialize_connectionEv
libdde-file-manager.so.1:_ZN12DQuickSearch24onAutoInnerIndexesClosedEv
libdde-file-manager.so.1:_ZN12DQuickSearch24onAutoInnerIndexesOpenedEv
libdde-file-manager.so.1:_ZN12DQuickSearch28onAutoRemovableIndexesClosedEv
libdde-file-manager.so.1:_ZN12DQuickSearch28onAutoRemovableIndexesOpenedEv
libdde-file-manager.so.1:_ZN12DQuickSearch6searchERK7QStringS2_
libdde-file-manager.so.1:_ZN12DQuickSearchC1EP7QObject
libdde-file-manager.so.1:_ZN12DQuickSearchC2EP7QObject
libdde-file-manager.so.1:_ZN12DRoundButton10enterEventEP6QEvent
libdde-file-manager.so.1:_ZN12DRoundButton10leaveEventEP6QEvent
libdde-file-manager.so.1:_ZN12DRoundButton10paintEventEP11QPaintEvent
libdde-file-manager.so.1:_ZN12DRoundButton10setCheckedEb
libdde-file-manager.so.1:_ZN12DRoundButton10setRadiusFERKd
libdde-file-manager.so.1:_ZN12DRoundButton11qt_metacallEN11QMetaObject4CallEiPPv
libdde-file-manager.so.1:_ZN12DRoundButton11qt_metacastEPKc
libdde-file-manager.so.1:_ZN12DRoundButton12setCheckableEb
libdde-file-manager.so.1:_ZN12DRoundButton14checkedChangedEv
libdde-file-manager.so.1:_ZN12DRoundButton14setPaintStatusENS_11PaintStatusE
libdde-file-manager.so.1:_ZN12DRoundButton15mousePressEventEP11QMouseEvent
libdde-file-manager.so.1:_ZN12DRoundButton17mouseReleaseEventEP11QMouseEvent
libdde-file-manager.so.1:_ZN12DRoundButton5clickE6QColor
libdde-file-manager.so.1:_ZN12DRoundButton5enterEv
libdde-file-manager.so.1:_ZN12DRoundButton5leaveEv
libdde-file-manager.so.1:_ZN12DRoundButton9setRadiusERKm
libdde-file-manager.so.1:_ZN12DRoundButtonC1ERKSt16initializer_listI5QPairI6QColorS2_EEP7QWidget
libdde-file-manager.so.1:_ZN12DRoundButtonC2ERKSt16initializer_listI5QPairI6QColorS2_EEP7QWidget
libdde-file-manager.so.1:_ZN12DStateButton11qt_metacallEN11QMetaObject4CallEiPPv
libdde-file-manager.so.1:_ZN12DStateButton11qt_metacastEPKc
libdde-file-manager.so.1:_ZN12DStateButton13setAStateIconEv
libdde-file-manager.so.1:_ZN12DStateButton13setBStateIconEv
libdde-file-manager.so.1:_ZN12DStateButton14getButtonStateEv
libdde-file-manager.so.1:_ZN12DStateButton14setButtonStateENS_11ButtonStateE
libdde-file-manager.so.1:_ZN12DStateButton15toogleStateIConEv
libdde-file-manager.so.1:_ZN12DStateButtonC1ERK7QStringP7QWidget
libdde-file-manager.so.1:_ZN12DStateButtonC1ERK7QStringS2_P7QWidget
libdde-file-manager.so.1:_ZN12DStateButtonC2ERK7QStringP7QWidget
libdde-file-manager.so.1:_ZN12DStateButtonC2ERK7QStringS2_P7QWidget
libdde-file-manager.so.1:_ZN12DStateButtonD0Ev
libdde-file-manager.so.1:_ZN12DStateButtonD1Ev
libdde-file-manager.so.1:_ZN12DStateButtonD2Ev
libdde-file-manager.so.1:_ZN12ExpandedItem11qt_metacallEN11QMetaObject4CallEiPPv
libdde-file-manager.so.1:_ZN12ExpandedItem11qt_metacastEPKc
libdde-file-manager.so.1:_ZN12FileIconItem10setOpacityEd
libdde-file-manager.so.1:_ZN12FileIconItem11eventFilterEP7QObjectP6QEvent
libdde-file-manager.so.1:_ZN12FileIconItem11qt_metacallEN11QMetaObject4CallEiPPv
libdde-file-manager.so.1:_ZN12FileIconItem11qt_metacastEPKc
libdde-file-manager.so.1:_ZN12FileIconItem13inputFocusOutEv
libdde-file-manager.so.1:_ZN12FileIconItem14setBorderColorE6QColor
libdde-file-manager.so.1:_ZN12FileIconItem14setMaxCharSizeEi
libdde-file-manager.so.1:_ZN12FileIconItem16updateStyleSheetEv
libdde-file-manager.so.1:_ZN12FileIconItem17editTextStackBackEv
libdde-file-manager.so.1:_ZN12FileIconItem18borderColorChangedE6QColor
libdde-file-manager.so.1:_ZN12FileIconItem20editTextStackAdvanceEv
libdde-file-manager.so.1:_ZN12FileIconItem20popupEditContentMenuEv
libdde-file-manager.so.1:_ZN12FileIconItem20updateEditorGeometryEv
libdde-file-manager.so.1:_ZN12FileIconItem23pushItemToEditTextStackERK7QString
libdde-file-manager.so.1:_ZN12FileIconItem5eventEP6QEvent
libdde-file-manager.so.1:_ZN12FileIconItem8editRedoEv
libdde-file-manager.so.1:_ZN12FileIconItem8editUndoEv
libdde-file-manager.so.1:_ZN12FileIconItemC1EP7QWidget
libdde-file-manager.so.1:_ZN12FileIconItemC2EP7QWidget
libdde-file-manager.so.1:_ZN12HistoryStack12currentIndexEv
libdde-file-manager.so.1:_ZN12HistoryStack12setThresholdEi
libdde-file-manager.so.1:_ZN12HistoryStack4backEv
libdde-file-manager.so.1:_ZN12HistoryStack4sizeEv
libdde-file-manager.so.1:_ZN12HistoryStack6appendE4DUrl
libdde-file-manager.so.1:_ZN12HistoryStack6isLastEv
libdde-file-manager.so.1:_ZN12HistoryStack7forwardEv
libdde-file-manager.so.1:_ZN12HistoryStack7isFirstEv
libdde-file-manager.so.1:_ZN12HistoryStack8removeAtEi
libdde-file-manager.so.1:_ZN12HistoryStackC1Ei
libdde-file-manager.so.1:_ZN12HistoryStackC2Ei
libdde-file-manager.so.1:_ZN12NameTextEdit11qt_metacallEN11QMetaObject4CallEiPPv
libdde-file-manager.so.1:_ZN12NameTextEdit11qt_metacastEPKc
libdde-file-manager.so.1:_ZN12NameTextEdit12editFinishedEv
libdde-file-manager.so.1:_ZN12NameTextEdit12setPlainTextERK7QString
libdde-file-manager.so.1:_ZN12NameTextEdit13focusOutEventEP11QFocusEvent
libdde-file-manager.so.1:_ZN12NameTextEdit13keyPressEventEP9QKeyEvent
libdde-file-manager.so.1:_ZN12NameTextEdit13setIsCanceledEb
libdde-file-manager.so.1:_ZN12NameTextEditC1ERK7QStringP7QWidget
libdde-file-manager.so.1:_ZN12NameTextEditC2ERK7QStringP7QWidget
libdde-file-manager.so.1:_ZN12PixmapWidget10paintEventEP11QPaintEvent
libdde-file-manager.so.1:_ZN12PixmapWidget13dragMoveEventEP14QDragMoveEvent
libdde-file-manager.so.1:_ZN12PixmapWidget14dragEnterEventEP15QDragEnterEvent
libdde-file-manager.so.1:_ZN12PixmapWidget9setPixmapERK7QPixmap
libdde-file-manager.so.1:_ZN12PixmapWidgetC1Ev
libdde-file-manager.so.1:_ZN12PixmapWidgetC2Ev
libdde-file-manager.so.1:_ZN12ProgressLine10paintEventEP11QPaintEvent
libdde-file-manager.so.1:_ZN12ProgressLine11qt_metacallEN11QMetaObject4CallEiPPv
libdde-file-manager.so.1:_ZN12ProgressLine11qt_metacastEPKc
libdde-file-manager.so.1:_ZN12ProgressLine14setRoundRadiusEi
libdde-file-manager.so.1:_ZN12ProgressLine6setMaxERKd
libdde-file-manager.so.1:_ZN12ProgressLine6setMinERKd
libdde-file-manager.so.1:_ZN12ProgressLine8setValueERKd
libdde-file-manager.so.1:_ZN12ProgressLineC1EP7QWidget
libdde-file-manager.so.1:_ZN12ProgressLineC2EP7QWidget
libdde-file-manager.so.1:_ZN12TrashManager11qt_metacallEN11QMetaObject4CallEiPPv
libdde-file-manager.so.1:_ZN12TrashManager11qt_metacastEPKc
libdde-file-manager.so.1:_ZN12TrashManager16restoreTrashFileERK5QListI4DUrlEPS2_
libdde-file-manager.so.1:_ZN12TrashManager17trashFilesChangedERK4DUrl
libdde-file-manager.so.1:_ZN12TrashManager7isEmptyEv
libdde-file-manager.so.1:_ZN12TrashManagerC1EP7QObject
libdde-file-manager.so.1:_ZN12TrashManagerC2EP7QObject
libdde-file-manager.so.1:_ZN13AppController10actionBackEy
libdde-file-manager.so.1:_ZN13AppController10actionCopyERK14QSharedPointerI19DFMUrlListBaseEventE
libdde-file-manager.so.1:_ZN13AppController10actionExitEy
libdde-file-manager.so.1:_ZN13AppController10actionHelpEv
libdde-file-manager.so.1:_ZN13AppController10actionOpenERK14QSharedPointerI19DFMUrlListBaseEventE
libdde-file-manager.so.1:_ZN13AppController10createFileERK7QStringS2_S2_y
libdde-file-manager.so.1:_ZN13AppController11actionAboutEy
libdde-file-manager.so.1:_ZN13AppController11actionEjectERK14QSharedPointerI15DFMUrlBaseEventE
libdde-file-manager.so.1:_ZN13AppController11actionMountERK14QSharedPointerI15DFMUrlBaseEventE
libdde-file-manager.so.1:_ZN13AppController11actionPasteERK14QSharedPointerI15DFMUrlBaseEventE
libdde-file-manager.so.1:_ZN13AppController11actionShareERK14QSharedPointerI19DFMUrlListBaseEventE
libdde-file-manager.so.1:_ZN13AppController11actionctrlFEy
libdde-file-manager.so.1:_ZN13AppController11actionctrlLEy
libdde-file-manager.so.1:_ZN13AppController11initConnectEv
libdde-file-manager.so.1:_ZN13AppController11qt_metacallEN11QMetaObject4CallEiPPv
libdde-file-manager.so.1:_ZN13AppController11qt_metacastEPKc
libdde-file-manager.so.1:_ZN13AppController11showTagEditERK6QPointRK5QListI4DUrlE
libdde-file-manager.so.1:_ZN13AppController12actionDeleteERK14QSharedPointerI19DFMUrlListBaseEventE
libdde-file-manager.so.1:_ZN13AppController12actionRenameERK14QSharedPointerI19DFMUrlListBaseEventE
libdde-file-manager.so.1:_ZN13AppController12asycOpenDiskERK7QString
libdde-file-manager.so.1:_ZN13AppController13actionForwardEy
libdde-file-manager.so.1:_ZN13AppController13actionNewTextERK14QSharedPointerI15DFMUrlBaseEventE
libdde-file-manager.so.1:_ZN13AppController13actionNewWordERK14QSharedPointerI15DFMUrlBaseEventE
libdde-file-manager.so.1:_ZN13AppController13actionRestoreERK14QSharedPointerI19DFMUrlListBaseEventE
libdde-file-manager.so.1:_ZN13AppController13actionUnShareERK14QSharedPointerI15DFMUrlBaseEventE
libdde-file-manager.so.1:_ZN13AppController13actionUnmountERK14QSharedPointerI15DFMUrlBaseEventE
libdde-file-manager.so.1:_ZN13AppController14actionCompressERK14QSharedPointerI19DFMUrlListBaseEventE
libdde-file-manager.so.1:_ZN13AppController14actionNewExcelERK14QSharedPointerI15DFMUrlBaseEventE
libdde-file-manager.so.1:_ZN13AppController14actionOpenDiskERK14QSharedPointerI15DFMUrlBaseEventE
libdde-file-manager.so.1:_ZN13AppController14actionPropertyERK14QSharedPointerI19DFMUrlListBaseEventE
libdde-file-manager.so.1:_ZN13AppController14actionSettingsEy
libdde-file-manager.so.1:_ZN13AppController15actionNewFolderERK14QSharedPointerI15DFMUrlBaseEventE
libdde-file-manager.so.1:_ZN13AppController15actionNewWindowERK14QSharedPointerI19DFMUrlListBaseEventE
libdde-file-manager.so.1:_ZN13AppController15actionSelectAllEy
libdde-file-manager.so.1:_ZN13AppController16actionClearTrashEPK7QObject
libdde-file-manager.so.1:_ZN13AppController16actionDecompressERK14QSharedPointerI19DFMUrlListBaseEventE
libdde-file-manager.so.1:_ZN13AppController16actionRestoreAllERK14QSharedPointerI15DFMUrlBaseEventE
libdde-file-manager.so.1:_ZN13AppController17actionClearRecentERK14QSharedPointerI18DFMMenuActionEventE
libdde-file-manager.so.1:_ZN13AppController17actionOpenAsAdminERK14QSharedPointerI15DFMUrlBaseEventE
libdde-file-manager.so.1:_ZN13AppController17createGVfSManagerEv
libdde-file-manager.so.1:_ZN13AppController17registerUrlHandleEv
libdde-file-manager.so.1:_ZN13AppController18actionFormatDeviceERK14QSharedPointerI15DFMUrlBaseEventE
libdde-file-manager.so.1:_ZN13AppController18actionOpenInNewTabERK14QSharedPointerI15DFMUrlBaseEventE
libdde-file-manager.so.1:_ZN13AppController18doSubscriberActionERK7QString
libdde-file-manager.so.1:_ZN13AppController19actionAddToBookMarkERK14QSharedPointerI15DFMUrlBaseEventE
libdde-file-manager.so.1:_ZN13AppController19actionCreateSymlinkERK14QSharedPointerI15DFMUrlBaseEventE
libdde-file-manager.so.1:_ZN13AppController19actionNewPowerpointERK14QSharedPointerI15DFMUrlBaseEventE
libdde-file-manager.so.1:_ZN13AppController19actionOpenFileByAppEv
libdde-file-manager.so.1:_ZN13AppController19actionSendToDesktopERK14QSharedPointerI19DFMUrlListBaseEventE
libdde-file-manager.so.1:_ZN13AppController19createDBusInterfaceEv
libdde-file-manager.so.1:_ZN13AppController20actionBookmarkRemoveERK14QSharedPointerI15DFMUrlBaseEventE
libdde-file-manager.so.1:_ZN13AppController20actionBookmarkRenameERK14QSharedPointerI15DFMUrlBaseEventE
libdde-file-manager.so.1:_ZN13AppController20actionChangeTagColorERK14QSharedPointerI22DFMChangeTagColorEventE
libdde-file-manager.so.1:_ZN13AppController20actionDecompressHereERK14QSharedPointerI19DFMUrlListBaseEventE
libdde-file-manager.so.1:_ZN13AppController20actionForgetPasswordERK14QSharedPointerI15DFMUrlBaseEventE
libdde-file-manager.so.1:_ZN13AppController20actionOpenInTerminalERK14QSharedPointerI19DFMUrlListBaseEventE
libdde-file-manager.so.1:_ZN13AppController20actionOpenWithCustomERK14QSharedPointerI15DFMUrlBaseEventE
libdde-file-manager.so.1:_ZN13AppController20actionSetAsWallpaperERK14QSharedPointerI15DFMUrlBaseEventE
libdde-file-manager.so.1:_ZN13AppController20actionShowHotkeyHelpEy
libdde-file-manager.so.1:_ZN13AppController20asycOpenDiskInNewTabERK7QString
libdde-file-manager.so.1:_ZN13AppController21actionOpenInNewWindowERK14QSharedPointerI19DFMUrlListBaseEventE
libdde-file-manager.so.1:_ZN13AppController22actionCompleteDeletionERK14QSharedPointerI19DFMUrlListBaseEventE
libdde-file-manager.so.1:_ZN13AppController22actionOpenDiskInNewTabERK14QSharedPointerI15DFMUrlBaseEventE
libdde-file-manager.so.1:_ZN13AppController22actionOpenFileLocationERK14QSharedPointerI19DFMUrlListBaseEventE
libdde-file-manager.so.1:_ZN13AppController22actionRemoveTagsOfFileERK14QSharedPointerI24DFMRemoveTagsOfFileEventE
libdde-file-manager.so.1:_ZN13AppController22createUserShareManagerEv
libdde-file-manager.so.1:_ZN13AppController23actionExitCurrentWindowEy
libdde-file-manager.so.1:_ZN13AppController23actionSafelyRemoveDriveERK14QSharedPointerI15DFMUrlBaseEventE
libdde-file-manager.so.1:_ZN13AppController23asycOpenDiskInNewWindowERK7QString
libdde-file-manager.so.1:_ZN13AppController24setHasLaunchAppInterfaceEb
libdde-file-manager.so.1:_ZN13AppController25actionGetTagsThroughFilesERK14QSharedPointerI27DFMGetTagsThroughFilesEventE
libdde-file-manager.so.1:_ZN13AppController25actionOpenDiskInNewWindowERK14QSharedPointerI15DFMUrlBaseEventE
libdde-file-manager.so.1:_ZN13AppController25actionSendToRemovableDiskEv
libdde-file-manager.so.1:_ZN13AppController26actionSetUserSharePasswordEy
libdde-file-manager.so.1:_ZN13AppController8instanceEv
libdde-file-manager.so.1:_ZN13AppController9actionCutERK14QSharedPointerI19DFMUrlListBaseEventE
libdde-file-manager.so.1:_ZN13AppControllerC1EP7QObject
libdde-file-manager.so.1:_ZN13AppControllerC2EP7QObject
libdde-file-manager.so.1:_ZN13DFMDeviceInfo14attachedDeviceEv
libdde-file-manager.so.1:_ZN13DFMDeviceInfo16setVfsDeviceInfoERK4DUrl
libdde-file-manager.so.1:_ZN13DFMDeviceInfo20setUdisks2DeviceInfoERK7QString
libdde-file-manager.so.1:_ZN13DFMDeviceInfoC1ERK4DUrl
libdde-file-manager.so.1:_ZN13DFMDeviceInfoC1Ev
libdde-file-manager.so.1:_ZN13DFMDeviceInfoC2ERK4DUrl
libdde-file-manager.so.1:_ZN13DFMDeviceInfoC2Ev
libdde-file-manager.so.1:_ZN13DFMHeaderView11qt_metacallEN11QMetaObject4CallEiPPv
libdde-file-manager.so.1:_ZN13DFMHeaderView11qt_metacastEPKc
libdde-file-manager.so.1:_ZN13DFMHeaderView11resizeEventEP12QResizeEvent
libdde-file-manager.so.1:_ZN13DFMHeaderView11viewResizedEv
libdde-file-manager.so.1:_ZN13DFMHeaderView13mouseReleasedEv
libdde-file-manager.so.1:_ZN13DFMHeaderView17mouseReleaseEventEP11QMouseEvent
libdde-file-manager.so.1:_ZN13DFMHeaderViewC1EN2Qt11OrientationEP7QWidget
libdde-file-manager.so.1:_ZN13DFMHeaderViewC2EN2Qt11OrientationEP7QWidget
libdde-file-manager.so.1:_ZN13DFMMkdirEvent8fromJsonERK11QJsonObject
libdde-file-manager.so.1:_ZN13DFMMkdirEventC1EPK7QObjectRK4DUrl
libdde-file-manager.so.1:_ZN13DFMMkdirEventC2EPK7QObjectRK4DUrl
libdde-file-manager.so.1:_ZN13DFMPasteEvent8fromJsonERK11QJsonObject
libdde-file-manager.so.1:_ZN13DFMPasteEventC1EPK7QObjectN9DFMGlobal15ClipboardActionERK4DUrlRK5QListIS5_E
libdde-file-manager.so.1:_ZN13DFMPasteEventC2EPK7QObjectN9DFMGlobal15ClipboardActionERK4DUrlRK5QListIS5_E
libdde-file-manager.so.1:_ZN13DFileMenuData11initActionsEv
libdde-file-manager.so.1:_ZN13DFileMenuData21recycleUserActionTypeEN9DFMGlobal10MenuActionE
libdde-file-manager.so.1:_ZN13DFileMenuData27takeAvailableUserActionTypeEv
libdde-file-manager.so.1:_ZN13DFileMenuData8initDataEv
libdde-file-manager.so.1:_ZN13DSqliteHandle10addNewTagsERK8QVariant
libdde-file-manager.so.1:_ZN13DSqliteHandle10deleteTagsERK8QVariant
libdde-file-manager.so.1:_ZN13DSqliteHandle10execSqlstrILNS_7SqlTypeE11EbEET0_RK4QMapI7QString5QListIS4_EE
libdde-file-manager.so.1:_ZN13DSqliteHandle10execSqlstrILNS_7SqlTypeE13EbEET0_RK4QMapI7QString5QListIS4_EE
libdde-file-manager.so.1:_ZN13DSqliteHandle10execSqlstrILNS_7SqlTypeE15EbEET0_RK4QMapI7QString5QListIS4_EE
libdde-file-manager.so.1:_ZN13DSqliteHandle10execSqlstrILNS_7SqlTypeE18E5QListI7QStringEEET0_RK4QMapIS3_S4_E
libdde-file-manager.so.1:_ZN13DSqliteHandle10execSqlstrILNS_7SqlTypeE19E5QListI7QStringEEET0_RK4QMapIS3_S4_E
libdde-file-manager.so.1:_ZN13DSqliteHandle10execSqlstrILNS_7SqlTypeE1EbEET0_RK4QMapI7QString5QListIS4_EE
libdde-file-manager.so.1:_ZN13DSqliteHandle10execSqlstrILNS_7SqlTypeE20E5QListI7QStringEEET0_RK4QMapIS3_S4_E
libdde-file-manager.so.1:_ZN13DSqliteHandle10execSqlstrILNS_7SqlTypeE21EbEET0_RK4QMapI7QString5QListIS4_EE
libdde-file-manager.so.1:_ZN13DSqliteHandle10execSqlstrILNS_7SqlTypeE22EbEET0_RK4QMapI7QString5QListIS4_EE
libdde-file-manager.so.1:_ZN13DSqliteHandle10execSqlstrILNS_7SqlTypeE24E4QMapI7QString8QVariantEEET0_RKS2_IS3_5QListIS3_EE
libdde-file-manager.so.1:_ZN13DSqliteHandle10execSqlstrILNS_7SqlTypeE25E4QMapI7QString8QVariantEEET0_RKS2_IS3_5QListIS3_EE
libdde-file-manager.so.1:_ZN13DSqliteHandle10execSqlstrILNS_7SqlTypeE26EbEET0_RK4QMapI7QString5QListIS4_EE
libdde-file-manager.so.1:_ZN13DSqliteHandle10execSqlstrILNS_7SqlTypeE2EbEET0_RK4QMapI7QString5QListIS4_EE
libdde-file-manager.so.1:_ZN13DSqliteHandle10execSqlstrILNS_7SqlTypeE5EbEET0_RK4QMapI7QString5QListIS4_EE
libdde-file-manager.so.1:_ZN13DSqliteHandle10execSqlstrILNS_7SqlTypeE9EbEET0_RK4QMapI7QString5QListIS4_EE
libdde-file-manager.so.1:_ZN13DSqliteHandle10untagFilesERK4QMapI7QString8QVariantE
libdde-file-manager.so.1:_ZN13DSqliteHandle11helpExecSqlILNS_7SqlTypeE10ENSt7__cxx114listI7QStringSaIS4_EEE4QMapIS4_5QListIS4_EEEET1_RKT0_RKS4_
libdde-file-manager.so.1:_ZN13DSqliteHandle11helpExecSqlILNS_7SqlTypeE11ENSt7__cxx114listISt5tupleIJ7QStringS5_S5_S5_EESaIS6_EEEbEET1_RKT0_RKS5_
libdde-file-manager.so.1:_ZN13DSqliteHandle11helpExecSqlILNS_7SqlTypeE12E4QMapI7QString5QListIS3_EEbEET1_RKT0_RKS3_
libdde-file-manager.so.1:_ZN13DSqliteHandle11helpExecSqlILNS_7SqlTypeE13ESt3mapI7QStringS3_St4lessIS3_ESaISt4pairIKS3_S3_EEEbEET1_RKT0_RS7_
libdde-file-manager.so.1:_ZN13DSqliteHandle11helpExecSqlILNS_7SqlTypeE14ESt3mapI7QStringS3_St4lessIS3_ESaISt4pairIKS3_S3_EEE4QMapIS3_5QListIS3_EEEET1_RKT0_RS7_
libdde-file-manager.so.1:_ZN13DSqliteHandle11helpExecSqlILNS_7SqlTypeE15ENSt7__cxx114listISt5tupleIJ7QStringS5_S5_S5_S5_S5_EESaIS6_EEEbEET1_RKT0_RKS5_
libdde-file-manager.so.1:_ZN13DSqliteHandle11helpExecSqlILNS_7SqlTypeE17E7QStringbEET1_RKT0_RKS2_
libdde-file-manager.so.1:_ZN13DSqliteHandle11helpExecSqlILNS_7SqlTypeE18E7QString5QListIS2_EEET1_RKT0_RKS2_
libdde-file-manager.so.1:_ZN13DSqliteHandle11helpExecSqlILNS_7SqlTypeE19E7QString5QListIS2_EEET1_RKT0_RKS2_
libdde-file-manager.so.1:_ZN13DSqliteHandle11helpExecSqlILNS_7SqlTypeE22ENSt7__cxx114listI7QStringSaIS4_EEEbEET1_RKT0_RKS4_
libdde-file-manager.so.1:_ZN13DSqliteHandle11helpExecSqlILNS_7SqlTypeE23E4QMapI7QString5QListIS3_EEbEET1_RKT0_RKS3_
libdde-file-manager.so.1:_ZN13DSqliteHandle11helpExecSqlILNS_7SqlTypeE2E4QMapI7QString5QListIS3_EEbEET1_RKT0_RKS3_
libdde-file-manager.so.1:_ZN13DSqliteHandle11helpExecSqlILNS_7SqlTypeE3E4QMapI7QString5QListIS3_EEbEET1_RKT0_RKS3_
libdde-file-manager.so.1:_ZN13DSqliteHandle11helpExecSqlILNS_7SqlTypeE4E5QListI7QStringEbEET1_RKT0_RKS3_
libdde-file-manager.so.1:_ZN13DSqliteHandle11helpExecSqlILNS_7SqlTypeE5ENSt7__cxx114listI7QStringSaIS4_EEEbEET1_RKT0_RKS4_
libdde-file-manager.so.1:_ZN13DSqliteHandle11helpExecSqlILNS_7SqlTypeE6E4QMapI7QString5QListIS3_EEbEET1_RKT0_RKS3_
libdde-file-manager.so.1:_ZN13DSqliteHandle11helpExecSqlILNS_7SqlTypeE7E5QListI7QStringEbEET1_RKT0_RKS3_
libdde-file-manager.so.1:_ZN13DSqliteHandle11helpExecSqlILNS_7SqlTypeE8E5QListI7QStringE4QMapIS3_S4_EEET1_RKT0_RKS3_
libdde-file-manager.so.1:_ZN13DSqliteHandle11helpExecSqlILNS_7SqlTypeE9ENSt7__cxx114listI7QStringSaIS4_EEEbEET1_RKT0_RKS4_
libdde-file-manager.so.1:_ZN13DSqliteHandle11qt_metacallEN11QMetaObject4CallEiPPv
libdde-file-manager.so.1:_ZN13DSqliteHandle11qt_metacastEPKc
libdde-file-manager.so.1:_ZN13DSqliteHandle12onMountAddedE28QExplicitlySharedDataPointerI15UDiskDeviceInfoE
libdde-file-manager.so.1:_ZN13DSqliteHandle13changeTagNameERK4QMapI7QString8QVariantE
libdde-file-manager.so.1:_ZN13DSqliteHandle14changeTagColorERK4QMapI7QString8QVariantE
libdde-file-manager.so.1:_ZN13DSqliteHandle14onMountRemovedE28QExplicitlySharedDataPointerI15UDiskDeviceInfoE
libdde-file-manager.so.1:_ZN13DSqliteHandle15connectToSqliteERK7QStringS2_
libdde-file-manager.so.1:_ZN13DSqliteHandle15filesWereTaggedERK4QMapI7QString8QVariantE
libdde-file-manager.so.1:_ZN13DSqliteHandle17disposeClientDataERK4QMapI7QString5QListIS1_EERKy
libdde-file-manager.so.1:_ZN13DSqliteHandle17initializeConnectEv
libdde-file-manager.so.1:_ZN13DSqliteHandle18restoreEscapedCharERK7QString
libdde-file-manager.so.1:_ZN13DSqliteHandle19getMountPointOfFileE4DUrlRSt10unique_ptrISt3mapI7QStringSt8multimapIS3_S3_St4lessIS3_ESaISt4pairIKS3_S3_EEES6_SaIS7_IS8_SB_EEESt14default_deleteISE_EE
libdde-file-manager.so.1:_ZN13DSqliteHandle26queryPartionsInfoOfDevicesEv
libdde-file-manager.so.1:_ZN13DSqliteHandle30checkWhetherHasSqliteInPartionERK7QStringS2_
libdde-file-manager.so.1:_ZN13DSqliteHandle8instanceEv
libdde-file-manager.so.1:_ZN13DSqliteHandleC1EP7QObject
libdde-file-manager.so.1:_ZN13DSqliteHandleC2EP7QObject
libdde-file-manager.so.1:_ZN13DialogManager11initConnectEv
libdde-file-manager.so.1:_ZN13DialogManager11qt_metacallEN11QMetaObject4CallEiPPv
libdde-file-manager.so.1:_ZN13DialogManager11qt_metacastEPKc
libdde-file-manager.so.1:_ZN13DialogManager13removeAllJobsEv
libdde-file-manager.so.1:_ZN13DialogManager14getPerportyPosEiiii
libdde-file-manager.so.1:_ZN13DialogManager14initTaskDialogEv
libdde-file-manager.so.1:_ZN13DialogManager15showAboutDialogEy
libdde-file-manager.so.1:_ZN13DialogManager15showErrorDialogERK7QStringS2_
libdde-file-manager.so.1:_ZN13DialogManager17isTaskDialogEmptyEv
libdde-file-manager.so.1:_ZN13DialogManager17show4gFat32DialogEv
libdde-file-manager.so.1:_ZN13DialogManager17showMessageDialogEiRK7QString
libdde-file-manager.so.1:_ZN13DialogManager18handleFocusChangedEP7QWidgetS1_
libdde-file-manager.so.1:_ZN13DialogManager18showOpenWithDialogERK8DFMEvent
libdde-file-manager.so.1:_ZN13DialogManager18showPropertyDialogERK19DFMUrlListBaseEvent
libdde-file-manager.so.1:_ZN13DialogManager18showUrlWrongDialogERK4DUrl
libdde-file-manager.so.1:_ZN13DialogManager18stopUpdateJobTimerEv
libdde-file-manager.so.1:_ZN13DialogManager19showDiskErrorDialogERK7QStringS2_
libdde-file-manager.so.1:_ZN13DialogManager19startUpdateJobTimerEv
libdde-file-manager.so.1:_ZN13DialogManager20removePropertyDialogERK4DUrl
libdde-file-manager.so.1:_ZN13DialogManager20updateCloseIndicatorEv
libdde-file-manager.so.1:_ZN13DialogManager21showFilePreviewDialogERK5QListI4DUrlES4_
libdde-file-manager.so.1:_ZN13DialogManager21showNtfsWarningDialogERK9QDiskInfo
libdde-file-manager.so.1:_ZN13DialogManager22closeAllPropertyDialogEv
libdde-file-manager.so.1:_ZN13DialogManager22raiseAllPropertyDialogEv
libdde-file-manager.so.1:_ZN13DialogManager22refreshPropertyDialogsERK4DUrlS2_
libdde-file-manager.so.1:_ZN13DialogManager22showBreakSymlinkDialogERK7QStringRK4DUrl
libdde-file-manager.so.1:_ZN13DialogManager22showNoPermissionDialogERK19DFMUrlListBaseEvent
libdde-file-manager.so.1:_ZN13DialogManager23showRestoreFailedDialogERK5QListI4DUrlE
libdde-file-manager.so.1:_ZN13DialogManager23showTrashPropertyDialogERK8DFMEvent
libdde-file-manager.so.1:_ZN13DialogManager24abortJobByDestinationUrlERK4DUrl
libdde-file-manager.so.1:_ZN13DialogManager24initCloseIndicatorDialogEv
libdde-file-manager.so.1:_ZN13DialogManager24showCopyMoveToSelfDialogERK4QMapI7QStringS1_E
libdde-file-manager.so.1:_ZN13DialogManager24showDevicePropertyDialogERK8DFMEvent
libdde-file-manager.so.1:_ZN13DialogManager24showGlobalSettingsDialogEy
libdde-file-manager.so.1:_ZN13DialogManager24showRemoveBookMarkDialogERK8DFMEvent
libdde-file-manager.so.1:_ZN13DialogManager26showComputerPropertyDialogEv
libdde-file-manager.so.1:_ZN13DialogManager26showMultiFilesRenameDialogERK5QListI4DUrlE
libdde-file-manager.so.1:_ZN13DialogManager26showRunExcutableFileDialogERK4DUrly
libdde-file-manager.so.1:_ZN13DialogManager28showAddUserShareFailedDialogERK7QString
libdde-file-manager.so.1:_ZN13DialogManager28showDiskSpaceOutOfUsedDialogEv
libdde-file-manager.so.1:_ZN13DialogManager28showRunExcutableScriptDialogERK4DUrly
libdde-file-manager.so.1:_ZN13DialogManager29showFailToCreateSymlinkDialogERK7QString
libdde-file-manager.so.1:_ZN13DialogManager29showMoveToTrashConflictDialogERK5QListI4DUrlE
libdde-file-manager.so.1:_ZN13DialogManager29showRenameNameSameErrorDialogERK7QStringRK8DFMEvent
libdde-file-manager.so.1:_ZN13DialogManager30showDeleteSystemPathWarnDialogEy
libdde-file-manager.so.1:_ZN13DialogManager31handleConflictRepsonseConfirmedERK4QMapI7QStringS1_ERKS0_IS1_8QVariantE
libdde-file-manager.so.1:_ZN13DialogManager31showDeleteFilesClearTrashDialogERK19DFMUrlListBaseEvent
libdde-file-manager.so.1:_ZN13DialogManager31showRestoreFailedPerssionDialogERK7QStringS2_
libdde-file-manager.so.1:_ZN13DialogManager32showShareOptionsInPropertyDialogERK19DFMUrlListBaseEvent
libdde-file-manager.so.1:_ZN13DialogManager33showDiskSpaceOutOfUsedDialogLaterEv
libdde-file-manager.so.1:_ZN13DialogManager34showUserSharePasswordSettingDialogEy
libdde-file-manager.so.1:_ZN13DialogManager37showAskIfAddExcutableFlagAndRunDialogERK4DUrly
libdde-file-manager.so.1:_ZN13DialogManager6addJobEP7FileJob
libdde-file-manager.so.1:_ZN13DialogManager8abortJobERK4QMapI7QStringS1_E
libdde-file-manager.so.1:_ZN13DialogManager8initDataEv
libdde-file-manager.so.1:_ZN13DialogManager9removeJobERK7QString
libdde-file-manager.so.1:_ZN13DialogManager9updateJobEv
libdde-file-manager.so.1:_ZN13DialogManagerC1EP7QObject
libdde-file-manager.so.1:_ZN13DialogManagerC2EP7QObject
libdde-file-manager.so.1:_ZN13DialogManagerD0Ev
libdde-file-manager.so.1:_ZN13DialogManagerD1Ev
libdde-file-manager.so.1:_ZN13DialogManagerD2Ev
libdde-file-manager.so.1:_ZN13JobController11addChildrenERK28QExplicitlySharedDataPointerI17DAbstractFileInfoE
libdde-file-manager.so.1:_ZN13JobController11qt_metacallEN11QMetaObject4CallEiPPv
libdde-file-manager.so.1:_ZN13JobController11qt_metacastEPKc
libdde-file-manager.so.1:_ZN13JobController12stateChangedENS_5StateE
libdde-file-manager.so.1:_ZN13JobController14setTimeCeilingEi
libdde-file-manager.so.1:_ZN13JobController15addChildrenListERK5QListI28QExplicitlySharedDataPointerI17DAbstractFileInfoEE
libdde-file-manager.so.1:_ZN13JobController15childrenUpdatedERK5QListI28QExplicitlySharedDataPointerI17DAbstractFileInfoEE
libdde-file-manager.so.1:_ZN13JobController15setCountCeilingEi
libdde-file-manager.so.1:_ZN13JobController18stopAndDeleteLaterEv
libdde-file-manager.so.1:_ZN13JobController3runEv
libdde-file-manager.so.1:_ZN13JobController4stopEv
libdde-file-manager.so.1:_ZN13JobController5pauseEv
libdde-file-manager.so.1:_ZN13JobController5startEv
libdde-file-manager.so.1:_ZN13JobController8setStateENS_5StateE
libdde-file-manager.so.1:_ZN13JobControllerC1ERK4DUrlRK11QStringList6QFlagsIN4QDir6FilterEEbP7QObject
libdde-file-manager.so.1:_ZN13JobControllerC1ERK4DUrlRK14QSharedPointerI12DDirIteratorEbP7QObject
libdde-file-manager.so.1:_ZN13JobControllerC2ERK4DUrlRK11QStringList6QFlagsIN4QDir6FilterEEbP7QObject
libdde-file-manager.so.1:_ZN13JobControllerC2ERK4DUrlRK14QSharedPointerI12DDirIteratorEbP7QObject
libdde-file-manager.so.1:_ZN13JobControllerD0Ev
libdde-file-manager.so.1:_ZN13JobControllerD1Ev
libdde-file-manager.so.1:_ZN13JobControllerD2Ev
libdde-file-manager.so.1:_ZN13MountFileInfoC1ERK4DUrl
libdde-file-manager.so.1:_ZN13MountFileInfoC2ERK4DUrl
libdde-file-manager.so.1:_ZN13MountFileInfoD0Ev
libdde-file-manager.so.1:_ZN13MountFileInfoD1Ev
libdde-file-manager.so.1:_ZN13MountFileInfoD2Ev
libdde-file-manager.so.1:_ZN13PluginManager10loadPluginEv
libdde-file-manager.so.1:_ZN13PluginManager11qt_metacallEN11QMetaObject4CallEiPPv
libdde-file-manager.so.1:_ZN13PluginManager11qt_metacastEPKc
libdde-file-manager.so.1:_ZN13PluginManager17getMenuInterfacesEv
libdde-file-manager.so.1:_ZN13PluginManager17getViewInterfacesEv
libdde-file-manager.so.1:_ZN13PluginManager20getPreviewInterfacesEv
libdde-file-manager.so.1:_ZN13PluginManager20getViewInterfacesMapEv
libdde-file-manager.so.1:_ZN13PluginManager23getExpandInfoInterfacesEv
libdde-file-manager.so.1:_ZN13PluginManager24getViewInterfaceBySchemeERK7QString
libdde-file-manager.so.1:_ZN13PluginManager9PluginDirEv
libdde-file-manager.so.1:_ZN13PluginManagerC1EP7QObject
libdde-file-manager.so.1:_ZN13PluginManagerC2EP7QObject
libdde-file-manager.so.1:_ZN13PluginManagerD0Ev
libdde-file-manager.so.1:_ZN13PluginManagerD1Ev
libdde-file-manager.so.1:_ZN13PluginManagerD2Ev
libdde-file-manager.so.1:_ZN13PreviewDialog11qt_metacallEN11QMetaObject4CallEiPPv
libdde-file-manager.so.1:_ZN13PreviewDialog11qt_metacastEPKc
libdde-file-manager.so.1:_ZN13PreviewDialog11resizeEventEP12QResizeEvent
libdde-file-manager.so.1:_ZN13PreviewDialog11showForwardEv
libdde-file-manager.so.1:_ZN13PreviewDialog12showBackwardEv
libdde-file-manager.so.1:_ZN13PreviewDialog13updatePreviewERK4DUrl
libdde-file-manager.so.1:_ZN13PreviewDialog14initInterfacesEv
libdde-file-manager.so.1:_ZN13PreviewDialog15initConnectionsEv
libdde-file-manager.so.1:_ZN13PreviewDialog18showUnknownPreviewERK4DUrl
libdde-file-manager.so.1:_ZN13PreviewDialog19hideNavigateButtonsEv
libdde-file-manager.so.1:_ZN13PreviewDialog19registerToolbarItemEP7QWidget
libdde-file-manager.so.1:_ZN13PreviewDialog19showNavigateButtonsEv
libdde-file-manager.so.1:_ZN13PreviewDialog20updateDialogGeometryEv
libdde-file-manager.so.1:_ZN13PreviewDialog21registerPreviewWidgetEP7QWidget
libdde-file-manager.so.1:_ZN13PreviewDialog21updateNavigateButtonsEv
libdde-file-manager.so.1:_ZN13PreviewDialog6initUIEv
libdde-file-manager.so.1:_ZN13PreviewDialog8openFileEv
libdde-file-manager.so.1:_ZN13PreviewDialogC1ERK5QListI4DUrlEP7QWidget
libdde-file-manager.so.1:_ZN13PreviewDialogC2ERK5QListI4DUrlEP7QWidget
libdde-file-manager.so.1:_ZN13QObjectHelper12json2qobjectERK7QStringP7QObject
libdde-file-manager.so.1:_ZN13QObjectHelper12qobject2jsonEPK7QObjectRK11QStringList
libdde-file-manager.so.1:_ZN13QObjectHelper16qobject2qvariantEPK7QObjectRK11QStringList
libdde-file-manager.so.1:_ZN13QObjectHelper16qvariant2qobjectERK4QMapI7QString8QVariantEP7QObject
libdde-file-manager.so.1:_ZN13QObjectHelperC1Ev
libdde-file-manager.so.1:_ZN13QObjectHelperC2Ev
libdde-file-manager.so.1:_ZN13QObjectHelperD1Ev
libdde-file-manager.so.1:_ZN13QObjectHelperD2Ev
libdde-file-manager.so.1:_ZN13SearchHistory10getKeywordEv
libdde-file-manager.so.1:_ZN13SearchHistory10setKeywordE7QString
libdde-file-manager.so.1:_ZN13SearchHistory11getDateTimeEv
libdde-file-manager.so.1:_ZN13SearchHistory11qt_metacallEN11QMetaObject4CallEiPPv
libdde-file-manager.so.1:_ZN13SearchHistory11qt_metacastEPKc
libdde-file-manager.so.1:_ZN13SearchHistory11setDateTimeE9QDateTime
libdde-file-manager.so.1:_ZN13SearchHistoryC1E9QDateTime7QStringP7QObject
libdde-file-manager.so.1:_ZN13SearchHistoryC1EP7QObject
libdde-file-manager.so.1:_ZN13SearchHistoryC2E9QDateTime7QStringP7QObject
libdde-file-manager.so.1:_ZN13SearchHistoryC2EP7QObject
libdde-file-manager.so.1:_ZN13SearchHistoryD0Ev
libdde-file-manager.so.1:_ZN13SearchHistoryD1Ev
libdde-file-manager.so.1:_ZN13SearchHistoryD2Ev
libdde-file-manager.so.1:_ZN13SecretManager11initConnectEv
libdde-file-manager.so.1:_ZN13SecretManager11qt_metacallEN11QMetaObject4CallEiPPv
libdde-file-manager.so.1:_ZN13SecretManager11qt_metacastEPKc
libdde-file-manager.so.1:_ZN13SecretManager12getLoginDataERK7QString
libdde-file-manager.so.1:_ZN13SecretManager13getLoginDatasEv
libdde-file-manager.so.1:_ZN13SecretManager15FTPSecretSchemaEv
libdde-file-manager.so.1:_ZN13SecretManager15SMBSecretSchemaEv
libdde-file-manager.so.1:_ZN13SecretManager19cacheSambaLoginDataERK11QJsonObject
libdde-file-manager.so.1:_ZN13SecretManager19on_password_clearedEP8_GObjectP13_GAsyncResultPv
libdde-file-manager.so.1:_ZN13SecretManager23clearPasswordByLoginObjERK11QJsonObject
libdde-file-manager.so.1:_ZN13SecretManager8initDataEv
libdde-file-manager.so.1:_ZN13SecretManager9cachePathEv
libdde-file-manager.so.1:_ZN13SecretManager9loadCacheEv
libdde-file-manager.so.1:_ZN13SecretManager9saveCacheEv
libdde-file-manager.so.1:_ZN13SecretManagerC1EP7QObject
libdde-file-manager.so.1:_ZN13SecretManagerC2EP7QObject
libdde-file-manager.so.1:_ZN13SecretManagerD0Ev
libdde-file-manager.so.1:_ZN13SecretManagerD1Ev
libdde-file-manager.so.1:_ZN13SecretManagerD2Ev
libdde-file-manager.so.1:_ZN13ShareFileInfo12makeAbsoluteEv
libdde-file-manager.so.1:_ZN13ShareFileInfoC1ERK4DUrl
libdde-file-manager.so.1:_ZN13ShareFileInfoC2ERK4DUrl
libdde-file-manager.so.1:_ZN13ShareFileInfoD0Ev
libdde-file-manager.so.1:_ZN13ShareFileInfoD1Ev
libdde-file-manager.so.1:_ZN13ShareFileInfoD2Ev
libdde-file-manager.so.1:_ZN13TagController11qt_metacallEN11QMetaObject4CallEiPPv
libdde-file-manager.so.1:_ZN13TagController11qt_metacastEPKc
libdde-file-manager.so.1:_ZN13TagControllerC1EP7QObject
libdde-file-manager.so.1:_ZN13TagControllerC2EP7QObject
libdde-file-manager.so.1:_ZN13TagTextFormatC1EiRK5QListI6QColorERKS1_
libdde-file-manager.so.1:_ZN13TagTextFormatC2EiRK5QListI6QColorERKS1_
libdde-file-manager.so.1:_ZN13TrashFileInfo12makeAbsoluteEv
libdde-file-manager.so.1:_ZN13TrashFileInfo16setColumnCompactEb
libdde-file-manager.so.1:_ZN13TrashFileInfoC1ERK4DUrl
libdde-file-manager.so.1:_ZN13TrashFileInfoC2ERK4DUrl
libdde-file-manager.so.1:_ZN13UDiskListener10mountAddedE28QExplicitlySharedDataPointerI15UDiskDeviceInfoE
libdde-file-manager.so.1:_ZN13UDiskListener11initConnectEv
libdde-file-manager.so.1:_ZN13UDiskListener11qt_metacallEN11QMetaObject4CallEiPPv
libdde-file-manager.so.1:_ZN13UDiskListener11qt_metacastEPKc
libdde-file-manager.so.1:_ZN13UDiskListener11volumeAddedE28QExplicitlySharedDataPointerI15UDiskDeviceInfoE
libdde-file-manager.so.1:_ZN13UDiskListener12forceUnmountERK7QString
libdde-file-manager.so.1:_ZN13UDiskListener12mountRemovedE28QExplicitlySharedDataPointerI15UDiskDeviceInfoE
libdde-file-manager.so.1:_ZN13UDiskListener12removeDeviceE28QExplicitlySharedDataPointerI15UDiskDeviceInfoE
libdde-file-manager.so.1:_ZN13UDiskListener13addSubscriberEP10Subscriber
libdde-file-manager.so.1:_ZN13UDiskListener13getDeviceListEv
libdde-file-manager.so.1:_ZN13UDiskListener13hasDeviceInfoERK7QString
libdde-file-manager.so.1:_ZN13UDiskListener13volumeChangedE28QExplicitlySharedDataPointerI15UDiskDeviceInfoE
libdde-file-manager.so.1:_ZN13UDiskListener13volumeRemovedE28QExplicitlySharedDataPointerI15UDiskDeviceInfoE
libdde-file-manager.so.1:_ZN13UDiskListener15getDeviceByPathERK7QString
libdde-file-manager.so.1:_ZN13UDiskListener15getDeviceByUUIDERK7QString
libdde-file-manager.so.1:_ZN13UDiskListener15initDiskManagerEv
libdde-file-manager.so.1:_ZN13UDiskListener16addMountDiskInfoERK9QDiskInfo
libdde-file-manager.so.1:_ZN13UDiskListener16getVolumeLettersEv
libdde-file-manager.so.1:_ZN13UDiskListener16removeSubscriberEP10Subscriber
libdde-file-manager.so.1:_ZN13UDiskListener17addVolumeDiskInfoERK9QDiskInfo
libdde-file-manager.so.1:_ZN13UDiskListener17getAllDeviceInfosEv
libdde-file-manager.so.1:_ZN13UDiskListener18getDeviceMediaTypeERK7QString
libdde-file-manager.so.1:_ZN13UDiskListener19getDeviceByDeviceIDERK7QString
libdde-file-manager.so.1:_ZN13UDiskListener19getDeviceByFilePathERK7QString
libdde-file-manager.so.1:_ZN13UDiskListener19removeMountDiskInfoERK9QDiskInfo
libdde-file-manager.so.1:_ZN13UDiskListener20changeVolumeDiskInfoERK9QDiskInfo
libdde-file-manager.so.1:_ZN13UDiskListener20getCanSendDisksByUrlE7QString
libdde-file-manager.so.1:_ZN13UDiskListener20removeVolumeDiskInfoERK9QDiskInfo
libdde-file-manager.so.1:_ZN13UDiskListener21getDeviceByDevicePathERK7QString
libdde-file-manager.so.1:_ZN13UDiskListener21getDeviceByMountPointERK7QString
libdde-file-manager.so.1:_ZN13UDiskListener22insertFileSystemDeviceE7QString
libdde-file-manager.so.1:_ZN13UDiskListener23loadCustomVolumeLettersEv
libdde-file-manager.so.1:_ZN13UDiskListener27isMountedRemovableDiskExitsEv
libdde-file-manager.so.1:_ZN13UDiskListener29getDeviceByMountPointFilePathERK7QString
libdde-file-manager.so.1:_ZN13UDiskListener30fileSystemDeviceIdLabelChangedERK7QString
libdde-file-manager.so.1:_ZN13UDiskListener34getMountedRemovableDiskDeviceInfosEv
libdde-file-manager.so.1:_ZN13UDiskListener5ejectERK7QString
libdde-file-manager.so.1:_ZN13UDiskListener5mountERK7QString
libdde-file-manager.so.1:_ZN13UDiskListener6updateEv
libdde-file-manager.so.1:_ZN13UDiskListener7unmountERK7QString
libdde-file-manager.so.1:_ZN13UDiskListener8lastPartERK7QString
libdde-file-manager.so.1:_ZN13UDiskListener9addDeviceE28QExplicitlySharedDataPointerI15UDiskDeviceInfoE
libdde-file-manager.so.1:_ZN13UDiskListener9getDeviceERK7QString
libdde-file-manager.so.1:_ZN13UDiskListener9stopDriveERK7QString
libdde-file-manager.so.1:_ZN13UDiskListenerC1EP7QObject
libdde-file-manager.so.1:_ZN13UDiskListenerC2EP7QObject
libdde-file-manager.so.1:_ZN13WindowManager11getWindowIdEPK7QWidget
libdde-file-manager.so.1:_ZN13WindowManager11initConnectEv
libdde-file-manager.so.1:_ZN13WindowManager11qt_metacallEN11QMetaObject4CallEiPPv
libdde-file-manager.so.1:_ZN13WindowManager11qt_metacastEPKc
libdde-file-manager.so.1:_ZN13WindowManager13getWindowByIdEy
libdde-file-manager.so.1:_ZN13WindowManager13showNewWindowERK4DUrlRKb
libdde-file-manager.so.1:_ZN13WindowManager14onWindowClosedEv
libdde-file-manager.so.1:_ZN13WindowManager15loadWindowStateEP18DFileManagerWindow
libdde-file-manager.so.1:_ZN13WindowManager15saveWindowStateEP18DFileManagerWindow
libdde-file-manager.so.1:_ZN13WindowManager16getUrlByWindowIdEy
libdde-file-manager.so.1:_ZN13WindowManager17setEnableAutoQuitEb
libdde-file-manager.so.1:_ZN13WindowManager17tabAddableByWinIdERKy
libdde-file-manager.so.1:_ZN13WindowManager18reastartAppProcessEv
libdde-file-manager.so.1:_ZN13WindowManager25onLastActivedWindowClosedEy
libdde-file-manager.so.1:_ZN13WindowManager5startERK7QString
libdde-file-manager.so.1:_ZN13WindowManager8instanceEv
libdde-file-manager.so.1:_ZN13WindowManagerC1EP7QObject
libdde-file-manager.so.1:_ZN13WindowManagerC2EP7QObject
libdde-file-manager.so.1:_ZN13WindowManagerD0Ev
libdde-file-manager.so.1:_ZN13WindowManagerD1Ev
libdde-file-manager.so.1:_ZN13WindowManagerD2Ev
libdde-file-manager.so.1:_ZN14DFMDeleteEvent8fromJsonERK11QJsonObject
libdde-file-manager.so.1:_ZN14DFMDeleteEventC1EPK7QObjectRK5QListI4DUrlEbb
libdde-file-manager.so.1:_ZN14DFMDeleteEventC2EPK7QObjectRK5QListI4DUrlEbb
libdde-file-manager.so.1:_ZN14DFMRenameEvent8fromJsonERK11QJsonObject
libdde-file-manager.so.1:_ZN14DFMRenameEventC1EPK7QObjectRK4DUrlS5_b
libdde-file-manager.so.1:_ZN14DFMRenameEventC2EPK7QObjectRK4DUrlS5_b
libdde-file-manager.so.1:_ZN14FileController11qt_metacallEN11QMetaObject4CallEiPPv
libdde-file-manager.so.1:_ZN14FileController11qt_metacastEPKc
libdde-file-manager.so.1:_ZN14FileController14findExecutableERK7QStringRK11QStringList
libdde-file-manager.so.1:_ZN14FileController16privateFileMatchERK7QStringS2_
libdde-file-manager.so.1:_ZN14FileController21customHiddenFileMatchERK7QStringS2_
libdde-file-manager.so.1:_ZN14FileControllerC1EP7QObject
libdde-file-manager.so.1:_ZN14FileControllerC2EP7QObject
libdde-file-manager.so.1:_ZN14FileViewHelper11preHandleCdERK15DFMUrlBaseEvent
libdde-file-manager.so.1:_ZN14FileViewHelper11qt_metacallEN11QMetaObject4CallEiPPv
libdde-file-manager.so.1:_ZN14FileViewHelper11qt_metacastEPKc
libdde-file-manager.so.1:_ZN14FileViewHelper15refreshFileViewEy
libdde-file-manager.so.1:_ZN14FileViewHelper17handleSelectEventERK19DFMUrlListBaseEvent
libdde-file-manager.so.1:_ZN14FileViewHelper18setFoucsOnFileViewEy
libdde-file-manager.so.1:_ZN14FileViewHelper2cdERK15DFMUrlBaseEvent
libdde-file-manager.so.1:_ZN14FileViewHelper4cdUpERK15DFMUrlBaseEvent
libdde-file-manager.so.1:_ZN14FileViewHelper6selectERK5QListI4DUrlE
libdde-file-manager.so.1:_ZN14FileViewHelper9selectAllEy
libdde-file-manager.so.1:_ZN14FileViewHelperC1EP9DFileView
libdde-file-manager.so.1:_ZN14FileViewHelperC2EP9DFileView
libdde-file-manager.so.1:_ZN14MimeAppsWorker10startWatchEv
libdde-file-manager.so.1:_ZN14MimeAppsWorker11initConnectEv
libdde-file-manager.so.1:_ZN14MimeAppsWorker11qt_metacallEN11QMetaObject4CallEiPPv
libdde-file-manager.so.1:_ZN14MimeAppsWorker11qt_metacastEPKc
libdde-file-manager.so.1:_ZN14MimeAppsWorker11updateCacheEv
libdde-file-manager.so.1:_ZN14MimeAppsWorker17handleFileChangedERK7QString
libdde-file-manager.so.1:_ZN14MimeAppsWorker22handleDirectoryChangedERK7QString
libdde-file-manager.so.1:_ZN14MimeAppsWorker8readDataERK7QString
libdde-file-manager.so.1:_ZN14MimeAppsWorker9writeDataERK7QStringRK10QByteArray
libdde-file-manager.so.1:_ZN14MimeAppsWorkerC1EP7QObject
libdde-file-manager.so.1:_ZN14MimeAppsWorkerC2EP7QObject
libdde-file-manager.so.1:_ZN14MimeAppsWorkerD0Ev
libdde-file-manager.so.1:_ZN14MimeAppsWorkerD1Ev
libdde-file-manager.so.1:_ZN14MimeAppsWorkerD2Ev
libdde-file-manager.so.1:_ZN14NetworkManager11initConnectEv
libdde-file-manager.so.1:_ZN14NetworkManager11qt_metacallEN11QMetaObject4CallEiPPv
libdde-file-manager.so.1:_ZN14NetworkManager11qt_metacastEPKc
libdde-file-manager.so.1:_ZN14NetworkManager12restartGVFSDEv
libdde-file-manager.so.1:_ZN14NetworkManager13fetchNetworksERK15DFMUrlBaseEvent
libdde-file-manager.so.1:_ZN14NetworkManager14fetch_networksEPcP8DFMEvent
libdde-file-manager.so.1:_ZN14NetworkManager17populate_networksEP16_GFileEnumeratorP6_GListPv
libdde-file-manager.so.1:_ZN14NetworkManager20cancelFeatchNetworksEv
libdde-file-manager.so.1:_ZN14NetworkManager28network_enumeration_finishedEP8_GObjectP13_GAsyncResultPv
libdde-file-manager.so.1:_ZN14NetworkManager39network_enumeration_next_files_finishedEP8_GObjectP13_GAsyncResultPv
libdde-file-manager.so.1:_ZN14NetworkManager8initDataEv
libdde-file-manager.so.1:_ZN14NetworkManagerC1EP7QObject
libdde-file-manager.so.1:_ZN14NetworkManagerC2EP7QObject
libdde-file-manager.so.1:_ZN14NetworkManagerD0Ev
libdde-file-manager.so.1:_ZN14NetworkManagerD1Ev
libdde-file-manager.so.1:_ZN14NetworkManagerD2Ev
libdde-file-manager.so.1:_ZN14OpenWithDialog10createItemERK5QIconRK7QStringS5_
libdde-file-manager.so.1:_ZN14OpenWithDialog11eventFilterEP7QObjectP6QEvent
libdde-file-manager.so.1:_ZN14OpenWithDialog11initConnectEv
libdde-file-manager.so.1:_ZN14OpenWithDialog11qt_metacallEN11QMetaObject4CallEiPPv
libdde-file-manager.so.1:_ZN14OpenWithDialog11qt_metacastEPKc
libdde-file-manager.so.1:_ZN14OpenWithDialog13openFileByAppEv
libdde-file-manager.so.1:_ZN14OpenWithDialog19useOtherApplicationEv
libdde-file-manager.so.1:_ZN14OpenWithDialog6initUIEv
libdde-file-manager.so.1:_ZN14OpenWithDialog8initDataEv
libdde-file-manager.so.1:_ZN14OpenWithDialog9checkItemEP22OpenWithDialogListItem
libdde-file-manager.so.1:_ZN14OpenWithDialog9showEventEP10QShowEvent
libdde-file-manager.so.1:_ZN14OpenWithDialogC1ERK4DUrlP7QWidget
libdde-file-manager.so.1:_ZN14OpenWithDialogC2ERK4DUrlP7QWidget
libdde-file-manager.so.1:_ZN14OpenWithDialogD0Ev
libdde-file-manager.so.1:_ZN14OpenWithDialogD1Ev
libdde-file-manager.so.1:_ZN14OpenWithDialogD2Ev
libdde-file-manager.so.1:_ZN14PropertyDialog10renameFileEv
libdde-file-manager.so.1:_ZN14PropertyDialog11getFileSizeEv
libdde-file-manager.so.1:_ZN14PropertyDialog11initConnectEv
libdde-file-manager.so.1:_ZN14PropertyDialog11qt_metacallEN11QMetaObject4CallEiPPv
libdde-file-manager.so.1:_ZN14PropertyDialog11qt_metacastEPKc
libdde-file-manager.so.1:_ZN14PropertyDialog11resizeEventEP12QResizeEvent
libdde-file-manager.so.1:_ZN14PropertyDialog12getFileCountEv
libdde-file-manager.so.1:_ZN14PropertyDialog13aboutToClosedERK4DUrl
libdde-file-manager.so.1:_ZN14PropertyDialog15addExpandWidgetERK11QStringList
libdde-file-manager.so.1:_ZN14PropertyDialog15createInfoFrameERK5QListI5QPairI7QStringS2_EE
libdde-file-manager.so.1:_ZN14PropertyDialog15mousePressEventEP11QMouseEvent
libdde-file-manager.so.1:_ZN14PropertyDialog15onExpandChangedERKb
libdde-file-manager.so.1:_ZN14PropertyDialog16updateFolderSizeEx
libdde-file-manager.so.1:_ZN14PropertyDialog17initTextShowFrameERK7QString
libdde-file-manager.so.1:_ZN14PropertyDialog17onChildrenRemovedERK4DUrl
libdde-file-manager.so.1:_ZN14PropertyDialog17showTextShowFrameEv
libdde-file-manager.so.1:_ZN14PropertyDialog20createShareInfoFrameERK28QExplicitlySharedDataPointerI17DAbstractFileInfoE
libdde-file-manager.so.1:_ZN14PropertyDialog20flickFolderToSidebarEv
libdde-file-manager.so.1:_ZN14PropertyDialog20toggleFileExecutableEb
libdde-file-manager.so.1:_ZN14PropertyDialog21createBasicInfoWidgetERK28QExplicitlySharedDataPointerI17DAbstractFileInfoE
libdde-file-manager.so.1:_ZN14PropertyDialog21onOpenWithBntsCheckedEP15QAbstractButton
libdde-file-manager.so.1:_ZN14PropertyDialog23loadPluginExpandWidgetsEv
libdde-file-manager.so.1:_ZN14PropertyDialog23startComputerFolderSizeERK4DUrl
libdde-file-manager.so.1:_ZN14PropertyDialog24createOpenWithListWidgetERK28QExplicitlySharedDataPointerI17DAbstractFileInfoE
libdde-file-manager.so.1:_ZN14PropertyDialog27createLocalDeviceInfoWidgetERK12QStorageInfo
libdde-file-manager.so.1:_ZN14PropertyDialog27createLocalDeviceInfoWidgetERK28QExplicitlySharedDataPointerI15UDiskDeviceInfoE
libdde-file-manager.so.1:_ZN14PropertyDialog31createAuthorityManagementWidgetERK28QExplicitlySharedDataPointerI17DAbstractFileInfoE
libdde-file-manager.so.1:_ZN14PropertyDialog5raiseEv
libdde-file-manager.so.1:_ZN14PropertyDialog6closedERK4DUrl
libdde-file-manager.so.1:_ZN14PropertyDialog6getUrlEv
libdde-file-manager.so.1:_ZN14PropertyDialog6initUIEv
libdde-file-manager.so.1:_ZN14PropertyDialog6raisedEv
libdde-file-manager.so.1:_ZN14PropertyDialog9hideEventEP10QHideEvent
libdde-file-manager.so.1:_ZN14PropertyDialogC1ERK8DFMEvent4DUrlP7QWidget
libdde-file-manager.so.1:_ZN14PropertyDialogC2ERK8DFMEvent4DUrlP7QWidget
libdde-file-manager.so.1:_ZN14RecentFileInfo10updateInfoEv
libdde-file-manager.so.1:_ZN14RecentFileInfo12makeAbsoluteEv
libdde-file-manager.so.1:_ZN14RecentFileInfo15setReadDateTimeERK7QString
libdde-file-manager.so.1:_ZN14RecentFileInfoC1ERK4DUrl
libdde-file-manager.so.1:_ZN14RecentFileInfoC2ERK4DUrl
libdde-file-manager.so.1:_ZN14SearchFileInfo16setColumnCompactEb
libdde-file-manager.so.1:_ZN14SearchFileInfoC1ERK4DUrl
libdde-file-manager.so.1:_ZN14SearchFileInfoC2ERK4DUrl
libdde-file-manager.so.1:_ZN14SettingBackend11doSetOptionERK7QStringRK8QVariant
libdde-file-manager.so.1:_ZN14SettingBackend14onValueChangedEiRK8QVariant
libdde-file-manager.so.1:_ZN14SettingBackend6doSyncEv
libdde-file-manager.so.1:_ZN14SettingBackendC1EP7QObject
libdde-file-manager.so.1:_ZN14SettingBackendC2EP7QObject
libdde-file-manager.so.1:_ZN14ShareControler11qt_metacallEN11QMetaObject4CallEiPPv
libdde-file-manager.so.1:_ZN14ShareControler11qt_metacastEPKc
libdde-file-manager.so.1:_ZN14ShareControler7realUrlERK4DUrl
libdde-file-manager.so.1:_ZN14ShareControlerC1EP7QObject
libdde-file-manager.so.1:_ZN14ShareControlerC2EP7QObject
libdde-file-manager.so.1:_ZN14ShareInfoFrame11initConnectEv
libdde-file-manager.so.1:_ZN14ShareInfoFrame11qt_metacallEN11QMetaObject4CallEiPPv
libdde-file-manager.so.1:_ZN14ShareInfoFrame11qt_metacastEPKc
libdde-file-manager.so.1:_ZN14ShareInfoFrame11setFileinfoERK28QExplicitlySharedDataPointerI17DAbstractFileInfoE
libdde-file-manager.so.1:_ZN14ShareInfoFrame12folderSharedERK7QString
libdde-file-manager.so.1:_ZN14ShareInfoFrame15activateWidgetsEv
libdde-file-manager.so.1:_ZN14ShareInfoFrame15updateShareInfoERK7QString
libdde-file-manager.so.1:_ZN14ShareInfoFrame18disactivateWidgetsEv
libdde-file-manager.so.1:_ZN14ShareInfoFrame18doShareInfoSettingEv
libdde-file-manager.so.1:_ZN14ShareInfoFrame20handShareInfoChangedEv
libdde-file-manager.so.1:_ZN14ShareInfoFrame21handleCheckBoxChangedERKb
libdde-file-manager.so.1:_ZN14ShareInfoFrame22handleShareNameChangedERK7QString
libdde-file-manager.so.1:_ZN14ShareInfoFrame28handleAnonymityComboxChangedERKi
libdde-file-manager.so.1:_ZN14ShareInfoFrame29handlePermissionComboxChangedERKi
libdde-file-manager.so.1:_ZN14ShareInfoFrame6initUIEv
libdde-file-manager.so.1:_ZN14ShareInfoFrameC1ERK28QExplicitlySharedDataPointerI17DAbstractFileInfoEP7QWidget
libdde-file-manager.so.1:_ZN14ShareInfoFrameC2ERK28QExplicitlySharedDataPointerI17DAbstractFileInfoEP7QWidget
libdde-file-manager.so.1:_ZN14ShareInfoFrameD0Ev
libdde-file-manager.so.1:_ZN14ShareInfoFrameD1Ev
libdde-file-manager.so.1:_ZN14ShareInfoFrameD2Ev
libdde-file-manager.so.1:_ZN14TabCloseButton11qt_metacallEN11QMetaObject4CallEiPPv
libdde-file-manager.so.1:_ZN14TabCloseButton11qt_metacastEPKc
libdde-file-manager.so.1:_ZN14TabCloseButton12closingIndexEv
libdde-file-manager.so.1:_ZN14TabCloseButton14hoverMoveEventEP24QGraphicsSceneHoverEvent
libdde-file-manager.so.1:_ZN14TabCloseButton15hoverEnterEventEP24QGraphicsSceneHoverEvent
libdde-file-manager.so.1:_ZN14TabCloseButton15hoverLeaveEventEP24QGraphicsSceneHoverEvent
libdde-file-manager.so.1:_ZN14TabCloseButton15mousePressEventEP24QGraphicsSceneMouseEvent
libdde-file-manager.so.1:_ZN14TabCloseButton15setClosingIndexEi
libdde-file-manager.so.1:_ZN14TabCloseButton17mouseReleaseEventEP24QGraphicsSceneMouseEvent
libdde-file-manager.so.1:_ZN14TabCloseButton17setActiveWidthTabEb
libdde-file-manager.so.1:_ZN14TabCloseButton5paintEP8QPainterPK24QStyleOptionGraphicsItemP7QWidget
libdde-file-manager.so.1:_ZN14TabCloseButton7clickedEv
libdde-file-manager.so.1:_ZN14TabCloseButton7hoveredEi
libdde-file-manager.so.1:_ZN14TabCloseButton9unHoveredEi
libdde-file-manager.so.1:_ZN14TabCloseButtonC1EP13QGraphicsItem
libdde-file-manager.so.1:_ZN14TabCloseButtonC2EP13QGraphicsItem
libdde-file-manager.so.1:_ZN15BookMarkManager10checkExistERK4DUrl
libdde-file-manager.so.1:_ZN15BookMarkManager11qt_metacallEN11QMetaObject4CallEiPPv
libdde-file-manager.so.1:_ZN15BookMarkManager11qt_metacastEPKc
libdde-file-manager.so.1:_ZN15BookMarkManager12onFileEditedERK7QStringS2_RK8QVariant
libdde-file-manager.so.1:_ZN15BookMarkManager6updateERK8QVariant
libdde-file-manager.so.1:_ZN15BookMarkManagerC1EP7QObject
libdde-file-manager.so.1:_ZN15BookMarkManagerC2EP7QObject
libdde-file-manager.so.1:_ZN15BookMarkManagerD0Ev
libdde-file-manager.so.1:_ZN15BookMarkManagerD1Ev
libdde-file-manager.so.1:_ZN15BookMarkManagerD2Ev
libdde-file-manager.so.1:_ZN15DFMActionButton10paintEventEP11QPaintEvent
libdde-file-manager.so.1:_ZN15DFMActionButton11qt_metacallEN11QMetaObject4CallEiPPv
libdde-file-manager.so.1:_ZN15DFMActionButton11qt_metacastEPKc
libdde-file-manager.so.1:_ZN15DFMActionButton9setActionEP7QAction
libdde-file-manager.so.1:_ZN15DFMActionButtonC1EP7QWidget
libdde-file-manager.so.1:_ZN15DFMActionButtonC2EP7QWidget
libdde-file-manager.so.1:_ZN15DFMForwardEvent8fromJsonERK11QJsonObject
libdde-file-manager.so.1:_ZN15DFMForwardEventC1EPK7QObject
libdde-file-manager.so.1:_ZN15DFMForwardEventC2EPK7QObject
libdde-file-manager.so.1:_ZN15DFMOpenUrlEvent8fromJsonERK11QJsonObject
libdde-file-manager.so.1:_ZN15DFMOpenUrlEventC1EPK7QObjectRK5QListI4DUrlENS_11DirOpenModeE
libdde-file-manager.so.1:_ZN15DFMOpenUrlEventC2EPK7QObjectRK5QListI4DUrlENS_11DirOpenModeE
libdde-file-manager.so.1:_ZN15DFMUrlBaseEvent8fromJsonEN8DFMEvent4TypeERK11QJsonObject
libdde-file-manager.so.1:_ZN15DFMUrlBaseEventC1EN8DFMEvent4TypeEPK7QObjectRK4DUrl
libdde-file-manager.so.1:_ZN15DFMUrlBaseEventC1EPK7QObjectRK4DUrl
libdde-file-manager.so.1:_ZN15DFMUrlBaseEventC2EN8DFMEvent4TypeEPK7QObjectRK4DUrl
libdde-file-manager.so.1:_ZN15DFMUrlBaseEventC2EPK7QObjectRK4DUrl
libdde-file-manager.so.1:_ZN15DFileViewHelper10handleMenuEP5QMenu
libdde-file-manager.so.1:_ZN15DFileViewHelper11qt_metacallEN11QMetaObject4CallEiPPv
libdde-file-manager.so.1:_ZN15DFileViewHelper11qt_metacastEPKc
libdde-file-manager.so.1:_ZN15DFileViewHelper11triggerEditERK11QModelIndex
libdde-file-manager.so.1:_ZN15DFileViewHelper14keyboardSearchEc
libdde-file-manager.so.1:_ZN15DFileViewHelper14setIndexWidgetERK11QModelIndexP7QWidget
libdde-file-manager.so.1:_ZN15DFileViewHelper16updateGeometriesEv
libdde-file-manager.so.1:_ZN15DFileViewHelperC1EP17QAbstractItemView
libdde-file-manager.so.1:_ZN15DFileViewHelperC2EP17QAbstractItemView
libdde-file-manager.so.1:_ZN15DFileViewHelperD0Ev
libdde-file-manager.so.1:_ZN15DFileViewHelperD1Ev
libdde-file-manager.so.1:_ZN15DFileViewHelperD2Ev
libdde-file-manager.so.1:_ZN15DIconTextButton11qt_metacallEN11QMetaObject4CallEiPPv
libdde-file-manager.so.1:_ZN15DIconTextButton11qt_metacastEPKc
libdde-file-manager.so.1:_ZN15DIconTextButtonC1ERK5QIconRK7QStringP7QWidget
libdde-file-manager.so.1:_ZN15DIconTextButtonC2ERK5QIconRK7QStringP7QWidget
libdde-file-manager.so.1:_ZN15DIconTextButtonD0Ev
libdde-file-manager.so.1:_ZN15DIconTextButtonD1Ev
libdde-file-manager.so.1:_ZN15DIconTextButtonD2Ev
libdde-file-manager.so.1:_ZN15DMoveableWidget10moveCenterEv
libdde-file-manager.so.1:_ZN15DMoveableWidget10paintEventEP11QPaintEvent
libdde-file-manager.so.1:_ZN15DMoveableWidget11qt_metacallEN11QMetaObject4CallEiPPv
libdde-file-manager.so.1:_ZN15DMoveableWidget11qt_metacastEPKc
libdde-file-manager.so.1:_ZN15DMoveableWidget11resizeEventEP12QResizeEvent
libdde-file-manager.so.1:_ZN15DMoveableWidget12moveTopRightEv
libdde-file-manager.so.1:_ZN15DMoveableWidget14mouseMoveEventEP11QMouseEvent
libdde-file-manager.so.1:_ZN15DMoveableWidget15mousePressEventEP11QMouseEvent
libdde-file-manager.so.1:_ZN15DMoveableWidget16moveCenterByRectE5QRect
libdde-file-manager.so.1:_ZN15DMoveableWidget16setMovableHeightEi
libdde-file-manager.so.1:_ZN15DMoveableWidget17mouseReleaseEventEP11QMouseEvent
libdde-file-manager.so.1:_ZN15DMoveableWidget18moveTopRightByRectE5QRect
libdde-file-manager.so.1:_ZN15DMoveableWidgetC1EP7QWidget
libdde-file-manager.so.1:_ZN15DMoveableWidgetC2EP7QWidget
libdde-file-manager.so.1:_ZN15DMoveableWidgetD0Ev
libdde-file-manager.so.1:_ZN15DMoveableWidgetD1Ev
libdde-file-manager.so.1:_ZN15DMoveableWidgetD2Ev
libdde-file-manager.so.1:_ZN15DesktopFileInfo18getDesktopFileInfoERK4DUrl
libdde-file-manager.so.1:_ZN15DesktopFileInfo19trashDesktopFileUrlEv
libdde-file-manager.so.1:_ZN15DesktopFileInfo22computerDesktopFileUrlEv
libdde-file-manager.so.1:_ZN15DesktopFileInfo7refreshEv
libdde-file-manager.so.1:_ZN15DesktopFileInfoC1ERK4DUrl
libdde-file-manager.so.1:_ZN15DesktopFileInfoC1ERK9QFileInfo
libdde-file-manager.so.1:_ZN15DesktopFileInfoC2ERK4DUrl
libdde-file-manager.so.1:_ZN15DesktopFileInfoC2ERK9QFileInfo
libdde-file-manager.so.1:_ZN15DesktopFileInfoD0Ev
libdde-file-manager.so.1:_ZN15DesktopFileInfoD1Ev
libdde-file-manager.so.1:_ZN15DesktopFileInfoD2Ev
libdde-file-manager.so.1:_ZN15FileDirIterator23enableIteratorByKeywordERK7QString
libdde-file-manager.so.1:_ZN15FileDirIterator4nextEv
libdde-file-manager.so.1:_ZN15FileDirIteratorC1ERK7QStringRK11QStringList6QFlagsIN4QDir6FilterEES6_IN12QDirIterator12IteratorFlagEE
libdde-file-manager.so.1:_ZN15FileDirIteratorC2ERK7QStringRK11QStringList6QFlagsIN4QDir6FilterEES6_IN12QDirIterator12IteratorFlagEE
libdde-file-manager.so.1:_ZN15FileDirIteratorD0Ev
libdde-file-manager.so.1:_ZN15FileDirIteratorD1Ev
libdde-file-manager.so.1:_ZN15FileDirIteratorD2Ev
libdde-file-manager.so.1:_ZN15GroupTitleLabel11qt_metacallEN11QMetaObject4CallEiPPv
libdde-file-manager.so.1:_ZN15GroupTitleLabel11qt_metacastEPKc
libdde-file-manager.so.1:_ZN15GroupTitleLabelC1ERK7QStringP7QWidget6QFlagsIN2Qt10WindowTypeEE
libdde-file-manager.so.1:_ZN15GroupTitleLabelC2ERK7QStringP7QWidget6QFlagsIN2Qt10WindowTypeEE
libdde-file-manager.so.1:_ZN15GvfsMountClient10mount_syncERK15DFMUrlBaseEvent
libdde-file-manager.so.1:_ZN15GvfsMountClient11initConnectEv
libdde-file-manager.so.1:_ZN15GvfsMountClient11qt_metacallEN11QMetaObject4CallEiPPv
libdde-file-manager.so.1:_ZN15GvfsMountClient11qt_metacastEPKc
libdde-file-manager.so.1:_ZN15GvfsMountClient12new_mount_opEv
libdde-file-manager.so.1:_ZN15GvfsMountClient13mount_done_cbEP8_GObjectP13_GAsyncResultPv
libdde-file-manager.so.1:_ZN15GvfsMountClient15ask_password_cbEP16_GMountOperationPKcS3_S3_17GAskPasswordFlags
libdde-file-manager.so.1:_ZN15GvfsMountClient15ask_question_cbEP16_GMountOperationPKcPPc
libdde-file-manager.so.1:_ZN15GvfsMountClient5mountEP6_GFile
libdde-file-manager.so.1:_ZN15GvfsMountClientC1EP7QObject
libdde-file-manager.so.1:_ZN15GvfsMountClientC2EP7QObject
libdde-file-manager.so.1:_ZN15GvfsMountClientD0Ev
libdde-file-manager.so.1:_ZN15GvfsMountClientD1Ev
libdde-file-manager.so.1:_ZN15GvfsMountClientD2Ev
libdde-file-manager.so.1:_ZN15MountController11qt_metacallEN11QMetaObject4CallEiPPv
libdde-file-manager.so.1:_ZN15MountController11qt_metacastEPKc
libdde-file-manager.so.1:_ZN15MountControllerC1EP7QObject
libdde-file-manager.so.1:_ZN15MountControllerC2EP7QObject
libdde-file-manager.so.1:_ZN15MountControllerD0Ev
libdde-file-manager.so.1:_ZN15MountControllerD1Ev
libdde-file-manager.so.1:_ZN15MountControllerD2Ev
libdde-file-manager.so.1:_ZN15NetworkFileInfo14setNetworkNodeERK11NetworkNode
libdde-file-manager.so.1:_ZN15NetworkFileInfoC1ERK4DUrl
libdde-file-manager.so.1:_ZN15NetworkFileInfoC2ERK4DUrl
libdde-file-manager.so.1:_ZN15NetworkFileInfoD0Ev
libdde-file-manager.so.1:_ZN15NetworkFileInfoD1Ev
libdde-file-manager.so.1:_ZN15NetworkFileInfoD2Ev
libdde-file-manager.so.1:_ZN15SectionKeyLabel11qt_metacallEN11QMetaObject4CallEiPPv
libdde-file-manager.so.1:_ZN15SectionKeyLabel11qt_metacastEPKc
libdde-file-manager.so.1:_ZN15SectionKeyLabelC1ERK7QStringP7QWidget6QFlagsIN2Qt10WindowTypeEE
libdde-file-manager.so.1:_ZN15SectionKeyLabelC2ERK7QStringP7QWidget6QFlagsIN2Qt10WindowTypeEE
libdde-file-manager.so.1:_ZN15UDiskDeviceInfo11setDiskInfoE9QDiskInfo
libdde-file-manager.so.1:_ZN15UDiskDeviceInfo7getFreeEv
libdde-file-manager.so.1:_ZN15UDiskDeviceInfo8getTotalEv
libdde-file-manager.so.1:_ZN15UDiskDeviceInfoC1E28QExplicitlySharedDataPointerIS_E
libdde-file-manager.so.1:_ZN15UDiskDeviceInfoC1ERK4DUrl
libdde-file-manager.so.1:_ZN15UDiskDeviceInfoC1ERK7QString
libdde-file-manager.so.1:_ZN15UDiskDeviceInfoC1Ev
libdde-file-manager.so.1:_ZN15UDiskDeviceInfoC2E28QExplicitlySharedDataPointerIS_E
libdde-file-manager.so.1:_ZN15UDiskDeviceInfoC2ERK4DUrl
libdde-file-manager.so.1:_ZN15UDiskDeviceInfoC2ERK7QString
libdde-file-manager.so.1:_ZN15UDiskDeviceInfoC2Ev
libdde-file-manager.so.1:_ZN15UDiskDeviceInfoD0Ev
libdde-file-manager.so.1:_ZN15UDiskDeviceInfoD1Ev
libdde-file-manager.so.1:_ZN15UDiskDeviceInfoD2Ev
libdde-file-manager.so.1:_ZN16ComputerViewItem10setCheckedEb
libdde-file-manager.so.1:_ZN16ComputerViewItem11eventFilterEP7QObjectP6QEvent
libdde-file-manager.so.1:_ZN16ComputerViewItem11qt_metacallEN11QMetaObject4CallEiPPv
libdde-file-manager.so.1:_ZN16ComputerViewItem11qt_metacastEPKc
libdde-file-manager.so.1:_ZN16ComputerViewItem11setIconSizeEi
libdde-file-manager.so.1:_ZN16ComputerViewItem12checkChangedEb
libdde-file-manager.so.1:_ZN16ComputerViewItem12setIconIndexEi
libdde-file-manager.so.1:_ZN16ComputerViewItem12updateStatusEv
libdde-file-manager.so.1:_ZN16ComputerViewItem13setDeviceInfoE28QExplicitlySharedDataPointerI15UDiskDeviceInfoE
libdde-file-manager.so.1:_ZN16ComputerViewItem13setPixelWidthEi
libdde-file-manager.so.1:_ZN16ComputerViewItem14adjustPositionEv
libdde-file-manager.so.1:_ZN16ComputerViewItem14setDisplayNameERK7QString
libdde-file-manager.so.1:_ZN16ComputerViewItem15mousePressEventEP11QMouseEvent
libdde-file-manager.so.1:_ZN16ComputerViewItem16contextMenuEventEP17QContextMenuEvent
libdde-file-manager.so.1:_ZN16ComputerViewItem16setHasMemoryInfoEb
libdde-file-manager.so.1:_ZN16ComputerViewItem16setIconSizeStateEiN5QIcon4ModeE
libdde-file-manager.so.1:_ZN16ComputerViewItem20updateIconPixelWidthEv
libdde-file-manager.so.1:_ZN16ComputerViewItem21mouseDoubleClickEventEP11QMouseEvent
libdde-file-manager.so.1:_ZN16ComputerViewItem5eventEP6QEvent
libdde-file-manager.so.1:_ZN16ComputerViewItem7getIconEi
libdde-file-manager.so.1:_ZN16ComputerViewItem7openUrlEv
libdde-file-manager.so.1:_ZN16ComputerViewItem7setInfoERK28QExplicitlySharedDataPointerI17DAbstractFileInfoE
libdde-file-manager.so.1:_ZN16ComputerViewItem7setNameERK7QString
libdde-file-manager.so.1:_ZN16ComputerViewItem8windowIdEv
libdde-file-manager.so.1:_ZN16ComputerViewItemC1EP7QWidget
libdde-file-manager.so.1:_ZN16ComputerViewItemC2EP7QWidget
libdde-file-manager.so.1:_ZN16DAnythingMonitor10workSignalEv
libdde-file-manager.so.1:_ZN16DAnythingMonitor11qt_metacallEN11QMetaObject4CallEiPPv
libdde-file-manager.so.1:_ZN16DAnythingMonitor11qt_metacastEPKc
libdde-file-manager.so.1:_ZN16DAnythingMonitor6doWorkEv
libdde-file-manager.so.1:_ZN16DAnythingMonitor6notifyEv
libdde-file-manager.so.1:_ZN16DAnythingMonitorC1EP7QObject
libdde-file-manager.so.1:_ZN16DAnythingMonitorC2EP7QObject
libdde-file-manager.so.1:_ZN16DFMCompressEvnet8fromJsonERK11QJsonObject
libdde-file-manager.so.1:_ZN16DFMCompressEvnetC1EPK7QObjectRK5QListI4DUrlE
libdde-file-manager.so.1:_ZN16DFMCompressEvnetC2EPK7QObjectRK5QListI4DUrlE
libdde-file-manager.so.1:_ZN16DFMOpenFileEvent8fromJsonERK11QJsonObject
libdde-file-manager.so.1:_ZN16DFMOpenFileEventC1EPK7QObjectRK4DUrl
libdde-file-manager.so.1:_ZN16DFMOpenFileEventC2EPK7QObjectRK4DUrl
libdde-file-manager.so.1:_ZN16DFMSettingDialog23createAutoMountCheckBoxEP7QObject
libdde-file-manager.so.1:_ZN16DFMSettingDialog27createAutoMountOpenCheckBoxEP7QObject
libdde-file-manager.so.1:_ZN16DFMSettingDialogC1EP7QWidget
libdde-file-manager.so.1:_ZN16DFMSettingDialogC2EP7QWidget
libdde-file-manager.so.1:_ZN16DFMStandardPaths12getCachePathEv
libdde-file-manager.so.1:_ZN16DFMStandardPaths13getConfigPathEv
libdde-file-manager.so.1:_ZN16DFMStandardPaths13toStandardUrlERK7QString
libdde-file-manager.so.1:_ZN16DFMStandardPaths15fromStandardUrlERK4DUrl
libdde-file-manager.so.1:_ZN16DFMStandardPaths8locationENS_16StandardLocationE
libdde-file-manager.so.1:_ZN16DFMStandardPathsC1Ev
libdde-file-manager.so.1:_ZN16DFMStandardPathsC2Ev
libdde-file-manager.so.1:_ZN16DFileInfoPrivateC1ERK4DUrlP9DFileInfob
libdde-file-manager.so.1:_ZN16DFileInfoPrivateC2ERK4DUrlP9DFileInfob
libdde-file-manager.so.1:_ZN16DFileInfoPrivateD0Ev
libdde-file-manager.so.1:_ZN16DFileInfoPrivateD1Ev
libdde-file-manager.so.1:_ZN16DFileInfoPrivateD2Ev
libdde-file-manager.so.1:_ZN16DFileMenuManager11qt_metacallEN11QMetaObject4CallEiPPv
libdde-file-manager.so.1:_ZN16DFileMenuManager11qt_metacastEPKc
libdde-file-manager.so.1:_ZN16DFileMenuManager11setActionIDEN9DFMGlobal10MenuActionE7QString
libdde-file-manager.so.1:_ZN16DFileMenuManager13jsonToActionsERK10QJsonArrayRK5QListI4DUrlERKS4_RK7QString
libdde-file-manager.so.1:_ZN16DFileMenuManager15actionBlacklistEv
libdde-file-manager.so.1:_ZN16DFileMenuManager15actionTriggeredEP7QAction
libdde-file-manager.so.1:_ZN16DFileMenuManager15actionWhitelistEv
libdde-file-manager.so.1:_ZN16DFileMenuManager15getActionStringEN9DFMGlobal10MenuActionE
libdde-file-manager.so.1:_ZN16DFileMenuManager15setActionStringEN9DFMGlobal10MenuActionE7QString
libdde-file-manager.so.1:_ZN16DFileMenuManager16createNormalMenuERK4DUrlRK5QListIS0_E4QSetIN9DFMGlobal10MenuActionEESA_i
libdde-file-manager.so.1:_ZN16DFileMenuManager17isAvailableActionEN9DFMGlobal10MenuActionE
libdde-file-manager.so.1:_ZN16DFileMenuManager18addActionBlacklistEN9DFMGlobal10MenuActionE
libdde-file-manager.so.1:_ZN16DFileMenuManager18addActionWhitelistEN9DFMGlobal10MenuActionE
libdde-file-manager.so.1:_ZN16DFileMenuManager18genereteMenuByKeysERK7QVectorIN9DFMGlobal10MenuActionEERK4QSetIS2_EbRK4QMapIS2_S3_Ebb
libdde-file-manager.so.1:_ZN16DFileMenuManager18setActionBlacklistERK4QSetIN9DFMGlobal10MenuActionEE
libdde-file-manager.so.1:_ZN16DFileMenuManager18setActionWhitelistERK4QSetIN9DFMGlobal10MenuActionEE
libdde-file-manager.so.1:_ZN16DFileMenuManager20getDisableActionListERK4DUrl
libdde-file-manager.so.1:_ZN16DFileMenuManager20getDisableActionListERK5QListI4DUrlE
libdde-file-manager.so.1:_ZN16DFileMenuManager20loadNormalPluginMenuEP9DFileMenuRK5QListI4DUrlERKS3_
libdde-file-manager.so.1:_ZN16DFileMenuManager21whetherShowTagActionsERK5QListI4DUrlE
libdde-file-manager.so.1:_ZN16DFileMenuManager22registerMenuActionTypeEP7QAction
libdde-file-manager.so.1:_ZN16DFileMenuManager23createUserShareMarkMenuERK4QSetIN9DFMGlobal10MenuActionEE
libdde-file-manager.so.1:_ZN16DFileMenuManager23loadEmptyAreaPluginMenuEP9DFileMenuRK4DUrl
libdde-file-manager.so.1:_ZN16DFileMenuManager23loadNormalExtensionMenuEP9DFileMenuRK5QListI4DUrlERKS3_
libdde-file-manager.so.1:_ZN16DFileMenuManager24loadMenuExtemsionActionsERK5QListI4DUrlERKS1_
libdde-file-manager.so.1:_ZN16DFileMenuManager25createDefaultBookMarkMenuERK4QSetIN9DFMGlobal10MenuActionEE
libdde-file-manager.so.1:_ZN16DFileMenuManager25createToolBarSettingsMenuERK4QSetIN9DFMGlobal10MenuActionEE
libdde-file-manager.so.1:_ZN16DFileMenuManager26loadEmptyAreaExtensionMenuEP9DFileMenuRK4DUrl
libdde-file-manager.so.1:_ZN16DFileMenuManager9getActionEN9DFMGlobal10MenuActionE
libdde-file-manager.so.1:_ZN16DFileMenuManagerC1Ev
libdde-file-manager.so.1:_ZN16DFileMenuManagerC2Ev
libdde-file-manager.so.1:_ZN16DFileSystemModel10createNodeEP14FileSystemNodeRK28QExplicitlySharedDataPointerI17DAbstractFileInfoEP14QReadWriteLock
libdde-file-manager.so.1:_ZN16DFileSystemModel10deleteNodeERK28QExplicitlySharedDataPointerI14FileSystemNodeE
libdde-file-manager.so.1:_ZN16DFileSystemModel10removeRowsEiiRK11QModelIndex
libdde-file-manager.so.1:_ZN16DFileSystemModel10setFiltersE6QFlagsIN4QDir6FilterEE
libdde-file-manager.so.1:_ZN16DFileSystemModel10setRootUrlERK4DUrl
libdde-file-manager.so.1:_ZN16DFileSystemModel10sortedUrlsEv
libdde-file-manager.so.1:_ZN16DFileSystemModel11qt_metacallEN11QMetaObject4CallEiPPv
libdde-file-manager.so.1:_ZN16DFileSystemModel11qt_metacastEPKc
libdde-file-manager.so.1:_ZN16DFileSystemModel11setReadOnlyEb
libdde-file-manager.so.1:_ZN16DFileSystemModel11setSortRoleEiN2Qt9SortOrderE
libdde-file-manager.so.1:_ZN16DFileSystemModel12dropMimeDataEPK9QMimeDataN2Qt10DropActionEiiRK11QModelIndex
libdde-file-manager.so.1:_ZN16DFileSystemModel12setSortOrderERKN2Qt9SortOrderE
libdde-file-manager.so.1:_ZN16DFileSystemModel12stateChangedENS_5StateE
libdde-file-manager.so.1:_ZN16DFileSystemModel13endRemoveRowsEv
libdde-file-manager.so.1:_ZN16DFileSystemModel13onJobFinishedEv
libdde-file-manager.so.1:_ZN16DFileSystemModel13setSortColumnEiN2Qt9SortOrderE
libdde-file-manager.so.1:_ZN16DFileSystemModel14rootUrlDeletedERK4DUrl
libdde-file-manager.so.1:_ZN16DFileSystemModel14setEnabledSortEb
libdde-file-manager.so.1:_ZN16DFileSystemModel14setNameFiltersERK11QStringList
libdde-file-manager.so.1:_ZN16DFileSystemModel14updateChildrenE5QListI28QExplicitlySharedDataPointerI17DAbstractFileInfoEE
libdde-file-manager.so.1:_ZN16DFileSystemModel15beginRemoveRowsERK11QModelIndexii
libdde-file-manager.so.1:_ZN16DFileSystemModel16onJobAddChildrenERK28QExplicitlySharedDataPointerI17DAbstractFileInfoE
libdde-file-manager.so.1:_ZN16DFileSystemModel16setColumnCompactEb
libdde-file-manager.so.1:_ZN16DFileSystemModel17newFileByInternalERK4DUrl
libdde-file-manager.so.1:_ZN16DFileSystemModel17toggleHiddenFilesERK4DUrl
libdde-file-manager.so.1:_ZN16DFileSystemModel18emitAllDataChangedEv
libdde-file-manager.so.1:_ZN16DFileSystemModel18enabledSortChangedEb
libdde-file-manager.so.1:_ZN16DFileSystemModel18requestSelectFilesERK5QListI4DUrlE
libdde-file-manager.so.1:_ZN16DFileSystemModel19advanceSearchFilterEv
libdde-file-manager.so.1:_ZN16DFileSystemModel19selectAndRenameFileERK4DUrl
libdde-file-manager.so.1:_ZN16DFileSystemModel19setColumnActiveRoleEii
libdde-file-manager.so.1:_ZN16DFileSystemModel22setAdvanceSearchFilterERK4QMapIi8QVariantEb
libdde-file-manager.so.1:_ZN16DFileSystemModel24applyAdvanceSearchFilterEv
libdde-file-manager.so.1:_ZN16DFileSystemModel25updateChildrenOnNewThreadE5QListI28QExplicitlySharedDataPointerI17DAbstractFileInfoEE
libdde-file-manager.so.1:_ZN16DFileSystemModel4sortEb
libdde-file-manager.so.1:_ZN16DFileSystemModel4sortEiN2Qt9SortOrderE
libdde-file-manager.so.1:_ZN16DFileSystemModel4sortEv
libdde-file-manager.so.1:_ZN16DFileSystemModel5clearEv
libdde-file-manager.so.1:_ZN16DFileSystemModel5indexERK4DUrli
libdde-file-manager.so.1:_ZN16DFileSystemModel6removeERK4DUrl
libdde-file-manager.so.1:_ZN16DFileSystemModel6updateEv
libdde-file-manager.so.1:_ZN16DFileSystemModel7addFileERK28QExplicitlySharedDataPointerI17DAbstractFileInfoE
libdde-file-manager.so.1:_ZN16DFileSystemModel7refreshERK4DUrl
libdde-file-manager.so.1:_ZN16DFileSystemModel8roleNameEi
libdde-file-manager.so.1:_ZN16DFileSystemModel8setStateENS_5StateE
libdde-file-manager.so.1:_ZN16DFileSystemModel9fetchMoreERK11QModelIndex
libdde-file-manager.so.1:_ZN16DFileSystemModelC1EP15DFileViewHelper
libdde-file-manager.so.1:_ZN16DFileSystemModelC2EP15DFileViewHelper
libdde-file-manager.so.1:_ZN16DFileSystemModelD0Ev
libdde-file-manager.so.1:_ZN16DFileSystemModelD1Ev
libdde-file-manager.so.1:_ZN16DFileSystemModelD2Ev
libdde-file-manager.so.1:_ZN16DFileViewPrivate15pureResizeEventEP12QResizeEvent
libdde-file-manager.so.1:_ZN16DFileViewPrivate18fileViewStateValueERK4DUrlRK7QStringRK8QVariant
libdde-file-manager.so.1:_ZN16DFileViewPrivate19doFileNameColResizeEv
libdde-file-manager.so.1:_ZN16DFileViewPrivate20toggleHeaderViewSnapEb
libdde-file-manager.so.1:_ZN16DFileViewPrivate21setFileViewStateValueERK4DUrlRK7QStringRK8QVariant
libdde-file-manager.so.1:_ZN16DFileViewPrivate31_q_onSectionHandleDoubleClickedEi
libdde-file-manager.so.1:_ZN16DFileViewPrivate33updateHorizontalScrollBarPositionEv
libdde-file-manager.so.1:_ZN16DTagActionWidget11initConnectEv
libdde-file-manager.so.1:_ZN16DTagActionWidget11qt_metacallEN11QMetaObject4CallEiPPv
libdde-file-manager.so.1:_ZN16DTagActionWidget11qt_metacastEPKc
libdde-file-manager.so.1:_ZN16DTagActionWidget12setExclusiveEb
libdde-file-manager.so.1:_ZN16DTagActionWidget14setToolTipTextERK7QString
libdde-file-manager.so.1:_ZN16DTagActionWidget16clearToolTipTextEv
libdde-file-manager.so.1:_ZN16DTagActionWidget16setCentralLayoutEv
libdde-file-manager.so.1:_ZN16DTagActionWidget17hoverColorChangedERK6QColor
libdde-file-manager.so.1:_ZN16DTagActionWidget17setToolTipVisibleEb
libdde-file-manager.so.1:_ZN16DTagActionWidget19setCheckedColorListERK5QListI6QColorE
libdde-file-manager.so.1:_ZN16DTagActionWidgetC1EP7QWidget
libdde-file-manager.so.1:_ZN16DTagActionWidgetC2EP7QWidget
libdde-file-manager.so.1:_ZN16FileBatchProcess16batchProcessFileERK14QSharedPointerI4QMapI4DUrlS2_EE
libdde-file-manager.so.1:_ZN16FileSortFunction15compareByStringERK7QStringS2_N2Qt9SortOrderE
libdde-file-manager.so.1:_ZN16FileSortFunction21compareFileListByMimeERK28QExplicitlySharedDataPointerI17DAbstractFileInfoES4_N2Qt9SortOrderE
libdde-file-manager.so.1:_ZN16FileSortFunction21compareFileListBySizeERK28QExplicitlySharedDataPointerI17DAbstractFileInfoES4_N2Qt9SortOrderE
libdde-file-manager.so.1:_ZN16FileSortFunction24compareFileListByCreatedERK28QExplicitlySharedDataPointerI17DAbstractFileInfoES4_N2Qt9SortOrderE
libdde-file-manager.so.1:_ZN16FileSortFunction25compareFileListByFilePathERK28QExplicitlySharedDataPointerI17DAbstractFileInfoES4_N2Qt9SortOrderE
libdde-file-manager.so.1:_ZN16FileSortFunction25compareFileListByLastReadERK28QExplicitlySharedDataPointerI17DAbstractFileInfoES4_N2Qt9SortOrderE
libdde-file-manager.so.1:_ZN16FileSortFunction25compareFileListByModifiedERK28QExplicitlySharedDataPointerI17DAbstractFileInfoES4_N2Qt9SortOrderE
libdde-file-manager.so.1:_ZN16FileSortFunction28compareFileListByDisplayNameERK28QExplicitlySharedDataPointerI17DAbstractFileInfoES4_N2Qt9SortOrderE
libdde-file-manager.so.1:_ZN16FileSortFunction29compareFileListByDeletionDateERK28QExplicitlySharedDataPointerI17DAbstractFileInfoES4_N2Qt9SortOrderE
libdde-file-manager.so.1:_ZN16FileSortFunction29compareFileListByLastReadTimeERK28QExplicitlySharedDataPointerI17DAbstractFileInfoES4_N2Qt9SortOrderE
libdde-file-manager.so.1:_ZN16FileSortFunction31compareFileListBySourceFilePathERK28QExplicitlySharedDataPointerI17DAbstractFileInfoES4_N2Qt9SortOrderE
libdde-file-manager.so.1:_ZN16GvfsMountManager10getVolumesEP6_GList
libdde-file-manager.so.1:_ZN16GvfsMountManager10listDrivesEv
libdde-file-manager.so.1:_ZN16GvfsMountManager10listMountsEv
libdde-file-manager.so.1:_ZN16GvfsMountManager11getDiskInfoERK7QString
libdde-file-manager.so.1:_ZN16GvfsMountManager11initConnectEv
libdde-file-manager.so.1:_ZN16GvfsMountManager11listVolumesEv
libdde-file-manager.so.1:_ZN16GvfsMountManager11mount_addedERK9QDiskInfo
libdde-file-manager.so.1:_ZN16GvfsMountManager11qt_metacallEN11QMetaObject4CallEiPPv
libdde-file-manager.so.1:_ZN16GvfsMountManager11qt_metacastEPKc
libdde-file-manager.so.1:_ZN16GvfsMountManager11stop_deviceERK7QString
libdde-file-manager.so.1:_ZN16GvfsMountManager12eject_deviceERK7QString
libdde-file-manager.so.1:_ZN16GvfsMountManager12getIconNamesEP12_GThemedIcon
libdde-file-manager.so.1:_ZN16GvfsMountManager12mount_deviceERK7QStringb
libdde-file-manager.so.1:_ZN16GvfsMountManager12new_mount_opEv
libdde-file-manager.so.1:_ZN16GvfsMountManager12startMonitorEv
libdde-file-manager.so.1:_ZN16GvfsMountManager12volume_addedERK9QDiskInfo
libdde-file-manager.so.1:_ZN16GvfsMountManager13eject_mountedERK7QString
libdde-file-manager.so.1:_ZN16GvfsMountManager13mount_mountedERK7QStringb
libdde-file-manager.so.1:_ZN16GvfsMountManager13mount_removedERK9QDiskInfo
libdde-file-manager.so.1:_ZN16GvfsMountManager14gDriveToqDriveEP7_GDrive
libdde-file-manager.so.1:_ZN16GvfsMountManager14gMountToqMountEP7_GMount
libdde-file-manager.so.1:_ZN16GvfsMountManager14volume_changedERK9QDiskInfo
libdde-file-manager.so.1:_ZN16GvfsMountManager14volume_removedERK9QDiskInfo
libdde-file-manager.so.1:_ZN16GvfsMountManager15ask_password_cbEP16_GMountOperationPKcS3_S3_17GAskPasswordFlags
libdde-file-manager.so.1:_ZN16GvfsMountManager15drive_connectedERK6QDrive
libdde-file-manager.so.1:_ZN16GvfsMountManager15getRealMountUrlERK9QDiskInfo
libdde-file-manager.so.1:_ZN16GvfsMountManager15unmount_done_cbEP8_GObjectP13_GAsyncResultPv
libdde-file-manager.so.1:_ZN16GvfsMountManager15unmount_mountedERK7QString
libdde-file-manager.so.1:_ZN16GvfsMountManager15updateDiskInfosEv
libdde-file-manager.so.1:_ZN16GvfsMountManager16gVolumeToqVolumeEP8_GVolume
libdde-file-manager.so.1:_ZN16GvfsMountManager17autoMountAllDisksEv
libdde-file-manager.so.1:_ZN16GvfsMountManager17listMountsBylsblkEv
libdde-file-manager.so.1:_ZN16GvfsMountManager17printVolumeMountsEv
libdde-file-manager.so.1:_ZN16GvfsMountManager17qMountToqDiskinfoERK6QMount
libdde-file-manager.so.1:_ZN16GvfsMountManager18drive_disconnectedERK6QDrive
libdde-file-manager.so.1:_ZN16GvfsMountManager18getDriveUnixDeviceERK7QString
libdde-file-manager.so.1:_ZN16GvfsMountManager18qVolumeToqDiskInfoERK7QVolume
libdde-file-manager.so.1:_ZN16GvfsMountManager19errorCodeNeedSilentEi
libdde-file-manager.so.1:_ZN16GvfsMountManager19isDeviceCrypto_LUKSERK9QDiskInfo
libdde-file-manager.so.1:_ZN16GvfsMountManager19monitor_mount_addedEP15_GVolumeMonitorP7_GMount
libdde-file-manager.so.1:_ZN16GvfsMountManager20isIgnoreUnusedMountsERK6QMount
libdde-file-manager.so.1:_ZN16GvfsMountManager20loadDiskInfoFinishedEv
libdde-file-manager.so.1:_ZN16GvfsMountManager20monitor_volume_addedEP15_GVolumeMonitorP8_GVolume
libdde-file-manager.so.1:_ZN16GvfsMountManager21getVolumeByUnixDeviceERK7QString
libdde-file-manager.so.1:_ZN16GvfsMountManager21monitor_mount_changedEP15_GVolumeMonitorP7_GMount
libdde-file-manager.so.1:_ZN16GvfsMountManager21monitor_mount_removedEP15_GVolumeMonitorP7_GMount
libdde-file-manager.so.1:_ZN16GvfsMountManager22monitor_volume_changedEP15_GVolumeMonitorP8_GVolume
libdde-file-manager.so.1:_ZN16GvfsMountManager22monitor_volume_removedEP15_GVolumeMonitorP8_GVolume
libdde-file-manager.so.1:_ZN16GvfsMountManager23monitor_drive_connectedEP15_GVolumeMonitorP7_GDrive
libdde-file-manager.so.1:_ZN16GvfsMountManager24monitor_mount_added_rootEP15_GVolumeMonitorP7_GMount
libdde-file-manager.so.1:_ZN16GvfsMountManager24stop_with_device_file_cbEP8_GObjectP13_GAsyncResultPv
libdde-file-manager.so.1:_ZN16GvfsMountManager25eject_with_device_file_cbEP8_GObjectP13_GAsyncResultPv
libdde-file-manager.so.1:_ZN16GvfsMountManager25getVolumeByMountedRootUriERK7QString
libdde-file-manager.so.1:_ZN16GvfsMountManager25mount_with_device_file_cbEP8_GObjectP13_GAsyncResultPv
libdde-file-manager.so.1:_ZN16GvfsMountManager26eject_with_mounted_file_cbEP8_GObjectP13_GAsyncResultPv
libdde-file-manager.so.1:_ZN16GvfsMountManager26monitor_drive_disconnectedEP15_GVolumeMonitorP7_GDrive
libdde-file-manager.so.1:_ZN16GvfsMountManager26monitor_mount_removed_rootEP15_GVolumeMonitorP7_GMount
libdde-file-manager.so.1:_ZN16GvfsMountManager27mount_with_mounted_uri_doneEP8_GObjectP13_GAsyncResultPv
libdde-file-manager.so.1:_ZN16GvfsMountManager5ejectERK7QString
libdde-file-manager.so.1:_ZN16GvfsMountManager5ejectERK9QDiskInfo
libdde-file-manager.so.1:_ZN16GvfsMountManager5isDVDERK7QVolume
libdde-file-manager.so.1:_ZN16GvfsMountManager5mountERK7QStringb
libdde-file-manager.so.1:_ZN16GvfsMountManager5mountERK9QDiskInfob
libdde-file-manager.so.1:_ZN16GvfsMountManager7unmountERK7QString
libdde-file-manager.so.1:_ZN16GvfsMountManager7unmountERK9QDiskInfo
libdde-file-manager.so.1:_ZN16GvfsMountManager8instanceEv
libdde-file-manager.so.1:_ZN16GvfsMountManager9getDrivesEP6_GList
libdde-file-manager.so.1:_ZN16GvfsMountManager9getMountsEP6_GList
libdde-file-manager.so.1:_ZN16GvfsMountManagerC1EP7QObject
libdde-file-manager.so.1:_ZN16GvfsMountManagerC2EP7QObject
libdde-file-manager.so.1:_ZN16MimesAppsManager11getMimeTypeERK7QString
libdde-file-manager.so.1:_ZN16MimesAppsManager11qt_metacallEN11QMetaObject4CallEiPPv
libdde-file-manager.so.1:_ZN16MimesAppsManager11qt_metacastEPKc
libdde-file-manager.so.1:_ZN16MimesAppsManager14getDesktopObjsEv
libdde-file-manager.so.1:_ZN16MimesAppsManager14lessByDateTimeERK9QFileInfoS2_
libdde-file-manager.so.1:_ZN16MimesAppsManager15getDesktopFilesEv
libdde-file-manager.so.1:_ZN16MimesAppsManager16initMimeTypeAppsEv
libdde-file-manager.so.1:_ZN16MimesAppsManager16loadDDEMimeTypesEv
libdde-file-manager.so.1:_ZN16MimesAppsManager18getDDEMimeTypeFileEv
libdde-file-manager.so.1:_ZN16MimesAppsManager18getRecommendedAppsERK4DUrl
libdde-file-manager.so.1:_ZN16MimesAppsManager18requestUpdateCacheEv
libdde-file-manager.so.1:_ZN16MimesAppsManager20getMimeAppsCacheFileEv
libdde-file-manager.so.1:_ZN16MimesAppsManager20removeOneDupFromListER11QStringList7QString
libdde-file-manager.so.1:_ZN16MimesAppsManager21getMimeTypeByFileNameERK7QString
libdde-file-manager.so.1:_ZN16MimesAppsManager22getApplicationsFoldersEv
libdde-file-manager.so.1:_ZN16MimesAppsManager23getDefaultAppByFileNameERK7QString
libdde-file-manager.so.1:_ZN16MimesAppsManager23getDefaultAppByMimeTypeERK7QString
libdde-file-manager.so.1:_ZN16MimesAppsManager23getDefaultAppByMimeTypeERK9QMimeType
libdde-file-manager.so.1:_ZN16MimesAppsManager23getRecommendedAppsByGioERK7QString
libdde-file-manager.so.1:_ZN16MimesAppsManager23getRecommendedAppsByQioERK9QMimeType
libdde-file-manager.so.1:_ZN16MimesAppsManager24getDesktopFilesCacheFileEv
libdde-file-manager.so.1:_ZN16MimesAppsManager24getDesktopIconsCacheFileEv
libdde-file-manager.so.1:_ZN16MimesAppsManager24getMimeInfoCacheFilePathEv
libdde-file-manager.so.1:_ZN16MimesAppsManager25setDefautlAppForTypeByGioERK7QStringS2_
libdde-file-manager.so.1:_ZN16MimesAppsManager28getMimeInfoCacheFileRootPathEv
libdde-file-manager.so.1:_ZN16MimesAppsManager29getDefaultAppDisplayNameByGioERK7QString
libdde-file-manager.so.1:_ZN16MimesAppsManager34getDefaultAppDesktopFileByMimeTypeERK7QString
libdde-file-manager.so.1:_ZN16MimesAppsManager34getDefaultAppDisplayNameByMimeTypeERK9QMimeType
libdde-file-manager.so.1:_ZN16MimesAppsManager35getrecommendedAppsFromMimeWhiteListERK4DUrl
libdde-file-manager.so.1:_ZN16MimesAppsManagerC1EP7QObject
libdde-file-manager.so.1:_ZN16MimesAppsManagerC2EP7QObject
libdde-file-manager.so.1:_ZN16MimesAppsManagerD0Ev
libdde-file-manager.so.1:_ZN16MimesAppsManagerD1Ev
libdde-file-manager.so.1:_ZN16MimesAppsManagerD2Ev
libdde-file-manager.so.1:_ZN16RecentController11qt_metacallEN11QMetaObject4CallEiPPv
libdde-file-manager.so.1:_ZN16RecentController11qt_metacastEPKc
libdde-file-manager.so.1:_ZN16RecentController11realUrlListERK5QListI4DUrlE
libdde-file-manager.so.1:_ZN16RecentController17handleFileChangedEv
libdde-file-manager.so.1:_ZN16RecentController22asyncHandleFileChangedEv
libdde-file-manager.so.1:_ZN16RecentControllerC1EP7QObject
libdde-file-manager.so.1:_ZN16RecentControllerC2EP7QObject
libdde-file-manager.so.1:_ZN16SearchController11qt_metacallEN11QMetaObject4CallEiPPv
libdde-file-manager.so.1:_ZN16SearchController11qt_metacastEPKc
libdde-file-manager.so.1:_ZN16SearchController11realUrlListERK5QListI4DUrlE
libdde-file-manager.so.1:_ZN16SearchController7realUrlERK4DUrl
libdde-file-manager.so.1:_ZN16SearchControllerC1EP7QObject
libdde-file-manager.so.1:_ZN16SearchControllerC2EP7QObject
libdde-file-manager.so.1:_ZN16ShareFileWatcher16onUserShareAddedERK7QString
libdde-file-manager.so.1:_ZN16ShareFileWatcher18onUserShareDeletedERK7QString
libdde-file-manager.so.1:_ZN16ShareFileWatcherC1EP7QObject
libdde-file-manager.so.1:_ZN16ShareFileWatcherC2EP7QObject
libdde-file-manager.so.1:_ZN16TrashDirIterator4nextEv
libdde-file-manager.so.1:_ZN16TrashDirIteratorC1ERK4DUrlRK11QStringList6QFlagsIN4QDir6FilterEES6_IN12QDirIterator12IteratorFlagEE
libdde-file-manager.so.1:_ZN16TrashDirIteratorC2ERK4DUrlRK11QStringList6QFlagsIN4QDir6FilterEES6_IN12QDirIterator12IteratorFlagEE
libdde-file-manager.so.1:_ZN16UserShareManager11initConnectEv
libdde-file-manager.so.1:_ZN16UserShareManager11qt_metacallEN11QMetaObject4CallEiPPv
libdde-file-manager.so.1:_ZN16UserShareManager11qt_metacastEPKc
libdde-file-manager.so.1:_ZN16UserShareManager12addUserShareERK9ShareInfo
libdde-file-manager.so.1:_ZN16UserShareManager12getCacehPathEv
libdde-file-manager.so.1:_ZN16UserShareManager13onFileDeletedERK7QString
libdde-file-manager.so.1:_ZN16UserShareManager14userShareAddedERK7QString
libdde-file-manager.so.1:_ZN16UserShareManager15initMonitorPathEv
libdde-file-manager.so.1:_ZN16UserShareManager16setSambaPasswordERK7QStringS2_
libdde-file-manager.so.1:_ZN16UserShareManager16userShareDeletedERK7QString
libdde-file-manager.so.1:_ZN16UserShareManager16writeCacheToFileERK7QStringS2_
libdde-file-manager.so.1:_ZN16UserShareManager17readCacheFromFileERK7QString
libdde-file-manager.so.1:_ZN16UserShareManager18getCurrentUserNameEv
libdde-file-manager.so.1:_ZN16UserShareManager18handleShareChangedERK7QString
libdde-file-manager.so.1:_ZN16UserShareManager19restartSambaServiceEv
libdde-file-manager.so.1:_ZN16UserShareManager19updateUserShareInfoEv
libdde-file-manager.so.1:_ZN16UserShareManager21deleteUserShareByPathERK7QString
libdde-file-manager.so.1:_ZN16UserShareManager21userShareCountChangedERKi
libdde-file-manager.so.1:_ZN16UserShareManager21usershareCountchangedEv
libdde-file-manager.so.1:_ZN16UserShareManager23initSamaServiceSettingsEv
libdde-file-manager.so.1:_ZN16UserShareManager23testUpdateUserShareInfoEv
libdde-file-manager.so.1:_ZN16UserShareManager26deleteUserShareByShareNameERK7QString
libdde-file-manager.so.1:_ZN16UserShareManager26loadUserShareInfoPathNamesEv
libdde-file-manager.so.1:_ZN16UserShareManager26saveUserShareInfoPathNamesEv
libdde-file-manager.so.1:_ZN16UserShareManager31addCurrentUserToSambashareGroupEv
libdde-file-manager.so.1:_ZN16UserShareManagerC1EP7QObject
libdde-file-manager.so.1:_ZN16UserShareManagerC2EP7QObject
libdde-file-manager.so.1:_ZN16UserShareManagerD0Ev
libdde-file-manager.so.1:_ZN16UserShareManagerD1Ev
libdde-file-manager.so.1:_ZN16UserShareManagerD2Ev
libdde-file-manager.so.1:_ZN16dde_file_manager10DFMSideBar10insertItemEiPNS_14DFMSideBarItemERK7QString
libdde-file-manager.so.1:_ZN16dde_file_manager10DFMSideBar10removeItemEPNS_14DFMSideBarItemE
libdde-file-manager.so.1:_ZN16dde_file_manager10DFMSideBar10removeItemEiRK7QString
libdde-file-manager.so.1:_ZN16dde_file_manager10DFMSideBar11qt_metacallEN11QMetaObject4CallEiPPv
libdde-file-manager.so.1:_ZN16dde_file_manager10DFMSideBar11qt_metacastEPKc
libdde-file-manager.so.1:_ZN16dde_file_manager10DFMSideBar11resizeEventEP12QResizeEvent
libdde-file-manager.so.1:_ZN16dde_file_manager10DFMSideBar13groupFromNameERK7QString
libdde-file-manager.so.1:_ZN16dde_file_manager10DFMSideBar13setCurrentUrlERK4DUrl
libdde-file-manager.so.1:_ZN16dde_file_manager10DFMSideBar20setDisableUrlSchemesERK4QSetI7QStringE
libdde-file-manager.so.1:_ZN16dde_file_manager10DFMSideBar21setContextMenuEnabledEb
libdde-file-manager.so.1:_ZN16dde_file_manager10DFMSideBar21setGroupSaveItemOrderEbRK7QString
libdde-file-manager.so.1:_ZN16dde_file_manager10DFMSideBar7addItemEPNS_14DFMSideBarItemERK7QString
libdde-file-manager.so.1:_ZN16dde_file_manager10DFMSideBar7clickedEPNS_14DFMSideBarItemE
libdde-file-manager.so.1:_ZN16dde_file_manager10DFMSideBar8takeItemEiRK7QString
libdde-file-manager.so.1:_ZN16dde_file_manager10DFMSideBar9groupNameENS0_9GroupNameE
libdde-file-manager.so.1:_ZN16dde_file_manager10DFMSideBarC1EP7QWidget
libdde-file-manager.so.1:_ZN16dde_file_manager10DFMSideBarC2EP7QWidget
libdde-file-manager.so.1:_ZN16dde_file_manager10DFMSideBarD0Ev
libdde-file-manager.so.1:_ZN16dde_file_manager10DFMSideBarD1Ev
libdde-file-manager.so.1:_ZN16dde_file_manager10DFMSideBarD2Ev
libdde-file-manager.so.1:_ZN16dde_file_manager11DFMBaseView11deleteLaterEv
libdde-file-manager.so.1:_ZN16dde_file_manager11DFMBaseView11requestCdToERK4DUrl
libdde-file-manager.so.1:_ZN16dde_file_manager11DFMBaseView16notifyUrlChangedEv
libdde-file-manager.so.1:_ZN16dde_file_manager11DFMBaseView18notifyStateChangedEv
libdde-file-manager.so.1:_ZN16dde_file_manager11DFMBaseView7refreshEv
libdde-file-manager.so.1:_ZN16dde_file_manager11DFMBaseViewC1Ev
libdde-file-manager.so.1:_ZN16dde_file_manager11DFMBaseViewC2Ev
libdde-file-manager.so.1:_ZN16dde_file_manager11DFMBaseViewD0Ev
libdde-file-manager.so.1:_ZN16dde_file_manager11DFMBaseViewD1Ev
libdde-file-manager.so.1:_ZN16dde_file_manager11DFMBaseViewD2Ev
libdde-file-manager.so.1:_ZN16dde_file_manager11DFMCrumbBar10paintEventEP11QPaintEvent
libdde-file-manager.so.1:_ZN16dde_file_manager11DFMCrumbBar11eventFilterEP7QObjectP6QEvent
libdde-file-manager.so.1:_ZN16dde_file_manager11DFMCrumbBar11qt_metacallEN11QMetaObject4CallEiPPv
libdde-file-manager.so.1:_ZN16dde_file_manager11DFMCrumbBar11qt_metacastEPKc
libdde-file-manager.so.1:_ZN16dde_file_manager11DFMCrumbBar11resizeEventEP12QResizeEvent
libdde-file-manager.so.1:_ZN16dde_file_manager11DFMCrumbBar12updateCrumbsERK4DUrl
libdde-file-manager.so.1:_ZN16dde_file_manager11DFMCrumbBar14hideAddressBarEv
libdde-file-manager.so.1:_ZN16dde_file_manager11DFMCrumbBar14showAddressBarERK4DUrl
libdde-file-manager.so.1:_ZN16dde_file_manager11DFMCrumbBar14showAddressBarERK7QString
libdde-file-manager.so.1:_ZN16dde_file_manager11DFMCrumbBar15addressBarShownEv
libdde-file-manager.so.1:_ZN16dde_file_manager11DFMCrumbBar15mousePressEventEP11QMouseEvent
libdde-file-manager.so.1:_ZN16dde_file_manager11DFMCrumbBar16addressBarHiddenEv
libdde-file-manager.so.1:_ZN16dde_file_manager11DFMCrumbBar16crumbItemClickedEPNS_12DFMCrumbItemE
libdde-file-manager.so.1:_ZN16dde_file_manager11DFMCrumbBar16updateCurrentUrlERK4DUrl
libdde-file-manager.so.1:_ZN16dde_file_manager11DFMCrumbBar17mouseReleaseEventEP11QMouseEvent
libdde-file-manager.so.1:_ZN16dde_file_manager11DFMCrumbBar23playAddressBarAnimationEv
libdde-file-manager.so.1:_ZN16dde_file_manager11DFMCrumbBar23stopAddressBarAnimationEv
libdde-file-manager.so.1:_ZN16dde_file_manager11DFMCrumbBar24addressBarContentEnteredE7QString
libdde-file-manager.so.1:_ZN16dde_file_manager11DFMCrumbBar9showEventEP10QShowEvent
libdde-file-manager.so.1:_ZN16dde_file_manager11DFMCrumbBarC1EP7QWidget
libdde-file-manager.so.1:_ZN16dde_file_manager11DFMCrumbBarC2EP7QWidget
libdde-file-manager.so.1:_ZN16dde_file_manager11DFMCrumbBarD0Ev
libdde-file-manager.so.1:_ZN16dde_file_manager11DFMCrumbBarD1Ev
libdde-file-manager.so.1:_ZN16dde_file_manager11DFMCrumbBarD2Ev
libdde-file-manager.so.1:_ZN16dde_file_manager11DFMSettings10toUrlValueERK8QVariant
libdde-file-manager.so.1:_ZN16dde_file_manager11DFMSettings11qt_metacallEN11QMetaObject4CallEiPPv
libdde-file-manager.so.1:_ZN16dde_file_manager11DFMSettings11qt_metacastEPKc
libdde-file-manager.so.1:_ZN16dde_file_manager11DFMSettings11removeGroupERK7QString
libdde-file-manager.so.1:_ZN16dde_file_manager11DFMSettings11setAutoSyncEb
libdde-file-manager.so.1:_ZN16dde_file_manager11DFMSettings11valueEditedERK7QStringS3_RK8QVariant
libdde-file-manager.so.1:_ZN16dde_file_manager11DFMSettings12valueChangedERK7QStringS3_RK8QVariant
libdde-file-manager.so.1:_ZN16dde_file_manager11DFMSettings13onFileChangedERK4DUrl
libdde-file-manager.so.1:_ZN16dde_file_manager11DFMSettings15setWatchChangesEb
libdde-file-manager.so.1:_ZN16dde_file_manager11DFMSettings16setValueNoNotifyERK7QStringRK4DUrlRK8QVariant
libdde-file-manager.so.1:_ZN16dde_file_manager11DFMSettings16setValueNoNotifyERK7QStringS3_RK8QVariant
libdde-file-manager.so.1:_ZN16dde_file_manager11DFMSettings4syncEv
libdde-file-manager.so.1:_ZN16dde_file_manager11DFMSettings5clearEv
libdde-file-manager.so.1:_ZN16dde_file_manager11DFMSettings6reloadEv
libdde-file-manager.so.1:_ZN16dde_file_manager11DFMSettings6removeERK7QStringRK4DUrl
libdde-file-manager.so.1:_ZN16dde_file_manager11DFMSettings6removeERK7QStringS3_
libdde-file-manager.so.1:_ZN16dde_file_manager11DFMSettings8setValueERK7QStringRK4DUrlRK8QVariant
libdde-file-manager.so.1:_ZN16dde_file_manager11DFMSettings8setValueERK7QStringS3_RK8QVariant
libdde-file-manager.so.1:_ZN16dde_file_manager11DFMSettingsC1ERK7QStringNS0_10ConfigTypeEP7QObject
libdde-file-manager.so.1:_ZN16dde_file_manager11DFMSettingsC1ERK7QStringS3_S3_P7QObject
libdde-file-manager.so.1:_ZN16dde_file_manager11DFMSettingsC2ERK7QStringNS0_10ConfigTypeEP7QObject
libdde-file-manager.so.1:_ZN16dde_file_manager11DFMSettingsC2ERK7QStringS3_S3_P7QObject
libdde-file-manager.so.1:_ZN16dde_file_manager11DFMSettingsD0Ev
libdde-file-manager.so.1:_ZN16dde_file_manager11DFMSettingsD1Ev
libdde-file-manager.so.1:_ZN16dde_file_manager11DFMSettingsD2Ev
libdde-file-manager.so.1:_ZN16dde_file_manager11DFileDevice10setFileUrlERK4DUrl
libdde-file-manager.so.1:_ZN16dde_file_manager11DFileDevice10syncToDiskEv
libdde-file-manager.so.1:_ZN16dde_file_manager11DFileDevice11qt_metacallEN11QMetaObject4CallEiPPv
libdde-file-manager.so.1:_ZN16dde_file_manager11DFileDevice11qt_metacastEPKc
libdde-file-manager.so.1:_ZN16dde_file_manager11DFileDevice5flushEv
libdde-file-manager.so.1:_ZN16dde_file_manager11DFileDevice6resizeEx
libdde-file-manager.so.1:_ZN16dde_file_manager11DFileDeviceC1EP7QObject
libdde-file-manager.so.1:_ZN16dde_file_manager11DFileDeviceC1ERNS_18DFileDevicePrivateEP7QObject
libdde-file-manager.so.1:_ZN16dde_file_manager11DFileDeviceC2EP7QObject
libdde-file-manager.so.1:_ZN16dde_file_manager11DFileDeviceC2ERNS_18DFileDevicePrivateEP7QObject
libdde-file-manager.so.1:_ZN16dde_file_manager11DFileDeviceD0Ev
libdde-file-manager.so.1:_ZN16dde_file_manager11DFileDeviceD1Ev
libdde-file-manager.so.1:_ZN16dde_file_manager11DFileDeviceD2Ev
libdde-file-manager.so.1:_ZN16dde_file_manager11ThemeConfig6updateERK7QString
libdde-file-manager.so.1:_ZN16dde_file_manager11ThemeConfig7instaceEv
libdde-file-manager.so.1:_ZN16dde_file_manager11ThemeConfig8setValueERK7QStringS3_6QFlagsINS0_5StateEERK8QVariant
libdde-file-manager.so.1:_ZN16dde_file_manager11ThemeConfigC1Ev
libdde-file-manager.so.1:_ZN16dde_file_manager11ThemeConfigC2Ev
libdde-file-manager.so.1:_ZN16dde_file_manager12DFMCrumbItem10paintEventEP11QPaintEvent
libdde-file-manager.so.1:_ZN16dde_file_manager12DFMCrumbItem11qt_metacallEN11QMetaObject4CallEiPPv
libdde-file-manager.so.1:_ZN16dde_file_manager12DFMCrumbItem11qt_metacastEPKc
libdde-file-manager.so.1:_ZN16dde_file_manager12DFMCrumbItem15mousePressEventEP11QMouseEvent
libdde-file-manager.so.1:_ZN16dde_file_manager12DFMCrumbItem16contextMenuEventEP17QContextMenuEvent
libdde-file-manager.so.1:_ZN16dde_file_manager12DFMCrumbItem17mouseReleaseEventEP11QMouseEvent
libdde-file-manager.so.1:_ZN16dde_file_manager12DFMCrumbItem22setIconFromThemeConfigERK7QStringS3_
libdde-file-manager.so.1:_ZN16dde_file_manager12DFMCrumbItem6setUrlERK4DUrl
libdde-file-manager.so.1:_ZN16dde_file_manager12DFMCrumbItem7setTextERK7QString
libdde-file-manager.so.1:_ZN16dde_file_manager12DFMCrumbItemC1ERKNS_9CrumbDataEP7QWidget
libdde-file-manager.so.1:_ZN16dde_file_manager12DFMCrumbItemC2ERKNS_9CrumbDataEP7QWidget
libdde-file-manager.so.1:_ZN16dde_file_manager12DFMCrumbItemD0Ev
libdde-file-manager.so.1:_ZN16dde_file_manager12DFMCrumbItemD1Ev
libdde-file-manager.so.1:_ZN16dde_file_manager12DFMCrumbItemD2Ev
libdde-file-manager.so.1:_ZN16dde_file_manager12DFMVfsDevice11detachAsyncEv
libdde-file-manager.so.1:_ZN16dde_file_manager12DFMVfsDevice11qt_metacallEN11QMetaObject4CallEiPPv
libdde-file-manager.so.1:_ZN16dde_file_manager12DFMVfsDevice11qt_metacastEPKc
libdde-file-manager.so.1:_ZN16dde_file_manager12DFMVfsDevice12createUnsafeERK4QUrlP7QObject
libdde-file-manager.so.1:_ZN16dde_file_manager12DFMVfsDevice15setEventHandlerEPNS_26DFMVfsAbstractEventHandlerEP7QThread
libdde-file-manager.so.1:_ZN16dde_file_manager12DFMVfsDevice6attachEv
libdde-file-manager.so.1:_ZN16dde_file_manager12DFMVfsDevice6createERK4QUrlP7QObject
libdde-file-manager.so.1:_ZN16dde_file_manager12DFMVfsDeviceC1ERK4QUrlPvP7QObject
libdde-file-manager.so.1:_ZN16dde_file_manager12DFMVfsDeviceC2ERK4QUrlPvP7QObject
libdde-file-manager.so.1:_ZN16dde_file_manager12DFMVfsDeviceD0Ev
libdde-file-manager.so.1:_ZN16dde_file_manager12DFMVfsDeviceD1Ev
libdde-file-manager.so.1:_ZN16dde_file_manager12DFMVfsDeviceD2Ev
libdde-file-manager.so.1:_ZN16dde_file_manager12DFileHandlerC1ERNS_19DFileHandlerPrivateE
libdde-file-manager.so.1:_ZN16dde_file_manager12DFileHandlerC1Ev
libdde-file-manager.so.1:_ZN16dde_file_manager12DFileHandlerC2ERNS_19DFileHandlerPrivateE
libdde-file-manager.so.1:_ZN16dde_file_manager12DFileHandlerC2Ev
libdde-file-manager.so.1:_ZN16dde_file_manager12DFileHandlerD0Ev
libdde-file-manager.so.1:_ZN16dde_file_manager12DFileHandlerD1Ev
libdde-file-manager.so.1:_ZN16dde_file_manager12DFileHandlerD2Ev
libdde-file-manager.so.1:_ZN16dde_file_manager12DStorageInfo12inSameDeviceE7QStringS1_6QFlagsINS0_8PathHintEE
libdde-file-manager.so.1:_ZN16dde_file_manager12DStorageInfo12inSameDeviceERK4DUrlS3_6QFlagsINS0_8PathHintEE
libdde-file-manager.so.1:_ZN16dde_file_manager12DStorageInfo13isLocalDeviceERK7QString
libdde-file-manager.so.1:_ZN16dde_file_manager12DStorageInfo16isLowSpeedDeviceERK7QString
libdde-file-manager.so.1:_ZN16dde_file_manager12DStorageInfo7refreshEv
libdde-file-manager.so.1:_ZN16dde_file_manager12DStorageInfo7setPathERK7QString6QFlagsINS0_8PathHintEE
libdde-file-manager.so.1:_ZN16dde_file_manager12DStorageInfoC1ERK4QDir6QFlagsINS0_8PathHintEE
libdde-file-manager.so.1:_ZN16dde_file_manager12DStorageInfoC1ERK7QString6QFlagsINS0_8PathHintEE
libdde-file-manager.so.1:_ZN16dde_file_manager12DStorageInfoC1ERKS0_
libdde-file-manager.so.1:_ZN16dde_file_manager12DStorageInfoC1Ev
libdde-file-manager.so.1:_ZN16dde_file_manager12DStorageInfoC2ERK4QDir6QFlagsINS0_8PathHintEE
libdde-file-manager.so.1:_ZN16dde_file_manager12DStorageInfoC2ERK7QString6QFlagsINS0_8PathHintEE
libdde-file-manager.so.1:_ZN16dde_file_manager12DStorageInfoC2ERKS0_
libdde-file-manager.so.1:_ZN16dde_file_manager12DStorageInfoC2Ev
libdde-file-manager.so.1:_ZN16dde_file_manager12DStorageInfoD1Ev
libdde-file-manager.so.1:_ZN16dde_file_manager12DStorageInfoD2Ev
libdde-file-manager.so.1:_ZN16dde_file_manager12DStorageInfoaSERKS0_
libdde-file-manager.so.1:_ZN16dde_file_manager13DFMAddressBar10doCompleteEv
libdde-file-manager.so.1:_ZN16dde_file_manager13DFMAddressBar10paintEventEP11QPaintEvent
libdde-file-manager.so.1:_ZN16dde_file_manager13DFMAddressBar11qt_metacallEN11QMetaObject4CallEiPPv
libdde-file-manager.so.1:_ZN16dde_file_manager13DFMAddressBar11qt_metacastEPKc
libdde-file-manager.so.1:_ZN16dde_file_manager13DFMAddressBar12focusInEventEP11QFocusEvent
libdde-file-manager.so.1:_ZN16dde_file_manager13DFMAddressBar12onTextEditedERK7QString
libdde-file-manager.so.1:_ZN16dde_file_manager13DFMAddressBar12setCompleterEP10QCompleter
libdde-file-manager.so.1:_ZN16dde_file_manager13DFMAddressBar12setIndicatorENS0_13IndicatorTypeE
libdde-file-manager.so.1:_ZN16dde_file_manager13DFMAddressBar13escKeyPressedEv
libdde-file-manager.so.1:_ZN16dde_file_manager13DFMAddressBar13focusOutEventEP11QFocusEvent
libdde-file-manager.so.1:_ZN16dde_file_manager13DFMAddressBar13keyPressEventEP9QKeyEvent
libdde-file-manager.so.1:_ZN16dde_file_manager13DFMAddressBar13playAnimationEv
libdde-file-manager.so.1:_ZN16dde_file_manager13DFMAddressBar13setCurrentUrlERK4DUrl
libdde-file-manager.so.1:_ZN16dde_file_manager13DFMAddressBar13stopAnimationEv
libdde-file-manager.so.1:_ZN16dde_file_manager13DFMAddressBar15initConnectionsEv
libdde-file-manager.so.1:_ZN16dde_file_manager13DFMAddressBar16insertCompletionERK7QString
libdde-file-manager.so.1:_ZN16dde_file_manager13DFMAddressBar18clearButtonPressedEv
libdde-file-manager.so.1:_ZN16dde_file_manager13DFMAddressBar18setPlaceholderTextERK7QString
libdde-file-manager.so.1:_ZN16dde_file_manager13DFMAddressBar19clearCompleterModelEv
libdde-file-manager.so.1:_ZN16dde_file_manager13DFMAddressBar19updateIndicatorIconEv
libdde-file-manager.so.1:_ZN16dde_file_manager13DFMAddressBar20onWidgetThemeChangedEP7QWidget7QString
libdde-file-manager.so.1:_ZN16dde_file_manager13DFMAddressBar21updateCompletionStateERK7QString
libdde-file-manager.so.1:_ZN16dde_file_manager13DFMAddressBar22appendToCompleterModelERK11QStringList
libdde-file-manager.so.1:_ZN16dde_file_manager13DFMAddressBar23onCompletionHighlightedERK7QString
libdde-file-manager.so.1:_ZN16dde_file_manager13DFMAddressBar29onCompletionModelCountChangedEv
libdde-file-manager.so.1:_ZN16dde_file_manager13DFMAddressBar4hideEv
libdde-file-manager.so.1:_ZN16dde_file_manager13DFMAddressBar5eventEP6QEvent
libdde-file-manager.so.1:_ZN16dde_file_manager13DFMAddressBar6initUIEv
libdde-file-manager.so.1:_ZN16dde_file_manager13DFMAddressBar8initDataEv
libdde-file-manager.so.1:_ZN16dde_file_manager13DFMAddressBar9lostFocusEv
libdde-file-manager.so.1:_ZN16dde_file_manager13DFMAddressBar9showEventEP10QShowEvent
libdde-file-manager.so.1:_ZN16dde_file_manager13DFMAddressBarC1EPNS_11DFMCrumbBarE
libdde-file-manager.so.1:_ZN16dde_file_manager13DFMAddressBarC2EPNS_11DFMCrumbBarE
libdde-file-manager.so.1:_ZN16dde_file_manager13DFMDiskDevice11qt_metacallEN11QMetaObject4CallEiPPv
libdde-file-manager.so.1:_ZN16dde_file_manager13DFMDiskDevice11qt_metacastEPKc
libdde-file-manager.so.1:_ZN16dde_file_manager13DFMDiskDevice16setConfigurationERK4QMapI7QString8QVariantES6_
libdde-file-manager.so.1:_ZN16dde_file_manager13DFMDiskDevice5ejectERK4QMapI7QString8QVariantE
libdde-file-manager.so.1:_ZN16dde_file_manager13DFMDiskDevice8powerOffERK4QMapI7QString8QVariantE
libdde-file-manager.so.1:_ZN16dde_file_manager13DFMDiskDeviceC1ERK7QStringP7QObject
libdde-file-manager.so.1:_ZN16dde_file_manager13DFMDiskDeviceC2ERK7QStringP7QObject
libdde-file-manager.so.1:_ZN16dde_file_manager13DFMDiskDeviceD0Ev
libdde-file-manager.so.1:_ZN16dde_file_manager13DFMDiskDeviceD1Ev
libdde-file-manager.so.1:_ZN16dde_file_manager13DFMDiskDeviceD2Ev
libdde-file-manager.so.1:_ZN16dde_file_manager13DFMVfsManager10getVfsListEv
libdde-file-manager.so.1:_ZN16dde_file_manager13DFMVfsManager11qt_metacallEN11QMetaObject4CallEiPPv
libdde-file-manager.so.1:_ZN16dde_file_manager13DFMVfsManager11qt_metacastEPKc
libdde-file-manager.so.1:_ZN16dde_file_manager13DFMVfsManager11vfsAttachedERK4QUrl
libdde-file-manager.so.1:_ZN16dde_file_manager13DFMVfsManager11vfsDetachedERK4QUrl
libdde-file-manager.so.1:_ZN16dde_file_manager13DFMVfsManager15setEventHandlerEPNS_26DFMVfsAbstractEventHandlerEP7QThread
libdde-file-manager.so.1:_ZN16dde_file_manager13DFMVfsManager24vfsDeviceListInfoChangedEv
libdde-file-manager.so.1:_ZN16dde_file_manager13DFMVfsManager6attachERK4QUrl
libdde-file-manager.so.1:_ZN16dde_file_manager13DFMVfsManagerC1EP7QObject
libdde-file-manager.so.1:_ZN16dde_file_manager13DFMVfsManagerC2EP7QObject
libdde-file-manager.so.1:_ZN16dde_file_manager13DFMVfsManagerD0Ev
libdde-file-manager.so.1:_ZN16dde_file_manager13DFMVfsManagerD1Ev
libdde-file-manager.so.1:_ZN16dde_file_manager13DFMVfsManagerD2Ev
libdde-file-manager.so.1:_ZN16dde_file_manager13DFMViewPlugin11qt_metacallEN11QMetaObject4CallEiPPv
libdde-file-manager.so.1:_ZN16dde_file_manager13DFMViewPlugin11qt_metacastEPKc
libdde-file-manager.so.1:_ZN16dde_file_manager13DFMViewPluginC1EP7QObject
libdde-file-manager.so.1:_ZN16dde_file_manager13DFMViewPluginC2EP7QObject
libdde-file-manager.so.1:_ZN16dde_file_manager13DFMViewPluginD0Ev
libdde-file-manager.so.1:_ZN16dde_file_manager13DFMViewPluginD1Ev
libdde-file-manager.so.1:_ZN16dde_file_manager13DFMViewPluginD2Ev
libdde-file-manager.so.1:_ZN16dde_file_manager13DMimeDatabaseC1Ev
libdde-file-manager.so.1:_ZN16dde_file_manager13DMimeDatabaseC2Ev
libdde-file-manager.so.1:_ZN16dde_file_manager14DFMApplication10appSettingEv
libdde-file-manager.so.1:_ZN16dde_file_manager14DFMApplication11qt_metacallEN11QMetaObject4CallEiPPv
libdde-file-manager.so.1:_ZN16dde_file_manager14DFMApplication11qt_metacastEPKc
libdde-file-manager.so.1:_ZN16dde_file_manager14DFMApplication12appAttributeENS0_20ApplicationAttributeE
libdde-file-manager.so.1:_ZN16dde_file_manager14DFMApplication14genericSettingEv
libdde-file-manager.so.1:_ZN16dde_file_manager14DFMApplication15appUrlAttributeENS0_20ApplicationAttributeE
libdde-file-manager.so.1:_ZN16dde_file_manager14DFMApplication15setAppAttributeENS0_20ApplicationAttributeERK8QVariant
libdde-file-manager.so.1:_ZN16dde_file_manager14DFMApplication15viewModeChangedEi
libdde-file-manager.so.1:_ZN16dde_file_manager14DFMApplication16genericAttributeENS0_16GenericAttributeE
libdde-file-manager.so.1:_ZN16dde_file_manager14DFMApplication16syncAppAttributeEv
libdde-file-manager.so.1:_ZN16dde_file_manager14DFMApplication17appSettingCreatedEPNS_11DFMSettingsE
libdde-file-manager.so.1:_ZN16dde_file_manager14DFMApplication18appAttributeEditedENS0_20ApplicationAttributeERK8QVariant
libdde-file-manager.so.1:_ZN16dde_file_manager14DFMApplication18appObtuselySettingEv
libdde-file-manager.so.1:_ZN16dde_file_manager14DFMApplication19appAttributeChangedENS0_20ApplicationAttributeERK8QVariant
libdde-file-manager.so.1:_ZN16dde_file_manager14DFMApplication19setGenericAttributeENS0_16GenericAttributeERK8QVariant
libdde-file-manager.so.1:_ZN16dde_file_manager14DFMApplication20iconSizeLevelChangedEi
libdde-file-manager.so.1:_ZN16dde_file_manager14DFMApplication20recentDisplayChangedEb
libdde-file-manager.so.1:_ZN16dde_file_manager14DFMApplication20syncGenericAttributeEv
libdde-file-manager.so.1:_ZN16dde_file_manager14DFMApplication21genericSettingCreatedEPNS_11DFMSettingsE
libdde-file-manager.so.1:_ZN16dde_file_manager14DFMApplication21onSettingsValueEditedERK7QStringS3_RK8QVariant
libdde-file-manager.so.1:_ZN16dde_file_manager14DFMApplication22genericAttributeEditedENS0_16GenericAttributeERK8QVariant
libdde-file-manager.so.1:_ZN16dde_file_manager14DFMApplication22genericObtuselySettingEv
libdde-file-manager.so.1:_ZN16dde_file_manager14DFMApplication22onSettingsValueChangedERK7QStringS3_RK8QVariant
libdde-file-manager.so.1:_ZN16dde_file_manager14DFMApplication23genericAttributeChangedENS0_16GenericAttributeERK8QVariant
libdde-file-manager.so.1:_ZN16dde_file_manager14DFMApplication23previewAttributeChangedENS0_16GenericAttributeEb
libdde-file-manager.so.1:_ZN16dde_file_manager14DFMApplication24showedHiddenFilesChangedEb
libdde-file-manager.so.1:_ZN16dde_file_manager14DFMApplication26previewCompressFileChangedEb
libdde-file-manager.so.1:_ZN16dde_file_manager14DFMApplication32csdClickableAreaAttributeChangedEb
libdde-file-manager.so.1:_ZN16dde_file_manager14DFMApplication8instanceEv
libdde-file-manager.so.1:_ZN16dde_file_manager14DFMApplicationC1EP7QObject
libdde-file-manager.so.1:_ZN16dde_file_manager14DFMApplicationC1EPNS_21DFMApplicationPrivateEP7QObject
libdde-file-manager.so.1:_ZN16dde_file_manager14DFMApplicationC2EP7QObject
libdde-file-manager.so.1:_ZN16dde_file_manager14DFMApplicationC2EPNS_21DFMApplicationPrivateEP7QObject
libdde-file-manager.so.1:_ZN16dde_file_manager14DFMApplicationD0Ev
libdde-file-manager.so.1:_ZN16dde_file_manager14DFMApplicationD1Ev
libdde-file-manager.so.1:_ZN16dde_file_manager14DFMApplicationD2Ev
libdde-file-manager.so.1:_ZN16dde_file_manager14DFMBlockDevice10openDeviceERK7QStringRK4QMapIS1_8QVariantE
libdde-file-manager.so.1:_ZN16dde_file_manager14DFMBlockDevice11isEncryptedERK7QString
libdde-file-manager.so.1:_ZN16dde_file_manager14DFMBlockDevice11qt_metacallEN11QMetaObject4CallEiPPv
libdde-file-manager.so.1:_ZN16dde_file_manager14DFMBlockDevice11qt_metacastEPKc
libdde-file-manager.so.1:_ZN16dde_file_manager14DFMBlockDevice11sizeChangedEy
libdde-file-manager.so.1:_ZN16dde_file_manager14DFMBlockDevice12hasPartitionERK7QString
libdde-file-manager.so.1:_ZN16dde_file_manager14DFMBlockDevice13fsTypeChangedEv
libdde-file-manager.so.1:_ZN16dde_file_manager14DFMBlockDevice13hasFileSystemERK7QString
libdde-file-manager.so.1:_ZN16dde_file_manager14DFMBlockDevice13idTypeChangedE7QString
libdde-file-manager.so.1:_ZN16dde_file_manager14DFMBlockDevice13idUUIDChangedE7QString
libdde-file-manager.so.1:_ZN16dde_file_manager14DFMBlockDevice13mDRaidChangedE7QString
libdde-file-manager.so.1:_ZN16dde_file_manager14DFMBlockDevice13openForBackupERK4QMapI7QString8QVariantE
libdde-file-manager.so.1:_ZN16dde_file_manager14DFMBlockDevice13ptTypeChangedEv
libdde-file-manager.so.1:_ZN16dde_file_manager14DFMBlockDevice14idLabelChangedE7QString
libdde-file-manager.so.1:_ZN16dde_file_manager14DFMBlockDevice14idUsageChangedE7QString
libdde-file-manager.so.1:_ZN16dde_file_manager14DFMBlockDevice14openForRestoreERK4QMapI7QString8QVariantE
libdde-file-manager.so.1:_ZN16dde_file_manager14DFMBlockDevice15hintAutoChangedEb
libdde-file-manager.so.1:_ZN16dde_file_manager14DFMBlockDevice15hintNameChangedE7QString
libdde-file-manager.so.1:_ZN16dde_file_manager14DFMBlockDevice15readOnlyChangedEb
libdde-file-manager.so.1:_ZN16dde_file_manager14DFMBlockDevice15setWatchChangesEb
libdde-file-manager.so.1:_ZN16dde_file_manager14DFMBlockDevice15symlinksChangedE5QListI10QByteArrayE
libdde-file-manager.so.1:_ZN16dde_file_manager14DFMBlockDevice16changePassphraseERK7QStringS3_RK4QMapIS1_8QVariantE
libdde-file-manager.so.1:_ZN16dde_file_manager14DFMBlockDevice16idVersionChangedE7QString
libdde-file-manager.so.1:_ZN16dde_file_manager14DFMBlockDevice16openForBenchmarkERK4QMapI7QString8QVariantE
libdde-file-manager.so.1:_ZN16dde_file_manager14DFMBlockDevice17hintIgnoreChangedEb
libdde-file-manager.so.1:_ZN16dde_file_manager14DFMBlockDevice17onInterfacesAddedERK15QDBusObjectPathRK4QMapI7QStringS4_IS5_8QVariantEE
libdde-file-manager.so.1:_ZN16dde_file_manager14DFMBlockDevice18isEncryptedChangedEb
libdde-file-manager.so.1:_ZN16dde_file_manager14DFMBlockDevice18mountPointsChangedERK5QListI10QByteArrayE
libdde-file-manager.so.1:_ZN16dde_file_manager14DFMBlockDevice19hasPartitionChangedEb
libdde-file-manager.so.1:_ZN16dde_file_manager14DFMBlockDevice19hintIconNameChangedE7QString
libdde-file-manager.so.1:_ZN16dde_file_manager14DFMBlockDevice19mDRaidMemberChangedE7QString
libdde-file-manager.so.1:_ZN16dde_file_manager14DFMBlockDevice19onInterfacesRemovedERK15QDBusObjectPathRK11QStringList
libdde-file-manager.so.1:_ZN16dde_file_manager14DFMBlockDevice19onPropertiesChangedERK7QStringRK4QMapIS1_8QVariantE
libdde-file-manager.so.1:_ZN16dde_file_manager14DFMBlockDevice20addConfigurationItemERK5QPairI7QString4QMapIS2_8QVariantEERKS5_
libdde-file-manager.so.1:_ZN16dde_file_manager14DFMBlockDevice20configurationChangedE5QListI5QPairI7QString4QMapIS3_8QVariantEEE
libdde-file-manager.so.1:_ZN16dde_file_manager14DFMBlockDevice20hasFileSystemChangedEb
libdde-file-manager.so.1:_ZN16dde_file_manager14DFMBlockDevice22getSecretConfigurationERK4QMapI7QString8QVariantE
libdde-file-manager.so.1:_ZN16dde_file_manager14DFMBlockDevice22preferredDeviceChangedE10QByteArray
libdde-file-manager.so.1:_ZN16dde_file_manager14DFMBlockDevice23removeConfigurationItemERK5QPairI7QString4QMapIS2_8QVariantEERKS5_
libdde-file-manager.so.1:_ZN16dde_file_manager14DFMBlockDevice23updateConfigurationItemERK5QPairI7QString4QMapIS2_8QVariantEES8_RKS5_
libdde-file-manager.so.1:_ZN16dde_file_manager14DFMBlockDevice24hintPartitionableChangedEb
libdde-file-manager.so.1:_ZN16dde_file_manager14DFMBlockDevice25childConfigurationChangedE5QListI5QPairI7QString4QMapIS3_8QVariantEEE
libdde-file-manager.so.1:_ZN16dde_file_manager14DFMBlockDevice26cryptoBackingDeviceChangedE7QString
libdde-file-manager.so.1:_ZN16dde_file_manager14DFMBlockDevice27hintSymbolicIconNameChangedE7QString
libdde-file-manager.so.1:_ZN16dde_file_manager14DFMBlockDevice28userspaceMountOptionsChangedE11QStringList
libdde-file-manager.so.1:_ZN16dde_file_manager14DFMBlockDevice4lockERK4QMapI7QString8QVariantE
libdde-file-manager.so.1:_ZN16dde_file_manager14DFMBlockDevice5mountERK4QMapI7QString8QVariantE
libdde-file-manager.so.1:_ZN16dde_file_manager14DFMBlockDevice6formatERK7QStringRK4QMapIS1_8QVariantE
libdde-file-manager.so.1:_ZN16dde_file_manager14DFMBlockDevice6formatERKNS0_6FSTypeERK4QMapI7QString8QVariantE
libdde-file-manager.so.1:_ZN16dde_file_manager14DFMBlockDevice6rescanERK4QMapI7QString8QVariantE
libdde-file-manager.so.1:_ZN16dde_file_manager14DFMBlockDevice6unlockERK7QStringRK4QMapIS1_8QVariantE
libdde-file-manager.so.1:_ZN16dde_file_manager14DFMBlockDevice7unmountERK4QMapI7QString8QVariantE
libdde-file-manager.so.1:_ZN16dde_file_manager14DFMBlockDevice8setLabelERK7QStringRK4QMapIS1_8QVariantE
libdde-file-manager.so.1:_ZN16dde_file_manager14DFMBlockDeviceC1ERK7QStringP7QObject
libdde-file-manager.so.1:_ZN16dde_file_manager14DFMBlockDeviceC1ERNS_21DFMBlockDevicePrivateERK7QStringP7QObject
libdde-file-manager.so.1:_ZN16dde_file_manager14DFMBlockDeviceC2ERK7QStringP7QObject
libdde-file-manager.so.1:_ZN16dde_file_manager14DFMBlockDeviceC2ERNS_21DFMBlockDevicePrivateERK7QStringP7QObject
libdde-file-manager.so.1:_ZN16dde_file_manager14DFMBlockDeviceD0Ev
libdde-file-manager.so.1:_ZN16dde_file_manager14DFMBlockDeviceD1Ev
libdde-file-manager.so.1:_ZN16dde_file_manager14DFMBlockDeviceD2Ev
libdde-file-manager.so.1:_ZN16dde_file_manager14DFMCrumbPlugin11qt_metacallEN11QMetaObject4CallEiPPv
libdde-file-manager.so.1:_ZN16dde_file_manager14DFMCrumbPlugin11qt_metacastEPKc
libdde-file-manager.so.1:_ZN16dde_file_manager14DFMCrumbPluginC1EP7QObject
libdde-file-manager.so.1:_ZN16dde_file_manager14DFMCrumbPluginC2EP7QObject
libdde-file-manager.so.1:_ZN16dde_file_manager14DFMCrumbPluginD0Ev
libdde-file-manager.so.1:_ZN16dde_file_manager14DFMCrumbPluginD1Ev
libdde-file-manager.so.1:_ZN16dde_file_manager14DFMCrumbPluginD2Ev
libdde-file-manager.so.1:_ZN16dde_file_manager14DFMDiskManager10mountAddedERK7QStringRK10QByteArray
libdde-file-manager.so.1:_ZN16dde_file_manager14DFMDiskManager11qt_metacallEN11QMetaObject4CallEiPPv
libdde-file-manager.so.1:_ZN16dde_file_manager14DFMDiskManager11qt_metacastEPKc
libdde-file-manager.so.1:_ZN16dde_file_manager14DFMDiskManager12mountRemovedERK7QStringRK10QByteArray
libdde-file-manager.so.1:_ZN16dde_file_manager14DFMDiskManager15diskDeviceAddedERK7QString
libdde-file-manager.so.1:_ZN16dde_file_manager14DFMDiskManager15fileSystemAddedERK7QString
libdde-file-manager.so.1:_ZN16dde_file_manager14DFMDiskManager15objectPrintableEPK7QObject
libdde-file-manager.so.1:_ZN16dde_file_manager14DFMDiskManager15setWatchChangesEb
libdde-file-manager.so.1:_ZN16dde_file_manager14DFMDiskManager16blockDeviceAddedERK7QString
libdde-file-manager.so.1:_ZN16dde_file_manager14DFMDiskManager16createDiskDeviceERK7QStringP7QObject
libdde-file-manager.so.1:_ZN16dde_file_manager14DFMDiskManager17createBlockDeviceERK7QStringP7QObject
libdde-file-manager.so.1:_ZN16dde_file_manager14DFMDiskManager17diskDeviceRemovedERK7QString
libdde-file-manager.so.1:_ZN16dde_file_manager14DFMDiskManager17fileSystemRemovedERK7QString
libdde-file-manager.so.1:_ZN16dde_file_manager14DFMDiskManager17onInterfacesAddedERK15QDBusObjectPathRK4QMapI7QStringS4_IS5_8QVariantEE
libdde-file-manager.so.1:_ZN16dde_file_manager14DFMDiskManager18blockDeviceRemovedERK7QString
libdde-file-manager.so.1:_ZN16dde_file_manager14DFMDiskManager18mountPointsChangedERK7QStringRK5QListI10QByteArrayES8_
libdde-file-manager.so.1:_ZN16dde_file_manager14DFMDiskManager19onInterfacesRemovedERK15QDBusObjectPathRK11QStringList
libdde-file-manager.so.1:_ZN16dde_file_manager14DFMDiskManager19onPropertiesChangedERK7QStringRK4QMapIS1_8QVariantERK12QDBusMessage
libdde-file-manager.so.1:_ZN16dde_file_manager14DFMDiskManager20createBlockPartitionERK7QStringP7QObject
libdde-file-manager.so.1:_ZN16dde_file_manager14DFMDiskManager9lastErrorEv
libdde-file-manager.so.1:_ZN16dde_file_manager14DFMDiskManagerC1EP7QObject
libdde-file-manager.so.1:_ZN16dde_file_manager14DFMDiskManagerC2EP7QObject
libdde-file-manager.so.1:_ZN16dde_file_manager14DFMDiskManagerD0Ev
libdde-file-manager.so.1:_ZN16dde_file_manager14DFMDiskManagerD1Ev
libdde-file-manager.so.1:_ZN16dde_file_manager14DFMDiskManagerD2Ev
libdde-file-manager.so.1:_ZN16dde_file_manager14DFMEventFuture15waitForFinishedEv
libdde-file-manager.so.1:_ZN16dde_file_manager14DFMEventFuture6cancelEv
libdde-file-manager.so.1:_ZN16dde_file_manager14DFMEventFutureC1ERK7QFutureI8QVariantE
libdde-file-manager.so.1:_ZN16dde_file_manager14DFMEventFutureC1ERKS0_
libdde-file-manager.so.1:_ZN16dde_file_manager14DFMEventFutureC2ERK7QFutureI8QVariantE
libdde-file-manager.so.1:_ZN16dde_file_manager14DFMEventFutureC2ERKS0_
libdde-file-manager.so.1:_ZN16dde_file_manager14DFMEventFutureaSERKS0_
libdde-file-manager.so.1:_ZN16dde_file_manager14DFMFilePreview10initializeEP7QWidgetS2_
libdde-file-manager.so.1:_ZN16dde_file_manager14DFMFilePreview11qt_metacallEN11QMetaObject4CallEiPPv
libdde-file-manager.so.1:_ZN16dde_file_manager14DFMFilePreview11qt_metacastEPKc
libdde-file-manager.so.1:_ZN16dde_file_manager14DFMFilePreview12titleChangedEv
libdde-file-manager.so.1:_ZN16dde_file_manager14DFMFilePreview4playEv
libdde-file-manager.so.1:_ZN16dde_file_manager14DFMFilePreview4stopEv
libdde-file-manager.so.1:_ZN16dde_file_manager14DFMFilePreview5pauseEv
libdde-file-manager.so.1:_ZN16dde_file_manager14DFMFilePreviewC1EP7QObject
libdde-file-manager.so.1:_ZN16dde_file_manager14DFMFilePreviewC2EP7QObject
libdde-file-manager.so.1:_ZN16dde_file_manager14DFMSideBarItem10enterEventEP6QEvent
libdde-file-manager.so.1:_ZN16dde_file_manager14DFMSideBarItem10leaveEventEP6QEvent
libdde-file-manager.so.1:_ZN16dde_file_manager14DFMSideBarItem10paintEventEP11QPaintEvent
libdde-file-manager.so.1:_ZN16dde_file_manager14DFMSideBarItem10setCheckedEb
libdde-file-manager.so.1:_ZN16dde_file_manager14DFMSideBarItem10setVisibleEb
libdde-file-manager.so.1:_ZN16dde_file_manager14DFMSideBarItem10urlChangedE4DUrl
libdde-file-manager.so.1:_ZN16dde_file_manager14DFMSideBarItem11qt_metacallEN11QMetaObject4CallEiPPv
libdde-file-manager.so.1:_ZN16dde_file_manager14DFMSideBarItem11qt_metacastEPKc
libdde-file-manager.so.1:_ZN16dde_file_manager14DFMSideBarItem11setReadOnlyEb
libdde-file-manager.so.1:_ZN16dde_file_manager14DFMSideBarItem12setGroupNameE7QString
libdde-file-manager.so.1:_ZN16dde_file_manager14DFMSideBarItem13playAnimationEv
libdde-file-manager.so.1:_ZN16dde_file_manager14DFMSideBarItem14dragEnterEventEP15QDragEnterEvent
libdde-file-manager.so.1:_ZN16dde_file_manager14DFMSideBarItem14dragLeaveEventEP15QDragLeaveEvent
libdde-file-manager.so.1:_ZN16dde_file_manager14DFMSideBarItem14mouseMoveEventEP11QMouseEvent
libdde-file-manager.so.1:_ZN16dde_file_manager14DFMSideBarItem14renameFinishedE7QString
libdde-file-manager.so.1:_ZN16dde_file_manager14DFMSideBarItem14setReorderableEb
libdde-file-manager.so.1:_ZN16dde_file_manager14DFMSideBarItem15mousePressEventEP11QMouseEvent
libdde-file-manager.so.1:_ZN16dde_file_manager14DFMSideBarItem16contextMenuEventEP17QContextMenuEvent
libdde-file-manager.so.1:_ZN16dde_file_manager14DFMSideBarItem16itemDragReleasedE6QPointN2Qt10DropActionE
libdde-file-manager.so.1:_ZN16dde_file_manager14DFMSideBarItem16setContentWidgetEP7QWidget
libdde-file-manager.so.1:_ZN16dde_file_manager14DFMSideBarItem16showRenameEditorEv
libdde-file-manager.so.1:_ZN16dde_file_manager14DFMSideBarItem17mouseReleaseEventEP11QMouseEvent
libdde-file-manager.so.1:_ZN16dde_file_manager14DFMSideBarItem17onEditingFinishedEv
libdde-file-manager.so.1:_ZN16dde_file_manager14DFMSideBarItem19setCanDeleteViaDragEb
libdde-file-manager.so.1:_ZN16dde_file_manager14DFMSideBarItem21setAutoOpenUrlOnClickEb
libdde-file-manager.so.1:_ZN16dde_file_manager14DFMSideBarItem22setIconFromThemeConfigERK7QStringS3_
libdde-file-manager.so.1:_ZN16dde_file_manager14DFMSideBarItem5eventEP6QEvent
libdde-file-manager.so.1:_ZN16dde_file_manager14DFMSideBarItem6setUrlE4DUrl
libdde-file-manager.so.1:_ZN16dde_file_manager14DFMSideBarItem7clickedEv
libdde-file-manager.so.1:_ZN16dde_file_manager14DFMSideBarItem7reorderEPS0_S1_b
libdde-file-manager.so.1:_ZN16dde_file_manager14DFMSideBarItem7setTextE7QString
libdde-file-manager.so.1:_ZN16dde_file_manager14DFMSideBarItem9dropEventEP10QDropEvent
libdde-file-manager.so.1:_ZN16dde_file_manager14DFMSideBarItemC1ERK4DUrlP7QWidget
libdde-file-manager.so.1:_ZN16dde_file_manager14DFMSideBarItemC2ERK4DUrlP7QWidget
libdde-file-manager.so.1:_ZN16dde_file_manager14DFMSideBarItemD0Ev
libdde-file-manager.so.1:_ZN16dde_file_manager14DFMSideBarItemD1Ev
libdde-file-manager.so.1:_ZN16dde_file_manager14DFMSideBarItemD2Ev
libdde-file-manager.so.1:_ZN16dde_file_manager14DFMViewFactory19viewIsSuitedWithUrlEPKNS_11DFMBaseViewERK4DUrl
libdde-file-manager.so.1:_ZN16dde_file_manager14DFMViewFactory4keysEv
libdde-file-manager.so.1:_ZN16dde_file_manager14DFMViewFactory6createERK7QString
libdde-file-manager.so.1:_ZN16dde_file_manager14DFMViewManager11qt_metacallEN11QMetaObject4CallEiPPv
libdde-file-manager.so.1:_ZN16dde_file_manager14DFMViewManager11qt_metacastEPKc
libdde-file-manager.so.1:_ZN16dde_file_manager14DFMViewManager12clearUrlViewERK7QStringS3_
libdde-file-manager.so.1:_ZN16dde_file_manager14DFMViewManager19insertToCreatorHashERK5QPairI7QStringS2_ERKS1_IS2_St8functionIFPNS_11DFMBaseViewEvEEE
libdde-file-manager.so.1:_ZN16dde_file_manager14DFMViewManager8instanceEv
libdde-file-manager.so.1:_ZN16dde_file_manager14DFMViewManagerC1EP7QObject
libdde-file-manager.so.1:_ZN16dde_file_manager14DFMViewManagerC2EP7QObject
libdde-file-manager.so.1:_ZN16dde_file_manager14DFMViewManagerD0Ev
libdde-file-manager.so.1:_ZN16dde_file_manager14DFMViewManagerD1Ev
libdde-file-manager.so.1:_ZN16dde_file_manager14DFMViewManagerD2Ev
libdde-file-manager.so.1:_ZN16dde_file_manager14DGIOFileDevice10setFileUrlERK4DUrl
libdde-file-manager.so.1:_ZN16dde_file_manager14DGIOFileDevice10syncToDiskEv
libdde-file-manager.so.1:_ZN16dde_file_manager14DGIOFileDevice11qt_metacallEN11QMetaObject4CallEiPPv
libdde-file-manager.so.1:_ZN16dde_file_manager14DGIOFileDevice11qt_metacastEPKc
libdde-file-manager.so.1:_ZN16dde_file_manager14DGIOFileDevice4openE6QFlagsIN9QIODevice12OpenModeFlagEE
libdde-file-manager.so.1:_ZN16dde_file_manager14DGIOFileDevice4seekEx
libdde-file-manager.so.1:_ZN16dde_file_manager14DGIOFileDevice5closeEv
libdde-file-manager.so.1:_ZN16dde_file_manager14DGIOFileDevice5flushEv
libdde-file-manager.so.1:_ZN16dde_file_manager14DGIOFileDevice6resizeEx
libdde-file-manager.so.1:_ZN16dde_file_manager14DGIOFileDevice8readDataEPcx
libdde-file-manager.so.1:_ZN16dde_file_manager14DGIOFileDevice9writeDataEPKcx
libdde-file-manager.so.1:_ZN16dde_file_manager14DGIOFileDeviceC1ERK4DUrlP7QObject
libdde-file-manager.so.1:_ZN16dde_file_manager14DGIOFileDeviceC2ERK4DUrlP7QObject
libdde-file-manager.so.1:_ZN16dde_file_manager14DGIOFileDeviceD0Ev
libdde-file-manager.so.1:_ZN16dde_file_manager14DGIOFileDeviceD1Ev
libdde-file-manager.so.1:_ZN16dde_file_manager14DGIOFileDeviceD2Ev
libdde-file-manager.so.1:_ZN16dde_file_manager15DFMCrumbFactory4keysEv
libdde-file-manager.so.1:_ZN16dde_file_manager15DFMCrumbFactory6createERK7QString
libdde-file-manager.so.1:_ZN16dde_file_manager15DFMCrumbManager11qt_metacallEN11QMetaObject4CallEiPPv
libdde-file-manager.so.1:_ZN16dde_file_manager15DFMCrumbManager11qt_metacastEPKc
libdde-file-manager.so.1:_ZN16dde_file_manager15DFMCrumbManager19insertToCreatorHashERK7QStringRK5QPairIS1_St8functionIFPNS_17DFMCrumbInterfaceEvEEE
libdde-file-manager.so.1:_ZN16dde_file_manager15DFMCrumbManager8instanceEv
libdde-file-manager.so.1:_ZN16dde_file_manager15DFMCrumbManagerC1EP7QObject
libdde-file-manager.so.1:_ZN16dde_file_manager15DFMCrumbManagerC2EP7QObject
libdde-file-manager.so.1:_ZN16dde_file_manager15DFMCrumbManagerD0Ev
libdde-file-manager.so.1:_ZN16dde_file_manager15DFMCrumbManagerD1Ev
libdde-file-manager.so.1:_ZN16dde_file_manager15DFMCrumbManagerD2Ev
libdde-file-manager.so.1:_ZN16dde_file_manager16DFMFactoryLoader10refreshAllEv
libdde-file-manager.so.1:_ZN16dde_file_manager16DFMFactoryLoader11qt_metacallEN11QMetaObject4CallEiPPv
libdde-file-manager.so.1:_ZN16dde_file_manager16DFMFactoryLoader11qt_metacastEPKc
libdde-file-manager.so.1:_ZN16dde_file_manager16DFMFactoryLoader6updateEv
libdde-file-manager.so.1:_ZN16dde_file_manager16DFMFactoryLoaderC1EPKcRK7QStringN2Qt15CaseSensitivityEb
libdde-file-manager.so.1:_ZN16dde_file_manager16DFMFactoryLoaderC2EPKcRK7QStringN2Qt15CaseSensitivityEb
libdde-file-manager.so.1:_ZN16dde_file_manager16DFMFactoryLoaderD0Ev
libdde-file-manager.so.1:_ZN16dde_file_manager16DFMFactoryLoaderD1Ev
libdde-file-manager.so.1:_ZN16dde_file_manager16DFMFactoryLoaderD2Ev
libdde-file-manager.so.1:_ZN16dde_file_manager16DFMGenericPlugin11qt_metacallEN11QMetaObject4CallEiPPv
libdde-file-manager.so.1:_ZN16dde_file_manager16DFMGenericPlugin11qt_metacastEPKc
libdde-file-manager.so.1:_ZN16dde_file_manager16DFMGenericPluginC1EP7QObject
libdde-file-manager.so.1:_ZN16dde_file_manager16DFMGenericPluginC2EP7QObject
libdde-file-manager.so.1:_ZN16dde_file_manager16DFMVfsDeviceInfo11unmountableEv
libdde-file-manager.so.1:_ZN16dde_file_manager16DFMVfsDeviceInfo15deviceClassTypeEv
libdde-file-manager.so.1:_ZN16dde_file_manager16DFMVfsDeviceInfo5ejectEv
libdde-file-manager.so.1:_ZN16dde_file_manager16DFMVfsDeviceInfo5mountEv
libdde-file-manager.so.1:_ZN16dde_file_manager16DFMVfsDeviceInfo7unmountEv
libdde-file-manager.so.1:_ZN16dde_file_manager16DFMVfsDeviceInfo9ejectableEv
libdde-file-manager.so.1:_ZN16dde_file_manager16DFMVfsDeviceInfo9vfsDeviceEv
libdde-file-manager.so.1:_ZN16dde_file_manager16DFMVfsDeviceInfoC1E4QUrl
libdde-file-manager.so.1:_ZN16dde_file_manager16DFMVfsDeviceInfoC2E4QUrl
libdde-file-manager.so.1:_ZN16dde_file_manager16DFileCopyMoveJob11qt_metacallEN11QMetaObject4CallEiPPv
libdde-file-manager.so.1:_ZN16dde_file_manager16DFileCopyMoveJob11qt_metacastEPKc
libdde-file-manager.so.1:_ZN16dde_file_manager16DFileCopyMoveJob11togglePauseEv
libdde-file-manager.so.1:_ZN16dde_file_manager16DFileCopyMoveJob12errorChangedENS0_5ErrorE
libdde-file-manager.so.1:_ZN16dde_file_manager16DFileCopyMoveJob12setFileHintsE6QFlagsINS0_8FileHintEE
libdde-file-manager.so.1:_ZN16dde_file_manager16DFileCopyMoveJob12speedUpdatedEx
libdde-file-manager.so.1:_ZN16dde_file_manager16DFileCopyMoveJob12stateChangedENS0_5StateE
libdde-file-manager.so.1:_ZN16dde_file_manager16DFileCopyMoveJob14setErrorHandleEPNS0_6HandleEP7QThread
libdde-file-manager.so.1:_ZN16dde_file_manager16DFileCopyMoveJob14supportActionsENS0_5ErrorE
libdde-file-manager.so.1:_ZN16dde_file_manager16DFileCopyMoveJob15progressChangedEdx
libdde-file-manager.so.1:_ZN16dde_file_manager16DFileCopyMoveJob17currentJobChangedE4DUrlS1_
libdde-file-manager.so.1:_ZN16dde_file_manager16DFileCopyMoveJob20setActionOfErrorTypeENS0_5ErrorENS0_6ActionE
libdde-file-manager.so.1:_ZN16dde_file_manager16DFileCopyMoveJob22fileStatisticsFinishedEv
libdde-file-manager.so.1:_ZN16dde_file_manager16DFileCopyMoveJob26completedFilesCountChangedEi
libdde-file-manager.so.1:_ZN16dde_file_manager16DFileCopyMoveJob26currentFileProgressChangedEdx
libdde-file-manager.so.1:_ZN16dde_file_manager16DFileCopyMoveJob3runEv
libdde-file-manager.so.1:_ZN16dde_file_manager16DFileCopyMoveJob4stopEv
libdde-file-manager.so.1:_ZN16dde_file_manager16DFileCopyMoveJob5startERK5QListI4DUrlERKS2_
libdde-file-manager.so.1:_ZN16dde_file_manager16DFileCopyMoveJob6Handle14getNewFileNameEPS0_PK17DAbstractFileInfo
libdde-file-manager.so.1:_ZN16dde_file_manager16DFileCopyMoveJob6Handle20getNonExistsFileNameEPS0_PK17DAbstractFileInfoS5_
libdde-file-manager.so.1:_ZN16dde_file_manager16DFileCopyMoveJob7setModeENS0_4ModeE
libdde-file-manager.so.1:_ZN16dde_file_manager16DFileCopyMoveJob8finishedE4DUrlS1_
libdde-file-manager.so.1:_ZN16dde_file_manager16DFileCopyMoveJobC1EP7QObject
libdde-file-manager.so.1:_ZN16dde_file_manager16DFileCopyMoveJobC1ERNS_23DFileCopyMoveJobPrivateEP7QObject
libdde-file-manager.so.1:_ZN16dde_file_manager16DFileCopyMoveJobC2EP7QObject
libdde-file-manager.so.1:_ZN16dde_file_manager16DFileCopyMoveJobC2ERNS_23DFileCopyMoveJobPrivateEP7QObject
libdde-file-manager.so.1:_ZN16dde_file_manager16DFileCopyMoveJobD0Ev
libdde-file-manager.so.1:_ZN16dde_file_manager16DFileCopyMoveJobD1Ev
libdde-file-manager.so.1:_ZN16dde_file_manager16DFileCopyMoveJobD2Ev
libdde-file-manager.so.1:_ZN16dde_file_manager16DLocalFileDevice10setFileUrlERK4DUrl
libdde-file-manager.so.1:_ZN16dde_file_manager16DLocalFileDevice10syncToDiskEv
libdde-file-manager.so.1:_ZN16dde_file_manager16DLocalFileDevice11setFileNameERK7QString
libdde-file-manager.so.1:_ZN16dde_file_manager16DLocalFileDevice5flushEv
libdde-file-manager.so.1:_ZN16dde_file_manager16DLocalFileDevice6resizeEx
libdde-file-manager.so.1:_ZN16dde_file_manager16DLocalFileDeviceC1EP7QObject
libdde-file-manager.so.1:_ZN16dde_file_manager16DLocalFileDeviceC2EP7QObject
libdde-file-manager.so.1:_ZN16dde_file_manager17DFMBlockPartition11UUIDChangedERK7QString
libdde-file-manager.so.1:_ZN16dde_file_manager17DFMBlockPartition11nameChangedERK7QString
libdde-file-manager.so.1:_ZN16dde_file_manager17DFMBlockPartition11qt_metacallEN11QMetaObject4CallEiPPv
libdde-file-manager.so.1:_ZN16dde_file_manager17DFMBlockPartition11qt_metacastEPKc
libdde-file-manager.so.1:_ZN16dde_file_manager17DFMBlockPartition11sizeChangedEy
libdde-file-manager.so.1:_ZN16dde_file_manager17DFMBlockPartition11typeChangedERK7QString
libdde-file-manager.so.1:_ZN16dde_file_manager17DFMBlockPartition12eTypeChangedEv
libdde-file-manager.so.1:_ZN16dde_file_manager17DFMBlockPartition12flagsChangedEy
libdde-file-manager.so.1:_ZN16dde_file_manager17DFMBlockPartition13numberChangedEj
libdde-file-manager.so.1:_ZN16dde_file_manager17DFMBlockPartition13offsetChangedEy
libdde-file-manager.so.1:_ZN16dde_file_manager17DFMBlockPartition15deletePartitionERK4QMapI7QString8QVariantE
libdde-file-manager.so.1:_ZN16dde_file_manager17DFMBlockPartition15guidTypeChangedEv
libdde-file-manager.so.1:_ZN16dde_file_manager17DFMBlockPartition15typeDescriptionENS0_4TypeE
libdde-file-manager.so.1:_ZN16dde_file_manager17DFMBlockPartition18isContainedChangedEb
libdde-file-manager.so.1:_ZN16dde_file_manager17DFMBlockPartition18isContainerChangedEb
libdde-file-manager.so.1:_ZN16dde_file_manager17DFMBlockPartition19guidTypeDescriptionENS0_8GUIDTypeE
libdde-file-manager.so.1:_ZN16dde_file_manager17DFMBlockPartition6resizeEyRK4QMapI7QString8QVariantE
libdde-file-manager.so.1:_ZN16dde_file_manager17DFMBlockPartition7setNameERK7QStringRK4QMapIS1_8QVariantE
libdde-file-manager.so.1:_ZN16dde_file_manager17DFMBlockPartition7setTypeENS0_4TypeERK4QMapI7QString8QVariantE
libdde-file-manager.so.1:_ZN16dde_file_manager17DFMBlockPartition7setTypeERK7QStringRK4QMapIS1_8QVariantE
libdde-file-manager.so.1:_ZN16dde_file_manager17DFMBlockPartition8setFlagsEyRK4QMapI7QString8QVariantE
libdde-file-manager.so.1:_ZN16dde_file_manager17DFMBlockPartitionC1ERK7QStringP7QObject
libdde-file-manager.so.1:_ZN16dde_file_manager17DFMBlockPartitionC2ERK7QStringP7QObject
libdde-file-manager.so.1:_ZN16dde_file_manager17DFMCrumbInterface10seprateUrlERK4DUrl
libdde-file-manager.so.1:_ZN16dde_file_manager17DFMCrumbInterface11qt_metacallEN11QMetaObject4CallEiPPv
libdde-file-manager.so.1:_ZN16dde_file_manager17DFMCrumbInterface11qt_metacastEPKc
libdde-file-manager.so.1:_ZN16dde_file_manager17DFMCrumbInterface11setCrumbBarEPNS_11DFMCrumbBarE
libdde-file-manager.so.1:_ZN16dde_file_manager17DFMCrumbInterface13processActionENS0_10ActionTypeE
libdde-file-manager.so.1:_ZN16dde_file_manager17DFMCrumbInterface15completionFoundERK11QStringList
libdde-file-manager.so.1:_ZN16dde_file_manager17DFMCrumbInterface15createCrumbItemERKNS_9CrumbDataE
libdde-file-manager.so.1:_ZN16dde_file_manager17DFMCrumbInterface21requestCompletionListERK4DUrl
libdde-file-manager.so.1:_ZN16dde_file_manager17DFMCrumbInterface23crumbUrlChangedBehaviorE4DUrl
libdde-file-manager.so.1:_ZN16dde_file_manager17DFMCrumbInterface32cancelCompletionListTransmissionEv
libdde-file-manager.so.1:_ZN16dde_file_manager17DFMCrumbInterface35completionListTransmissionCompletedEv
libdde-file-manager.so.1:_ZN16dde_file_manager17DFMCrumbInterface8crumbBarEv
libdde-file-manager.so.1:_ZN16dde_file_manager17DFMCrumbInterfaceC1EP7QObject
libdde-file-manager.so.1:_ZN16dde_file_manager17DFMCrumbInterfaceC2EP7QObject
libdde-file-manager.so.1:_ZN16dde_file_manager17DFMCrumbInterfaceD0Ev
libdde-file-manager.so.1:_ZN16dde_file_manager17DFMCrumbInterfaceD1Ev
libdde-file-manager.so.1:_ZN16dde_file_manager17DFMCrumbInterfaceD2Ev
libdde-file-manager.so.1:_ZN16dde_file_manager17DFMGenericFactory4keysEv
libdde-file-manager.so.1:_ZN16dde_file_manager17DFMGenericFactory6createERK7QString
libdde-file-manager.so.1:_ZN16dde_file_manager17DFMGenericFactory9createAllERK7QString
libdde-file-manager.so.1:_ZN16dde_file_manager17DFMGenericFactoryC1Ev
libdde-file-manager.so.1:_ZN16dde_file_manager17DFMGenericFactoryC2Ev
libdde-file-manager.so.1:_ZN16dde_file_manager17DFMSideBarPrivate14addItemToGroupEPNS_19DFMSideBarItemGroupENS_10DFMSideBar9GroupNameE
libdde-file-manager.so.1:_ZN16dde_file_manager17DFMSideBarPrivate17initUserShareItemEv
libdde-file-manager.so.1:_ZN16dde_file_manager17DFMSideBarPrivate18initMountedVolumesEv
libdde-file-manager.so.1:_ZN16dde_file_manager17DFMSideBarPrivate18initTagsConnectionEv
libdde-file-manager.so.1:_ZN16dde_file_manager17DFMSideBarPrivate20_q_onItemDragReleaseE6QPointN2Qt10DropActionEPKNS_14DFMSideBarItemE
libdde-file-manager.so.1:_ZN16dde_file_manager17DFMSideBarPrivate20initRecentConnectionEv
libdde-file-manager.so.1:_ZN16dde_file_manager17DFMSideBarPrivate21setGroupSaveItemOrderEPNS_19DFMSideBarItemGroupENS_10DFMSideBar9GroupNameE
libdde-file-manager.so.1:_ZN16dde_file_manager17DFMSideBarPrivate22initBookmarkConnectionEv
libdde-file-manager.so.1:_ZN16dde_file_manager17DFMSideBarPrivate23groupConnectionRegisterEPNS_19DFMSideBarItemGroupE
libdde-file-manager.so.1:_ZN16dde_file_manager17DFMSideBarPrivate6initUIEv
libdde-file-manager.so.1:_ZN16dde_file_manager17DFMSideBarPrivateC1EPNS_10DFMSideBarE
libdde-file-manager.so.1:_ZN16dde_file_manager17DFMSideBarPrivateC2EPNS_10DFMSideBarE
libdde-file-manager.so.1:_ZN16dde_file_manager17DFMSideBarTagItem11qt_metacallEN11QMetaObject4CallEiPPv
libdde-file-manager.so.1:_ZN16dde_file_manager17DFMSideBarTagItem11qt_metacastEPKc
libdde-file-manager.so.1:_ZN16dde_file_manager17DFMSideBarTagItemC1ERK4DUrlP7QWidget
libdde-file-manager.so.1:_ZN16dde_file_manager17DFMSideBarTagItemC2ERK4DUrlP7QWidget
libdde-file-manager.so.1:_ZN16dde_file_manager17DFileIconProvider14globalProviderEv
libdde-file-manager.so.1:_ZN16dde_file_manager17DFileIconProviderC1Ev
libdde-file-manager.so.1:_ZN16dde_file_manager17DFileIconProviderC2Ev
libdde-file-manager.so.1:_ZN16dde_file_manager17DFileIconProviderD0Ev
libdde-file-manager.so.1:_ZN16dde_file_manager17DFileIconProviderD1Ev
libdde-file-manager.so.1:_ZN16dde_file_manager17DFileIconProviderD2Ev
libdde-file-manager.so.1:_ZN16dde_file_manager17DLocalFileHandler11setFileTimeERK4DUrlRK9QDateTimeS6_
libdde-file-manager.so.1:_ZN16dde_file_manager17DLocalFileHandler14setPermissionsERK4DUrl6QFlagsIN11QFileDevice10PermissionEE
libdde-file-manager.so.1:_ZN16dde_file_manager17DLocalFileHandler4linkERK7QStringRK4DUrl
libdde-file-manager.so.1:_ZN16dde_file_manager17DLocalFileHandler5mkdirERK4DUrl
libdde-file-manager.so.1:_ZN16dde_file_manager17DLocalFileHandler5rmdirERK4DUrl
libdde-file-manager.so.1:_ZN16dde_file_manager17DLocalFileHandler5touchERK4DUrl
libdde-file-manager.so.1:_ZN16dde_file_manager17DLocalFileHandler6existsERK4DUrl
libdde-file-manager.so.1:_ZN16dde_file_manager17DLocalFileHandler6mkpathERK4DUrl
libdde-file-manager.so.1:_ZN16dde_file_manager17DLocalFileHandler6removeERK4DUrl
libdde-file-manager.so.1:_ZN16dde_file_manager17DLocalFileHandler6renameERK4DUrlS3_
libdde-file-manager.so.1:_ZN16dde_file_manager17DLocalFileHandlerC1Ev
libdde-file-manager.so.1:_ZN16dde_file_manager17DLocalFileHandlerC2Ev
libdde-file-manager.so.1:_ZN16dde_file_manager17FilePreviewDialog10childEventEP11QChildEvent
libdde-file-manager.so.1:_ZN16dde_file_manager17FilePreviewDialog10closeEventEP11QCloseEvent
libdde-file-manager.so.1:_ZN16dde_file_manager17FilePreviewDialog11eventFilterEP7QObjectP6QEvent
libdde-file-manager.so.1:_ZN16dde_file_manager17FilePreviewDialog11qt_metacallEN11QMetaObject4CallEiPPv
libdde-file-manager.so.1:_ZN16dde_file_manager17FilePreviewDialog11qt_metacastEPKc
libdde-file-manager.so.1:_ZN16dde_file_manager17FilePreviewDialog11updateTitleEv
libdde-file-manager.so.1:_ZN16dde_file_manager17FilePreviewDialog12previousPageEv
libdde-file-manager.so.1:_ZN16dde_file_manager17FilePreviewDialog12switchToPageEi
libdde-file-manager.so.1:_ZN16dde_file_manager17FilePreviewDialog15setEntryUrlListERK5QListI4DUrlE
libdde-file-manager.so.1:_ZN16dde_file_manager17FilePreviewDialog17updatePreviewListERK5QListI4DUrlE
libdde-file-manager.so.1:_ZN16dde_file_manager17FilePreviewDialog22playCurrentPreviewFileEv
libdde-file-manager.so.1:_ZN16dde_file_manager17FilePreviewDialog4doneEi
libdde-file-manager.so.1:_ZN16dde_file_manager17FilePreviewDialog6initUIEv
libdde-file-manager.so.1:_ZN16dde_file_manager17FilePreviewDialog8nextPageEv
libdde-file-manager.so.1:_ZN16dde_file_manager17FilePreviewDialog9showEventEP10QShowEvent
libdde-file-manager.so.1:_ZN16dde_file_manager17FilePreviewDialogC1ERK5QListI4DUrlEP7QWidget
libdde-file-manager.so.1:_ZN16dde_file_manager17FilePreviewDialogC2ERK5QListI4DUrlEP7QWidget
libdde-file-manager.so.1:_ZN16dde_file_manager17FilePreviewDialogD0Ev
libdde-file-manager.so.1:_ZN16dde_file_manager17FilePreviewDialogD1Ev
libdde-file-manager.so.1:_ZN16dde_file_manager17FilePreviewDialogD2Ev
libdde-file-manager.so.1:_ZN16dde_file_manager17UnknowFilePreview10setFileUrlERK4DUrl
libdde-file-manager.so.1:_ZN16dde_file_manager17UnknowFilePreview11qt_metacallEN11QMetaObject4CallEiPPv
libdde-file-manager.so.1:_ZN16dde_file_manager17UnknowFilePreview11qt_metacastEPKc
libdde-file-manager.so.1:_ZN16dde_file_manager17UnknowFilePreview11setFileInfoERK28QExplicitlySharedDataPointerI17DAbstractFileInfoE
libdde-file-manager.so.1:_ZN16dde_file_manager17UnknowFilePreview16updateFolderSizeEx
libdde-file-manager.so.1:_ZN16dde_file_manager17UnknowFilePreview22requestStartFolderSizeEv
libdde-file-manager.so.1:_ZN16dde_file_manager17UnknowFilePreviewC1EP7QObject
libdde-file-manager.so.1:_ZN16dde_file_manager17UnknowFilePreviewC2EP7QObject
libdde-file-manager.so.1:_ZN16dde_file_manager17UnknowFilePreviewD0Ev
libdde-file-manager.so.1:_ZN16dde_file_manager17UnknowFilePreviewD1Ev
libdde-file-manager.so.1:_ZN16dde_file_manager17UnknowFilePreviewD2Ev
libdde-file-manager.so.1:_ZN16dde_file_manager18DCompleterListView11qt_metacallEN11QMetaObject4CallEiPPv
libdde-file-manager.so.1:_ZN16dde_file_manager18DCompleterListView11qt_metacastEPKc
libdde-file-manager.so.1:_ZN16dde_file_manager18DCompleterListView14currentChangedERK11QModelIndexS3_
libdde-file-manager.so.1:_ZN16dde_file_manager18DCompleterListView16selectionChangedERK14QItemSelectionS3_
libdde-file-manager.so.1:_ZN16dde_file_manager18DCompleterListView18listCurrentChangedERK11QModelIndex
libdde-file-manager.so.1:_ZN16dde_file_manager18DCompleterListView20listSelectionChangedERK14QItemSelection
libdde-file-manager.so.1:_ZN16dde_file_manager18DCompleterListViewC1EP7QWidget
libdde-file-manager.so.1:_ZN16dde_file_manager18DCompleterListViewC2EP7QWidget
libdde-file-manager.so.1:_ZN16dde_file_manager18DFMCrumbBarPrivate11clearCrumbsEv
libdde-file-manager.so.1:_ZN16dde_file_manager18DFMCrumbBarPrivate15initConnectionsEv
libdde-file-manager.so.1:_ZN16dde_file_manager18DFMCrumbBarPrivate16updateControllerERK4DUrl
libdde-file-manager.so.1:_ZN16dde_file_manager18DFMCrumbBarPrivate18checkArrowVisiableEv
libdde-file-manager.so.1:_ZN16dde_file_manager18DFMCrumbBarPrivate23setClickableAreaEnabledEb
libdde-file-manager.so.1:_ZN16dde_file_manager18DFMCrumbBarPrivate6initUIEv
libdde-file-manager.so.1:_ZN16dde_file_manager18DFMCrumbBarPrivate8addCrumbEPNS_12DFMCrumbItemE
libdde-file-manager.so.1:_ZN16dde_file_manager18DFMCrumbBarPrivate8initDataEv
libdde-file-manager.so.1:_ZN16dde_file_manager18DFMCrumbBarPrivateC1EPNS_11DFMCrumbBarE
libdde-file-manager.so.1:_ZN16dde_file_manager18DFMCrumbBarPrivateC2EPNS_11DFMCrumbBarE
libdde-file-manager.so.1:_ZN16dde_file_manager18DFMEventDispatcher11qt_metacallEN11QMetaObject4CallEiPPv
libdde-file-manager.so.1:_ZN16dde_file_manager18DFMEventDispatcher11qt_metacastEPKc
libdde-file-manager.so.1:_ZN16dde_file_manager18DFMEventDispatcher12processEventERK14QSharedPointerI8DFMEventEPNS_23DFMAbstractEventHandlerE
libdde-file-manager.so.1:_ZN16dde_file_manager18DFMEventDispatcher12stateChangedENS0_5StateE
libdde-file-manager.so.1:_ZN16dde_file_manager18DFMEventDispatcher17processEventAsyncERK14QSharedPointerI8DFMEventEPNS_23DFMAbstractEventHandlerE
libdde-file-manager.so.1:_ZN16dde_file_manager18DFMEventDispatcher17removeEventFilterEPNS_23DFMAbstractEventHandlerE
libdde-file-manager.so.1:_ZN16dde_file_manager18DFMEventDispatcher18installEventFilterEPNS_23DFMAbstractEventHandlerE
libdde-file-manager.so.1:_ZN16dde_file_manager18DFMEventDispatcher18removeEventHandlerEPNS_23DFMAbstractEventHandlerE
libdde-file-manager.so.1:_ZN16dde_file_manager18DFMEventDispatcher19installEventHandlerEPNS_23DFMAbstractEventHandlerE
libdde-file-manager.so.1:_ZN16dde_file_manager18DFMEventDispatcher25processEventWithEventLoopERK14QSharedPointerI8DFMEventEPNS_23DFMAbstractEventHandlerE
libdde-file-manager.so.1:_ZN16dde_file_manager18DFMEventDispatcher8instanceEv
libdde-file-manager.so.1:_ZN16dde_file_manager18DFMEventDispatcherC1Ev
libdde-file-manager.so.1:_ZN16dde_file_manager18DFMEventDispatcherC2Ev
libdde-file-manager.so.1:_ZN16dde_file_manager18DFMEventDispatcherD0Ev
libdde-file-manager.so.1:_ZN16dde_file_manager18DFMEventDispatcherD1Ev
libdde-file-manager.so.1:_ZN16dde_file_manager18DFMEventDispatcherD2Ev
libdde-file-manager.so.1:_ZN16dde_file_manager18DFMSettingsPrivate12fromJsonFileERK7QStringPNS0_4DataE
libdde-file-manager.so.1:_ZN16dde_file_manager18DFMSettingsPrivate16_q_onFileChangedERK4DUrl
libdde-file-manager.so.1:_ZN16dde_file_manager18DFMSettingsPrivate6toJsonERKNS0_4DataE
libdde-file-manager.so.1:_ZN16dde_file_manager18DFMSettingsPrivate8fromJsonERK10QByteArrayPNS0_4DataE
libdde-file-manager.so.1:_ZN16dde_file_manager18DFMSettingsPrivateC1EPNS_11DFMSettingsE
libdde-file-manager.so.1:_ZN16dde_file_manager18DFMSettingsPrivateC2EPNS_11DFMSettingsE
libdde-file-manager.so.1:_ZN16dde_file_manager18DFMSideBarHomeItemC1Ev
libdde-file-manager.so.1:_ZN16dde_file_manager18DFMSideBarHomeItemC2Ev
libdde-file-manager.so.1:_ZN16dde_file_manager18DFMSideBarRootItemC1Ev
libdde-file-manager.so.1:_ZN16dde_file_manager18DFMSideBarRootItemC2Ev
libdde-file-manager.so.1:_ZN16dde_file_manager18DFileDevicePrivateC1EPNS_11DFileDeviceE
libdde-file-manager.so.1:_ZN16dde_file_manager18DFileDevicePrivateC2EPNS_11DFileDeviceE
libdde-file-manager.so.1:_ZN16dde_file_manager18DFileIODeviceProxy12readLineDataEPcx
libdde-file-manager.so.1:_ZN16dde_file_manager18DFileIODeviceProxy16waitForReadyReadEi
libdde-file-manager.so.1:_ZN16dde_file_manager18DFileIODeviceProxy19waitForBytesWrittenEi
libdde-file-manager.so.1:_ZN16dde_file_manager18DFileIODeviceProxy4openE6QFlagsIN9QIODevice12OpenModeFlagEE
libdde-file-manager.so.1:_ZN16dde_file_manager18DFileIODeviceProxy4seekEx
libdde-file-manager.so.1:_ZN16dde_file_manager18DFileIODeviceProxy5closeEv
libdde-file-manager.so.1:_ZN16dde_file_manager18DFileIODeviceProxy5resetEv
libdde-file-manager.so.1:_ZN16dde_file_manager18DFileIODeviceProxy8readDataEPcx
libdde-file-manager.so.1:_ZN16dde_file_manager18DFileIODeviceProxy9setDeviceEP9QIODevice
libdde-file-manager.so.1:_ZN16dde_file_manager18DFileIODeviceProxy9writeDataEPKcx
libdde-file-manager.so.1:_ZN16dde_file_manager18DFileIODeviceProxyC1EP9QIODeviceP7QObject
libdde-file-manager.so.1:_ZN16dde_file_manager18DFileIODeviceProxyC1ERNS_25DFileIODeviceProxyPrivateEP7QObject
libdde-file-manager.so.1:_ZN16dde_file_manager18DFileIODeviceProxyC2EP9QIODeviceP7QObject
libdde-file-manager.so.1:_ZN16dde_file_manager18DFileIODeviceProxyC2ERNS_25DFileIODeviceProxyPrivateEP7QObject
libdde-file-manager.so.1:_ZN16dde_file_manager18DFileIODeviceProxyD0Ev
libdde-file-manager.so.1:_ZN16dde_file_manager18DFileIODeviceProxyD1Ev
libdde-file-manager.so.1:_ZN16dde_file_manager18DFileIODeviceProxyD2Ev
libdde-file-manager.so.1:_ZN16dde_file_manager18DFileStatisticsJob10dataNotifyExii
libdde-file-manager.so.1:_ZN16dde_file_manager18DFileStatisticsJob11qt_metacallEN11QMetaObject4CallEiPPv
libdde-file-manager.so.1:_ZN16dde_file_manager18DFileStatisticsJob11qt_metacastEPKc
libdde-file-manager.so.1:_ZN16dde_file_manager18DFileStatisticsJob11sizeChangedEx
libdde-file-manager.so.1:_ZN16dde_file_manager18DFileStatisticsJob11togglePauseEv
libdde-file-manager.so.1:_ZN16dde_file_manager18DFileStatisticsJob12setFileHintsE6QFlagsINS0_8FileHintEE
libdde-file-manager.so.1:_ZN16dde_file_manager18DFileStatisticsJob12stateChangedENS0_5StateE
libdde-file-manager.so.1:_ZN16dde_file_manager18DFileStatisticsJob14directoryFoundERK4DUrl
libdde-file-manager.so.1:_ZN16dde_file_manager18DFileStatisticsJob3runEv
libdde-file-manager.so.1:_ZN16dde_file_manager18DFileStatisticsJob4stopEv
libdde-file-manager.so.1:_ZN16dde_file_manager18DFileStatisticsJob5startERK5QListI4DUrlE
libdde-file-manager.so.1:_ZN16dde_file_manager18DFileStatisticsJob9fileFoundERK4DUrl
libdde-file-manager.so.1:_ZN16dde_file_manager18DFileStatisticsJobC1EP7QObject
libdde-file-manager.so.1:_ZN16dde_file_manager18DFileStatisticsJobC2EP7QObject
libdde-file-manager.so.1:_ZN16dde_file_manager18DFileStatisticsJobD0Ev
libdde-file-manager.so.1:_ZN16dde_file_manager18DFileStatisticsJobD1Ev
libdde-file-manager.so.1:_ZN16dde_file_manager18DFileStatisticsJobD2Ev
libdde-file-manager.so.1:_ZN16dde_file_manager18DThumbnailProvider11qt_metacallEN11QMetaObject4CallEiPPv
libdde-file-manager.so.1:_ZN16dde_file_manager18DThumbnailProvider11qt_metacastEPKc
libdde-file-manager.so.1:_ZN16dde_file_manager18DThumbnailProvider12setSizeLimitERK9QMimeTypex
libdde-file-manager.so.1:_ZN16dde_file_manager18DThumbnailProvider15createThumbnailERK9QFileInfoNS0_4SizeE
libdde-file-manager.so.1:_ZN16dde_file_manager18DThumbnailProvider19setDefaultSizeLimitEx
libdde-file-manager.so.1:_ZN16dde_file_manager18DThumbnailProvider20appendToProduceQueueERK9QFileInfoNS0_4SizeESt8functionIFvRK7QStringEE
libdde-file-manager.so.1:_ZN16dde_file_manager18DThumbnailProvider20removeInProduceQueueERK9QFileInfoNS0_4SizeE
libdde-file-manager.so.1:_ZN16dde_file_manager18DThumbnailProvider3runEv
libdde-file-manager.so.1:_ZN16dde_file_manager18DThumbnailProvider8instanceEv
libdde-file-manager.so.1:_ZN16dde_file_manager18DThumbnailProviderC1EP7QObject
libdde-file-manager.so.1:_ZN16dde_file_manager18DThumbnailProviderC2EP7QObject
libdde-file-manager.so.1:_ZN16dde_file_manager18DThumbnailProviderD0Ev
libdde-file-manager.so.1:_ZN16dde_file_manager18DThumbnailProviderD1Ev
libdde-file-manager.so.1:_ZN16dde_file_manager18DThumbnailProviderD2Ev
libdde-file-manager.so.1:_ZN16dde_file_manager18FileEventProcessor7fmEventERK14QSharedPointerI8DFMEventEP8QVariant
libdde-file-manager.so.1:_ZN16dde_file_manager18FileEventProcessorC1Ev
libdde-file-manager.so.1:_ZN16dde_file_manager18FileEventProcessorC2Ev
libdde-file-manager.so.1:_ZN16dde_file_manager18OperatorRevocation7fmEventERK14QSharedPointerI8DFMEventEP8QVariant
libdde-file-manager.so.1:_ZN16dde_file_manager18OperatorRevocation8instanceEv
libdde-file-manager.so.1:_ZN16dde_file_manager18OperatorRevocationC1Ev
libdde-file-manager.so.1:_ZN16dde_file_manager18OperatorRevocationC2Ev
libdde-file-manager.so.1:_ZN16dde_file_manager19DFMAdvanceSearchBar11qt_metacallEN11QMetaObject4CallEiPPv
libdde-file-manager.so.1:_ZN16dde_file_manager19DFMAdvanceSearchBar11qt_metacastEPKc
libdde-file-manager.so.1:_ZN16dde_file_manager19DFMAdvanceSearchBar13optionChangedE4QMapIi8QVariantE
libdde-file-manager.so.1:_ZN16dde_file_manager19DFMAdvanceSearchBar14initConnectionEv
libdde-file-manager.so.1:_ZN16dde_file_manager19DFMAdvanceSearchBar15onOptionChangedEv
libdde-file-manager.so.1:_ZN16dde_file_manager19DFMAdvanceSearchBar20onResetButtonPressedEv
libdde-file-manager.so.1:_ZN16dde_file_manager19DFMAdvanceSearchBar6initUIEv
libdde-file-manager.so.1:_ZN16dde_file_manager19DFMAdvanceSearchBar9hideEventEP10QHideEvent
libdde-file-manager.so.1:_ZN16dde_file_manager19DFMAdvanceSearchBar9resetFormEv
libdde-file-manager.so.1:_ZN16dde_file_manager19DFMAdvanceSearchBarC1EP7QWidget
libdde-file-manager.so.1:_ZN16dde_file_manager19DFMAdvanceSearchBarC2EP7QWidget
libdde-file-manager.so.1:_ZN16dde_file_manager19DFMCrumbItemPrivateC1EPNS_12DFMCrumbItemE
libdde-file-manager.so.1:_ZN16dde_file_manager19DFMCrumbItemPrivateC2EPNS_12DFMCrumbItemE
libdde-file-manager.so.1:_ZN16dde_file_manager19DFMSideBarItemGroup10appendItemEPNS_14DFMSideBarItemE
libdde-file-manager.so.1:_ZN16dde_file_manager19DFMSideBarItemGroup10insertItemEiPNS_14DFMSideBarItemE
libdde-file-manager.so.1:_ZN16dde_file_manager19DFMSideBarItemGroup10removeItemEPNS_14DFMSideBarItemE
libdde-file-manager.so.1:_ZN16dde_file_manager19DFMSideBarItemGroup10removeItemEi
libdde-file-manager.so.1:_ZN16dde_file_manager19DFMSideBarItemGroup11qt_metacallEN11QMetaObject4CallEiPPv
libdde-file-manager.so.1:_ZN16dde_file_manager19DFMSideBarItemGroup11qt_metacastEPKc
libdde-file-manager.so.1:_ZN16dde_file_manager19DFMSideBarItemGroup11reorderItemEPNS_14DFMSideBarItemES2_b
libdde-file-manager.so.1:_ZN16dde_file_manager19DFMSideBarItemGroup13itemReorderedEiiPNS_14DFMSideBarItemE
libdde-file-manager.so.1:_ZN16dde_file_manager19DFMSideBarItemGroup13saveItemOrderEv
libdde-file-manager.so.1:_ZN16dde_file_manager19DFMSideBarItemGroup15itemDragReleaseE6QPointN2Qt10DropActionEPKNS_14DFMSideBarItemE
libdde-file-manager.so.1:_ZN16dde_file_manager19DFMSideBarItemGroup16setSaveItemOrderEb
libdde-file-manager.so.1:_ZN16dde_file_manager19DFMSideBarItemGroup20setDisableUrlSchemesERK4QSetI7QStringE
libdde-file-manager.so.1:_ZN16dde_file_manager19DFMSideBarItemGroup22itemConnectionRegisterEPNS_14DFMSideBarItemE
libdde-file-manager.so.1:_ZN16dde_file_manager19DFMSideBarItemGroup24itemConnectionUnregisterEPNS_14DFMSideBarItemE
libdde-file-manager.so.1:_ZN16dde_file_manager19DFMSideBarItemGroup8findItemERK4DUrl
libdde-file-manager.so.1:_ZN16dde_file_manager19DFMSideBarItemGroup8takeItemEPNS_14DFMSideBarItemE
libdde-file-manager.so.1:_ZN16dde_file_manager19DFMSideBarItemGroup8takeItemEi
libdde-file-manager.so.1:_ZN16dde_file_manager19DFMSideBarItemGroup9itemOrderEv
libdde-file-manager.so.1:_ZN16dde_file_manager19DFMSideBarItemGroupC1E7QString
libdde-file-manager.so.1:_ZN16dde_file_manager19DFMSideBarItemGroupC2E7QString
libdde-file-manager.so.1:_ZN16dde_file_manager19DFMSideBarItemGroupixEi
libdde-file-manager.so.1:_ZN16dde_file_manager19DFMSideBarTrashItemC1Ev
libdde-file-manager.so.1:_ZN16dde_file_manager19DFMSideBarTrashItemC2Ev
libdde-file-manager.so.1:_ZN16dde_file_manager19DFMVfsDevicePrivate16GFileMountDoneCbEP8_GObjectP13_GAsyncResultPv
libdde-file-manager.so.1:_ZN16dde_file_manager19DFMVfsDevicePrivate17getThemedIconNameEP12_GThemedIcon
libdde-file-manager.so.1:_ZN16dde_file_manager19DFMVfsDevicePrivate18GFileUnmountDoneCbEP8_GObjectP13_GAsyncResultPv
libdde-file-manager.so.1:_ZN16dde_file_manager19DFMVfsDevicePrivate25GMountOperationNewMountOpEPNS_12DFMVfsDeviceE
libdde-file-manager.so.1:_ZN16dde_file_manager19DFMVfsDevicePrivate28GMountOperationAskPasswordCbEP16_GMountOperationPKcS4_S4_17GAskPasswordFlagsPv
libdde-file-manager.so.1:_ZN16dde_file_manager19DFMVfsDevicePrivate28GMountOperationAskQuestionCbEP16_GMountOperationPKcPPcPv
libdde-file-manager.so.1:_ZN16dde_file_manager19DFMVfsDevicePrivateC1ERK4QUrlPNS_12DFMVfsDeviceE
libdde-file-manager.so.1:_ZN16dde_file_manager19DFMVfsDevicePrivateC1ERK4QUrlPvPNS_12DFMVfsDeviceE
libdde-file-manager.so.1:_ZN16dde_file_manager19DFMVfsDevicePrivateC2ERK4QUrlPNS_12DFMVfsDeviceE
libdde-file-manager.so.1:_ZN16dde_file_manager19DFMVfsDevicePrivateC2ERK4QUrlPvPNS_12DFMVfsDeviceE
libdde-file-manager.so.1:_ZN16dde_file_manager19DFMVfsDevicePrivateD1Ev
libdde-file-manager.so.1:_ZN16dde_file_manager19DFMVfsDevicePrivateD2Ev
libdde-file-manager.so.1:_ZN16dde_file_manager19DFileHandlerPrivate14setErrorStringERK7QString
libdde-file-manager.so.1:_ZN16dde_file_manager19DFileHandlerPrivateC1EPNS_12DFileHandlerE
libdde-file-manager.so.1:_ZN16dde_file_manager19DFileHandlerPrivateC2EPNS_12DFileHandlerE
libdde-file-manager.so.1:_ZN16dde_file_manager19DFileWatcherManager10fileClosedERK7QString
libdde-file-manager.so.1:_ZN16dde_file_manager19DFileWatcherManager11fileDeletedERK7QString
libdde-file-manager.so.1:_ZN16dde_file_manager19DFileWatcherManager11qt_metacallEN11QMetaObject4CallEiPPv
libdde-file-manager.so.1:_ZN16dde_file_manager19DFileWatcherManager11qt_metacastEPKc
libdde-file-manager.so.1:_ZN16dde_file_manager19DFileWatcherManager12fileModifiedERK7QString
libdde-file-manager.so.1:_ZN16dde_file_manager19DFileWatcherManager14subfileCreatedERK7QString
libdde-file-manager.so.1:_ZN16dde_file_manager19DFileWatcherManager20fileAttributeChangedERK7QString
libdde-file-manager.so.1:_ZN16dde_file_manager19DFileWatcherManager3addERK7QString
libdde-file-manager.so.1:_ZN16dde_file_manager19DFileWatcherManager6removeERK7QString
libdde-file-manager.so.1:_ZN16dde_file_manager19DFileWatcherManager9fileMovedERK7QStringS3_
libdde-file-manager.so.1:_ZN16dde_file_manager19DFileWatcherManagerC1EP7QObject
libdde-file-manager.so.1:_ZN16dde_file_manager19DFileWatcherManagerC2EP7QObject
libdde-file-manager.so.1:_ZN16dde_file_manager19DFileWatcherManagerD0Ev
libdde-file-manager.so.1:_ZN16dde_file_manager19DFileWatcherManagerD1Ev
libdde-file-manager.so.1:_ZN16dde_file_manager19DFileWatcherManagerD2Ev
libdde-file-manager.so.1:_ZN16dde_file_manager20DFMFilePreviewPlugin11qt_metacallEN11QMetaObject4CallEiPPv
libdde-file-manager.so.1:_ZN16dde_file_manager20DFMFilePreviewPlugin11qt_metacastEPKc
libdde-file-manager.so.1:_ZN16dde_file_manager20DFMFilePreviewPluginC1EP7QObject
libdde-file-manager.so.1:_ZN16dde_file_manager20DFMFilePreviewPluginC2EP7QObject
libdde-file-manager.so.1:_ZN16dde_file_manager20DFMInvalidDeviceInfo11unmountableEv
libdde-file-manager.so.1:_ZN16dde_file_manager20DFMInvalidDeviceInfo5ejectEv
libdde-file-manager.so.1:_ZN16dde_file_manager20DFMInvalidDeviceInfo5mountEv
libdde-file-manager.so.1:_ZN16dde_file_manager20DFMInvalidDeviceInfo7unmountEv
libdde-file-manager.so.1:_ZN16dde_file_manager20DFMInvalidDeviceInfo9ejectableEv
libdde-file-manager.so.1:_ZN16dde_file_manager20DFMInvalidDeviceInfoC1Ev
libdde-file-manager.so.1:_ZN16dde_file_manager20DFMInvalidDeviceInfoC2Ev
libdde-file-manager.so.1:_ZN16dde_file_manager20DFMSideBarDeviceItem11itemOnClickEv
libdde-file-manager.so.1:_ZN16dde_file_manager20DFMSideBarDeviceItem11qt_metacallEN11QMetaObject4CallEiPPv
libdde-file-manager.so.1:_ZN16dde_file_manager20DFMSideBarDeviceItem11qt_metacastEPKc
libdde-file-manager.so.1:_ZN16dde_file_manager20DFMSideBarDeviceItem16doUnmountOrEjectEv
libdde-file-manager.so.1:_ZN16dde_file_manager20DFMSideBarDeviceItemC1E4DUrlP7QWidget
libdde-file-manager.so.1:_ZN16dde_file_manager20DFMSideBarDeviceItemC2E4DUrlP7QWidget
libdde-file-manager.so.1:_ZN16dde_file_manager20DFMSideBarRecentItem11qt_metacallEN11QMetaObject4CallEiPPv
libdde-file-manager.so.1:_ZN16dde_file_manager20DFMSideBarRecentItem11qt_metacastEPKc
libdde-file-manager.so.1:_ZN16dde_file_manager20DFMSideBarRecentItemC1EN16DFMStandardPaths16StandardLocationEP7QWidget
libdde-file-manager.so.1:_ZN16dde_file_manager20DFMSideBarRecentItemC2EN16DFMStandardPaths16StandardLocationEP7QWidget
libdde-file-manager.so.1:_ZN16dde_file_manager20DFMUdisks2DeviceInfo11blockDeviceEv
libdde-file-manager.so.1:_ZN16dde_file_manager20DFMUdisks2DeviceInfo11unmountableEv
libdde-file-manager.so.1:_ZN16dde_file_manager20DFMUdisks2DeviceInfo15deviceClassTypeEv
libdde-file-manager.so.1:_ZN16dde_file_manager20DFMUdisks2DeviceInfo5ejectEv
libdde-file-manager.so.1:_ZN16dde_file_manager20DFMUdisks2DeviceInfo5mountEv
libdde-file-manager.so.1:_ZN16dde_file_manager20DFMUdisks2DeviceInfo7unmountEv
libdde-file-manager.so.1:_ZN16dde_file_manager20DFMUdisks2DeviceInfo8unixPathEv
libdde-file-manager.so.1:_ZN16dde_file_manager20DFMUdisks2DeviceInfo9ejectableEv
libdde-file-manager.so.1:_ZN16dde_file_manager20DFMUdisks2DeviceInfoC1EPKNS_14DFMBlockDeviceE
libdde-file-manager.so.1:_ZN16dde_file_manager20DFMUdisks2DeviceInfoC1ERK7QString
libdde-file-manager.so.1:_ZN16dde_file_manager20DFMUdisks2DeviceInfoC2EPKNS_14DFMBlockDeviceE
libdde-file-manager.so.1:_ZN16dde_file_manager20DFMUdisks2DeviceInfoC2ERK7QString
libdde-file-manager.so.1:_ZN16dde_file_manager20DFMVfsManagerPrivate11initConnectEv
libdde-file-manager.so.1:_ZN16dde_file_manager20DFMVfsManagerPrivate26GVolumeMonitorMountAddedCbEP15_GVolumeMonitorP7_GMountPNS_13DFMVfsManagerE
libdde-file-manager.so.1:_ZN16dde_file_manager20DFMVfsManagerPrivate28GVolumeMonitorMountChangedCbEP15_GVolumeMonitorP7_GMountPNS_13DFMVfsManagerE
libdde-file-manager.so.1:_ZN16dde_file_manager20DFMVfsManagerPrivate28GVolumeMonitorMountRemovedCbEP15_GVolumeMonitorP7_GMountPNS_13DFMVfsManagerE
libdde-file-manager.so.1:_ZN16dde_file_manager20DFMVfsManagerPrivateC1EPNS_13DFMVfsManagerE
libdde-file-manager.so.1:_ZN16dde_file_manager20DFMVfsManagerPrivateC2EPNS_13DFMVfsManagerE
libdde-file-manager.so.1:_ZN16dde_file_manager20DFMVfsManagerPrivateD1Ev
libdde-file-manager.so.1:_ZN16dde_file_manager20DFMVfsManagerPrivateD2Ev
libdde-file-manager.so.1:_ZN16dde_file_manager21DFMApplicationPrivate24_q_onSettingsValueEditedERK7QStringS3_RK8QVariant
libdde-file-manager.so.1:_ZN16dde_file_manager21DFMApplicationPrivate25_q_onSettingsValueChangedERK7QStringS3_RK8QVariantb
libdde-file-manager.so.1:_ZN16dde_file_manager21DFMApplicationPrivateC1EPNS_14DFMApplicationE
libdde-file-manager.so.1:_ZN16dde_file_manager21DFMApplicationPrivateC2EPNS_14DFMApplicationE
libdde-file-manager.so.1:_ZN16dde_file_manager21DFMBlockDevicePrivateC1EPNS_14DFMBlockDeviceE
libdde-file-manager.so.1:_ZN16dde_file_manager21DFMBlockDevicePrivateC2EPNS_14DFMBlockDeviceE
libdde-file-manager.so.1:_ZN16dde_file_manager21DFMDiskManagerPrivate31updateBlockDeviceMountPointsMapEv
libdde-file-manager.so.1:_ZN16dde_file_manager21DFMDiskManagerPrivateC1EPNS_14DFMDiskManagerE
libdde-file-manager.so.1:_ZN16dde_file_manager21DFMDiskManagerPrivateC2EPNS_14DFMDiskManagerE
libdde-file-manager.so.1:_ZN16dde_file_manager21DFMFilePreviewFactory15isSuitedWithKeyEPKNS_14DFMFilePreviewERK7QString
libdde-file-manager.so.1:_ZN16dde_file_manager21DFMFilePreviewFactory4keysEv
libdde-file-manager.so.1:_ZN16dde_file_manager21DFMFilePreviewFactory6createERK7QString
libdde-file-manager.so.1:_ZN16dde_file_manager21DFMMtpCrumbController12supportedUrlE4DUrl
libdde-file-manager.so.1:_ZN16dde_file_manager21DFMMtpCrumbController15createCrumbItemERKNS_9CrumbDataE
libdde-file-manager.so.1:_ZN16dde_file_manager21DFMMtpCrumbControllerC1EP7QObject
libdde-file-manager.so.1:_ZN16dde_file_manager21DFMMtpCrumbControllerC2EP7QObject
libdde-file-manager.so.1:_ZN16dde_file_manager21DFMMtpCrumbControllerD0Ev
libdde-file-manager.so.1:_ZN16dde_file_manager21DFMMtpCrumbControllerD1Ev
libdde-file-manager.so.1:_ZN16dde_file_manager21DFMMtpCrumbControllerD2Ev
libdde-file-manager.so.1:_ZN16dde_file_manager21DFMSideBarDefaultItem11qt_metacallEN11QMetaObject4CallEiPPv
libdde-file-manager.so.1:_ZN16dde_file_manager21DFMSideBarDefaultItem11qt_metacastEPKc
libdde-file-manager.so.1:_ZN16dde_file_manager21DFMSideBarDefaultItem18initItemByLocationEN16DFMStandardPaths16StandardLocationE
libdde-file-manager.so.1:_ZN16dde_file_manager21DFMSideBarDefaultItem27getDUrlFromStandardLocationEN16DFMStandardPaths16StandardLocationE
libdde-file-manager.so.1:_ZN16dde_file_manager21DFMSideBarDefaultItemC1EN16DFMStandardPaths16StandardLocationEP7QWidget
libdde-file-manager.so.1:_ZN16dde_file_manager21DFMSideBarDefaultItemC2EN16DFMStandardPaths16StandardLocationEP7QWidget
libdde-file-manager.so.1:_ZN16dde_file_manager21DFMSideBarItemPrivate16hideRenameEditorEv
libdde-file-manager.so.1:_ZN16dde_file_manager21DFMSideBarItemPrivate4initEv
libdde-file-manager.so.1:_ZN16dde_file_manager21DFMSideBarItemPrivateC1EPNS_14DFMSideBarItemE
libdde-file-manager.so.1:_ZN16dde_file_manager21DFMSideBarItemPrivateC2EPNS_14DFMSideBarItemE
libdde-file-manager.so.1:_ZN16dde_file_manager21DFMSideBarNetworkItem11qt_metacallEN11QMetaObject4CallEiPPv
libdde-file-manager.so.1:_ZN16dde_file_manager21DFMSideBarNetworkItem11qt_metacastEPKc
libdde-file-manager.so.1:_ZN16dde_file_manager21DFMSideBarNetworkItemC1EN16DFMStandardPaths16StandardLocationEP7QWidget
libdde-file-manager.so.1:_ZN16dde_file_manager21DFMSideBarNetworkItemC2EN16DFMStandardPaths16StandardLocationEP7QWidget
libdde-file-manager.so.1:_ZN16dde_file_manager21DFMSmbCrumbController12supportedUrlE4DUrl
libdde-file-manager.so.1:_ZN16dde_file_manager21DFMSmbCrumbController15createCrumbItemERKNS_9CrumbDataE
libdde-file-manager.so.1:_ZN16dde_file_manager21DFMSmbCrumbControllerC1EP7QObject
libdde-file-manager.so.1:_ZN16dde_file_manager21DFMSmbCrumbControllerC2EP7QObject
libdde-file-manager.so.1:_ZN16dde_file_manager21DFMSmbCrumbControllerD0Ev
libdde-file-manager.so.1:_ZN16dde_file_manager21DFMSmbCrumbControllerD1Ev
libdde-file-manager.so.1:_ZN16dde_file_manager21DFMSmbCrumbControllerD2Ev
libdde-file-manager.so.1:_ZN16dde_file_manager21DFMTagCrumbController10seprateUrlERK4DUrl
libdde-file-manager.so.1:_ZN16dde_file_manager21DFMTagCrumbController12supportedUrlE4DUrl
libdde-file-manager.so.1:_ZN16dde_file_manager21DFMTagCrumbControllerC1EP7QObject
libdde-file-manager.so.1:_ZN16dde_file_manager21DFMTagCrumbControllerC2EP7QObject
libdde-file-manager.so.1:_ZN16dde_file_manager21DFMTagCrumbControllerD0Ev
libdde-file-manager.so.1:_ZN16dde_file_manager21DFMTagCrumbControllerD1Ev
libdde-file-manager.so.1:_ZN16dde_file_manager21DFMTagCrumbControllerD2Ev
libdde-file-manager.so.1:_ZN16dde_file_manager21DFMViewManagerPrivateC1EPNS_14DFMViewManagerE
libdde-file-manager.so.1:_ZN16dde_file_manager21DFMViewManagerPrivateC2EPNS_14DFMViewManagerE
libdde-file-manager.so.1:_ZN16dde_file_manager21DGIOFileDevicePrivateC1EPNS_14DGIOFileDeviceE
libdde-file-manager.so.1:_ZN16dde_file_manager21DGIOFileDevicePrivateC2EPNS_14DGIOFileDeviceE
libdde-file-manager.so.1:_ZN16dde_file_manager22DFMAvfsCrumbController12supportedUrlE4DUrl
libdde-file-manager.so.1:_ZN16dde_file_manager22DFMAvfsCrumbController15createCrumbItemERKNS_9CrumbDataE
libdde-file-manager.so.1:_ZN16dde_file_manager22DFMAvfsCrumbControllerC1EP7QObject
libdde-file-manager.so.1:_ZN16dde_file_manager22DFMAvfsCrumbControllerC2EP7QObject
libdde-file-manager.so.1:_ZN16dde_file_manager22DFMAvfsCrumbControllerD0Ev
libdde-file-manager.so.1:_ZN16dde_file_manager22DFMAvfsCrumbControllerD1Ev
libdde-file-manager.so.1:_ZN16dde_file_manager22DFMAvfsCrumbControllerD2Ev
libdde-file-manager.so.1:_ZN16dde_file_manager22DFMCrumbManagerPrivateC1EPNS_15DFMCrumbManagerE
libdde-file-manager.so.1:_ZN16dde_file_manager22DFMCrumbManagerPrivateC2EPNS_15DFMCrumbManagerE
libdde-file-manager.so.1:_ZN16dde_file_manager22DFMFileCrumbController10seprateUrlERK4DUrl
libdde-file-manager.so.1:_ZN16dde_file_manager22DFMFileCrumbController12supportedUrlE4DUrl
libdde-file-manager.so.1:_ZN16dde_file_manager22DFMFileCrumbControllerC1EP7QObject
libdde-file-manager.so.1:_ZN16dde_file_manager22DFMFileCrumbControllerC2EP7QObject
libdde-file-manager.so.1:_ZN16dde_file_manager22DFMFileCrumbControllerD0Ev
libdde-file-manager.so.1:_ZN16dde_file_manager22DFMFileCrumbControllerD1Ev
libdde-file-manager.so.1:_ZN16dde_file_manager22DFMFileCrumbControllerD2Ev
libdde-file-manager.so.1:_ZN16dde_file_manager22DFMSideBarBookmarkItem11qt_metacallEN11QMetaObject4CallEiPPv
libdde-file-manager.so.1:_ZN16dde_file_manager22DFMSideBarBookmarkItem11qt_metacastEPKc
libdde-file-manager.so.1:_ZN16dde_file_manager22DFMSideBarBookmarkItemC1ERK4DUrlP7QWidget
libdde-file-manager.so.1:_ZN16dde_file_manager22DFMSideBarBookmarkItemC2ERK4DUrlP7QWidget
libdde-file-manager.so.1:_ZN16dde_file_manager23DFMAbstractEventHandler13fmEventFilterERK14QSharedPointerI8DFMEventEPS0_P8QVariant
libdde-file-manager.so.1:_ZN16dde_file_manager23DFMAbstractEventHandler7fmEventERK14QSharedPointerI8DFMEventEP8QVariant
libdde-file-manager.so.1:_ZN16dde_file_manager23DFMAbstractEventHandlerC1Eb
libdde-file-manager.so.1:_ZN16dde_file_manager23DFMAbstractEventHandlerC2Eb
libdde-file-manager.so.1:_ZN16dde_file_manager23DFMAbstractEventHandlerD0Ev
libdde-file-manager.so.1:_ZN16dde_file_manager23DFMAbstractEventHandlerD1Ev
libdde-file-manager.so.1:_ZN16dde_file_manager23DFMAbstractEventHandlerD2Ev
libdde-file-manager.so.1:_ZN16dde_file_manager23DFMFactoryLoaderPrivateC1Ev
libdde-file-manager.so.1:_ZN16dde_file_manager23DFMFactoryLoaderPrivateC2Ev
libdde-file-manager.so.1:_ZN16dde_file_manager23DFMFactoryLoaderPrivateD0Ev
libdde-file-manager.so.1:_ZN16dde_file_manager23DFMFactoryLoaderPrivateD1Ev
libdde-file-manager.so.1:_ZN16dde_file_manager23DFMFactoryLoaderPrivateD2Ev
libdde-file-manager.so.1:_ZN16dde_file_manager23DFMFileControllerPlugin11qt_metacallEN11QMetaObject4CallEiPPv
libdde-file-manager.so.1:_ZN16dde_file_manager23DFMFileControllerPlugin11qt_metacastEPKc
libdde-file-manager.so.1:_ZN16dde_file_manager23DFMFileControllerPluginC1EP7QObject
libdde-file-manager.so.1:_ZN16dde_file_manager23DFMFileControllerPluginC2EP7QObject
libdde-file-manager.so.1:_ZN16dde_file_manager23DFMSideBarItemSeparator10paintEventEP11QPaintEvent
libdde-file-manager.so.1:_ZN16dde_file_manager23DFMSideBarItemSeparator11qt_metacallEN11QMetaObject4CallEiPPv
libdde-file-manager.so.1:_ZN16dde_file_manager23DFMSideBarItemSeparator11qt_metacastEPKc
libdde-file-manager.so.1:_ZN16dde_file_manager23DFMSideBarItemSeparatorC1EP7QWidget
libdde-file-manager.so.1:_ZN16dde_file_manager23DFMSideBarItemSeparatorC2EP7QWidget
libdde-file-manager.so.1:_ZN16dde_file_manager23DFMTrashCrumbController12supportedUrlE4DUrl
libdde-file-manager.so.1:_ZN16dde_file_manager23DFMTrashCrumbController15createCrumbItemERKNS_9CrumbDataE
libdde-file-manager.so.1:_ZN16dde_file_manager23DFMTrashCrumbControllerC1EP7QObject
libdde-file-manager.so.1:_ZN16dde_file_manager23DFMTrashCrumbControllerC2EP7QObject
libdde-file-manager.so.1:_ZN16dde_file_manager23DFMTrashCrumbControllerD0Ev
libdde-file-manager.so.1:_ZN16dde_file_manager23DFMTrashCrumbControllerD1Ev
libdde-file-manager.so.1:_ZN16dde_file_manager23DFMTrashCrumbControllerD2Ev
libdde-file-manager.so.1:_ZN16dde_file_manager23DFileCopyMoveJobPrivate10doCopyFileEPK17DAbstractFileInfoS3_i
libdde-file-manager.so.1:_ZN16dde_file_manager23DFileCopyMoveJobPrivate10doLinkFileEPNS_12DFileHandlerEPK17DAbstractFileInfoRK7QString
libdde-file-manager.so.1:_ZN16dde_file_manager23DFileCopyMoveJobPrivate10removeFileEPNS_12DFileHandlerEPK17DAbstractFileInfo
libdde-file-manager.so.1:_ZN16dde_file_manager23DFileCopyMoveJobPrivate10renameFileEPNS_12DFileHandlerEPK17DAbstractFileInfoS5_
libdde-file-manager.so.1:_ZN16dde_file_manager23DFileCopyMoveJobPrivate10stateCheckEv
libdde-file-manager.so.1:_ZN16dde_file_manager23DFileCopyMoveJobPrivate10unsetErrorEv
libdde-file-manager.so.1:_ZN16dde_file_manager23DFileCopyMoveJobPrivate11handleErrorEPK17DAbstractFileInfoS3_
libdde-file-manager.so.1:_ZN16dde_file_manager23DFileCopyMoveJobPrivate11updateSpeedEv
libdde-file-manager.so.1:_ZN16dde_file_manager23DFileCopyMoveJobPrivate12doRemoveFileEPNS_12DFileHandlerEPK17DAbstractFileInfo
libdde-file-manager.so.1:_ZN16dde_file_manager23DFileCopyMoveJobPrivate12doRenameFileEPNS_12DFileHandlerEPK17DAbstractFileInfoS5_
libdde-file-manager.so.1:_ZN16dde_file_manager23DFileCopyMoveJobPrivate13errorToStringENS_16DFileCopyMoveJob5ErrorE
libdde-file-manager.so.1:_ZN16dde_file_manager23DFileCopyMoveJobPrivate13getWriteBytesEl
libdde-file-manager.so.1:_ZN16dde_file_manager23DFileCopyMoveJobPrivate14checkFreeSpaceEx
libdde-file-manager.so.1:_ZN16dde_file_manager23DFileCopyMoveJobPrivate14enterDirectoryERK4DUrlS3_
libdde-file-manager.so.1:_ZN16dde_file_manager23DFileCopyMoveJobPrivate14getNewFileNameEPK17DAbstractFileInfoS3_
libdde-file-manager.so.1:_ZN16dde_file_manager23DFileCopyMoveJobPrivate14leaveDirectoryEv
libdde-file-manager.so.1:_ZN16dde_file_manager23DFileCopyMoveJobPrivate14mergeDirectoryEPNS_12DFileHandlerEPK17DAbstractFileInfoS5_
libdde-file-manager.so.1:_ZN16dde_file_manager23DFileCopyMoveJobPrivate14updateProgressEv
libdde-file-manager.so.1:_ZN16dde_file_manager23DFileCopyMoveJobPrivate17_q_updateProgressEv
libdde-file-manager.so.1:_ZN16dde_file_manager23DFileCopyMoveJobPrivate23joinToCompletedFileListERK4DUrlS3_x
libdde-file-manager.so.1:_ZN16dde_file_manager23DFileCopyMoveJobPrivate28joinToCompletedDirectoryListERK4DUrlS3_x
libdde-file-manager.so.1:_ZN16dde_file_manager23DFileCopyMoveJobPrivate6endJobEv
libdde-file-manager.so.1:_ZN16dde_file_manager23DFileCopyMoveJobPrivate7jobWaitEv
libdde-file-manager.so.1:_ZN16dde_file_manager23DFileCopyMoveJobPrivate7processERK4DUrlPK17DAbstractFileInfo
libdde-file-manager.so.1:_ZN16dde_file_manager23DFileCopyMoveJobPrivate7processERK4DUrlRK28QExplicitlySharedDataPointerI17DAbstractFileInfoEPKS5_
libdde-file-manager.so.1:_ZN16dde_file_manager23DFileCopyMoveJobPrivate8beginJobENS0_7JobInfo4TypeERK4DUrlS5_
libdde-file-manager.so.1:_ZN16dde_file_manager23DFileCopyMoveJobPrivate8copyFileEPK17DAbstractFileInfoS3_i
libdde-file-manager.so.1:_ZN16dde_file_manager23DFileCopyMoveJobPrivate8linkFileEPNS_12DFileHandlerEPK17DAbstractFileInfoRK7QString
libdde-file-manager.so.1:_ZN16dde_file_manager23DFileCopyMoveJobPrivate8setErrorENS_16DFileCopyMoveJob5ErrorERK7QString
libdde-file-manager.so.1:_ZN16dde_file_manager23DFileCopyMoveJobPrivate8setStateENS_16DFileCopyMoveJob5StateE
libdde-file-manager.so.1:_ZN16dde_file_manager23DFileCopyMoveJobPrivate9doProcessERK4DUrl28QExplicitlySharedDataPointerI17DAbstractFileInfoEPKS5_
libdde-file-manager.so.1:_ZN16dde_file_manager23DFileCopyMoveJobPrivateC1EPNS_16DFileCopyMoveJobE
libdde-file-manager.so.1:_ZN16dde_file_manager23DFileCopyMoveJobPrivateC2EPNS_16DFileCopyMoveJobE
libdde-file-manager.so.1:_ZN16dde_file_manager23DFileCopyMoveJobPrivateD1Ev
libdde-file-manager.so.1:_ZN16dde_file_manager23DFileCopyMoveJobPrivateD2Ev
libdde-file-manager.so.1:_ZN16dde_file_manager23DLocalFileDevicePrivateC1EPNS_16DLocalFileDeviceE
libdde-file-manager.so.1:_ZN16dde_file_manager23DLocalFileDevicePrivateC2EPNS_16DLocalFileDeviceE
libdde-file-manager.so.1:_ZN16dde_file_manager24DFMBlockPartitionPrivateC1EPNS_17DFMBlockPartitionE
libdde-file-manager.so.1:_ZN16dde_file_manager24DFMBlockPartitionPrivateC2EPNS_17DFMBlockPartitionE
libdde-file-manager.so.1:_ZN16dde_file_manager24DFMCrumbInterfacePrivateC1EPNS_17DFMCrumbInterfaceE
libdde-file-manager.so.1:_ZN16dde_file_manager24DFMCrumbInterfacePrivateC2EPNS_17DFMCrumbInterfaceE
libdde-file-manager.so.1:_ZN16dde_file_manager24DFMFileControllerFactory4keysEv
libdde-file-manager.so.1:_ZN16dde_file_manager24DFMFileControllerFactory6createERK7QString
libdde-file-manager.so.1:_ZN16dde_file_manager24DFMRecentCrumbController10seprateUrlERK4DUrl
libdde-file-manager.so.1:_ZN16dde_file_manager24DFMRecentCrumbController11qt_metacallEN11QMetaObject4CallEiPPv
libdde-file-manager.so.1:_ZN16dde_file_manager24DFMRecentCrumbController11qt_metacastEPKc
libdde-file-manager.so.1:_ZN16dde_file_manager24DFMRecentCrumbController12supportedUrlE4DUrl
libdde-file-manager.so.1:_ZN16dde_file_manager24DFMRecentCrumbControllerC1EP7QObject
libdde-file-manager.so.1:_ZN16dde_file_manager24DFMRecentCrumbControllerC2EP7QObject
libdde-file-manager.so.1:_ZN16dde_file_manager24DFMSearchCrumbController12supportedUrlE4DUrl
libdde-file-manager.so.1:_ZN16dde_file_manager24DFMSearchCrumbController13processActionENS_17DFMCrumbInterface10ActionTypeE
libdde-file-manager.so.1:_ZN16dde_file_manager24DFMSearchCrumbController23crumbUrlChangedBehaviorE4DUrl
libdde-file-manager.so.1:_ZN16dde_file_manager24DFMSearchCrumbControllerC1EP7QObject
libdde-file-manager.so.1:_ZN16dde_file_manager24DFMSearchCrumbControllerC2EP7QObject
libdde-file-manager.so.1:_ZN16dde_file_manager24DFMSearchCrumbControllerD0Ev
libdde-file-manager.so.1:_ZN16dde_file_manager24DFMSearchCrumbControllerD1Ev
libdde-file-manager.so.1:_ZN16dde_file_manager24DFMSearchCrumbControllerD2Ev
libdde-file-manager.so.1:_ZN16dde_file_manager24DFileIconProviderPrivate4initEv
libdde-file-manager.so.1:_ZN16dde_file_manager24DFileIconProviderPrivateC1Ev
libdde-file-manager.so.1:_ZN16dde_file_manager24DFileIconProviderPrivateC2Ev
libdde-file-manager.so.1:_ZN16dde_file_manager25DFMEventDispatcherPrivate8setStateENS_18DFMEventDispatcher5StateE
libdde-file-manager.so.1:_ZN16dde_file_manager25DFMNetworkCrumbController10seprateUrlERK4DUrl
libdde-file-manager.so.1:_ZN16dde_file_manager25DFMNetworkCrumbController12supportedUrlE4DUrl
libdde-file-manager.so.1:_ZN16dde_file_manager25DFMNetworkCrumbControllerC1EP7QObject
libdde-file-manager.so.1:_ZN16dde_file_manager25DFMNetworkCrumbControllerC2EP7QObject
libdde-file-manager.so.1:_ZN16dde_file_manager25DFMNetworkCrumbControllerD0Ev
libdde-file-manager.so.1:_ZN16dde_file_manager25DFMNetworkCrumbControllerD1Ev
libdde-file-manager.so.1:_ZN16dde_file_manager25DFMNetworkCrumbControllerD2Ev
libdde-file-manager.so.1:_ZN16dde_file_manager25DFileIODeviceProxyPrivateC1EPNS_18DFileIODeviceProxyE
libdde-file-manager.so.1:_ZN16dde_file_manager25DFileIODeviceProxyPrivateC2EPNS_18DFileIODeviceProxyE
libdde-file-manager.so.1:_ZN16dde_file_manager25DFileStatisticsJobPrivate10stateCheckEv
libdde-file-manager.so.1:_ZN16dde_file_manager25DFileStatisticsJobPrivate11processFileERK4DUrlR6QQueueIS1_E
libdde-file-manager.so.1:_ZN16dde_file_manager25DFileStatisticsJobPrivate7jobWaitEv
libdde-file-manager.so.1:_ZN16dde_file_manager25DFileStatisticsJobPrivate8setStateENS_18DFileStatisticsJob5StateE
libdde-file-manager.so.1:_ZN16dde_file_manager25DFileStatisticsJobPrivateC1EPNS_18DFileStatisticsJobE
libdde-file-manager.so.1:_ZN16dde_file_manager25DFileStatisticsJobPrivateC2EPNS_18DFileStatisticsJobE
libdde-file-manager.so.1:_ZN16dde_file_manager25DThumbnailProviderPrivate4initEv
libdde-file-manager.so.1:_ZN16dde_file_manager25DThumbnailProviderPrivateC1EPNS_18DThumbnailProviderE
libdde-file-manager.so.1:_ZN16dde_file_manager25DThumbnailProviderPrivateC2EPNS_18DThumbnailProviderE
libdde-file-manager.so.1:_ZN16dde_file_manager26DFMBookmarkCrumbController10seprateUrlERK4DUrl
libdde-file-manager.so.1:_ZN16dde_file_manager26DFMBookmarkCrumbController12supportedUrlE4DUrl
libdde-file-manager.so.1:_ZN16dde_file_manager26DFMBookmarkCrumbControllerC1EP7QObject
libdde-file-manager.so.1:_ZN16dde_file_manager26DFMBookmarkCrumbControllerC2EP7QObject
libdde-file-manager.so.1:_ZN16dde_file_manager26DFMBookmarkCrumbControllerD0Ev
libdde-file-manager.so.1:_ZN16dde_file_manager26DFMBookmarkCrumbControllerD1Ev
libdde-file-manager.so.1:_ZN16dde_file_manager26DFMBookmarkCrumbControllerD2Ev
libdde-file-manager.so.1:_ZN16dde_file_manager26DFMComputerCrumbController10seprateUrlERK4DUrl
libdde-file-manager.so.1:_ZN16dde_file_manager26DFMComputerCrumbController12supportedUrlE4DUrl
libdde-file-manager.so.1:_ZN16dde_file_manager26DFMComputerCrumbControllerC1EP7QObject
libdde-file-manager.so.1:_ZN16dde_file_manager26DFMComputerCrumbControllerC2EP7QObject
libdde-file-manager.so.1:_ZN16dde_file_manager26DFMComputerCrumbControllerD0Ev
libdde-file-manager.so.1:_ZN16dde_file_manager26DFMComputerCrumbControllerD1Ev
libdde-file-manager.so.1:_ZN16dde_file_manager26DFMComputerCrumbControllerD2Ev
libdde-file-manager.so.1:_ZN16dde_file_manager26DFileWatcherManagerPrivateC1Ev
libdde-file-manager.so.1:_ZN16dde_file_manager26DFileWatcherManagerPrivateC2Ev
libdde-file-manager.so.1:_ZN16dde_file_manager26FilePreviewDialogStatusBar11qt_metacallEN11QMetaObject4CallEiPPv
libdde-file-manager.so.1:_ZN16dde_file_manager26FilePreviewDialogStatusBar11qt_metacastEPKc
libdde-file-manager.so.1:_ZN16dde_file_manager26FilePreviewDialogStatusBarC1EP7QWidget
libdde-file-manager.so.1:_ZN16dde_file_manager26FilePreviewDialogStatusBarC2EP7QWidget
libdde-file-manager.so.1:_ZN16dde_file_manager27DFMUserShareCrumbController10seprateUrlERK4DUrl
libdde-file-manager.so.1:_ZN16dde_file_manager27DFMUserShareCrumbController12supportedUrlE4DUrl
libdde-file-manager.so.1:_ZN16dde_file_manager27DFMUserShareCrumbControllerC1EP7QObject
libdde-file-manager.so.1:_ZN16dde_file_manager27DFMUserShareCrumbControllerC2EP7QObject
libdde-file-manager.so.1:_ZN16dde_file_manager27DFMUserShareCrumbControllerD0Ev
libdde-file-manager.so.1:_ZN16dde_file_manager27DFMUserShareCrumbControllerD1Ev
libdde-file-manager.so.1:_ZN16dde_file_manager27DFMUserShareCrumbControllerD2Ev
libdde-file-manager.so.1:_ZN16dde_file_manager28DCompleterStyledItemDelegate11qt_metacallEN11QMetaObject4CallEiPPv
libdde-file-manager.so.1:_ZN16dde_file_manager28DCompleterStyledItemDelegate11qt_metacastEPKc
libdde-file-manager.so.1:_ZN16dde_file_manager28DCompleterStyledItemDelegateC1EP7QObject
libdde-file-manager.so.1:_ZN16dde_file_manager28DCompleterStyledItemDelegateC2EP7QObject
libdde-file-manager.so.1:_ZN16dde_file_manager7UDisks213objectManagerEv
libdde-file-manager.so.1:_ZN16dde_file_manager7UDisks218interfaceIsExistesERK7QStringS3_
libdde-file-manager.so.1:_ZN16dde_file_manager7UDisks220supportedFilesystemsEv
libdde-file-manager.so.1:_ZN16dde_file_manager7UDisks27versionEv
libdde-file-manager.so.1:_ZN16dde_file_manager7fileJobEv
libdde-file-manager.so.1:_ZN16dde_file_manager9CrumbData22setIconFromThemeConfigE7QStringS1_
libdde-file-manager.so.1:_ZN16dde_file_manager9CrumbDataC1E4DUrl7QStringS2_S2_
libdde-file-manager.so.1:_ZN16dde_file_manager9CrumbDataC2E4DUrl7QStringS2_S2_
libdde-file-manager.so.1:_ZN17DAbstractFileInfo11getFileInfoERK4DUrl
libdde-file-manager.so.1:_ZN17DAbstractFileInfo12makeAbsoluteEv
libdde-file-manager.so.1:_ZN17DAbstractFileInfo12makeToActiveEv
libdde-file-manager.so.1:_ZN17DAbstractFileInfo14makeToInactiveEv
libdde-file-manager.so.1:_ZN17DAbstractFileInfo16setColumnCompactEb
libdde-file-manager.so.1:_ZN17DAbstractFileInfo6setUrlERK4DUrl
libdde-file-manager.so.1:_ZN17DAbstractFileInfo7refreshEv
libdde-file-manager.so.1:_ZN17DAbstractFileInfo8setProxyERK28QExplicitlySharedDataPointerIS_E
libdde-file-manager.so.1:_ZN17DAbstractFileInfoC1ER24DAbstractFileInfoPrivate
libdde-file-manager.so.1:_ZN17DAbstractFileInfoC1ERK4DUrlb
libdde-file-manager.so.1:_ZN17DAbstractFileInfoC2ER24DAbstractFileInfoPrivate
libdde-file-manager.so.1:_ZN17DAbstractFileInfoC2ERK4DUrlb
libdde-file-manager.so.1:_ZN17DAbstractFileInfoD0Ev
libdde-file-manager.so.1:_ZN17DAbstractFileInfoD1Ev
libdde-file-manager.so.1:_ZN17DAbstractFileInfoD2Ev
libdde-file-manager.so.1:_ZN17DFMFileShareEvnet8fromJsonERK11QJsonObject
libdde-file-manager.so.1:_ZN17DFMFileShareEvnetC1EPK7QObjectRK4DUrlRK7QStringbb
libdde-file-manager.so.1:_ZN17DFMFileShareEvnetC2EPK7QObjectRK4DUrlRK7QStringbb
libdde-file-manager.so.1:_ZN17DFMSplitterHandle10enterEventEP6QEvent
libdde-file-manager.so.1:_ZN17DFMSplitterHandle10leaveEventEP6QEvent
libdde-file-manager.so.1:_ZN17DFMSplitterHandle11qt_metacallEN11QMetaObject4CallEiPPv
libdde-file-manager.so.1:_ZN17DFMSplitterHandle11qt_metacastEPKc
libdde-file-manager.so.1:_ZN17DFMSplitterHandleC1EN2Qt11OrientationEP9QSplitter
libdde-file-manager.so.1:_ZN17DFMSplitterHandleC2EN2Qt11OrientationEP9QSplitter
libdde-file-manager.so.1:_ZN17DFMTouchFileEvent8fromJsonERK11QJsonObject
libdde-file-manager.so.1:_ZN17DFMTouchFileEventC1EPK7QObjectRK4DUrl
libdde-file-manager.so.1:_ZN17DFMTouchFileEventC2EPK7QObjectRK4DUrl
libdde-file-manager.so.1:_ZN17DFileDialogHandle10selectFileERK7QString
libdde-file-manager.so.1:_ZN17DFileDialogHandle10setOptionsE6QFlagsIN11QFileDialog6OptionEE
libdde-file-manager.so.1:_ZN17DFileDialogHandle11qt_metacallEN11QMetaObject4CallEiPPv
libdde-file-manager.so.1:_ZN17DFileDialogHandle11qt_metacastEPKc
libdde-file-manager.so.1:_ZN17DFileDialogHandle11setFileModeEN11QFileDialog8FileModeE
libdde-file-manager.so.1:_ZN17DFileDialogHandle11setViewModeEN11QFileDialog8ViewModeE
libdde-file-manager.so.1:_ZN17DFileDialogHandle12setDirectoryERK4QDir
libdde-file-manager.so.1:_ZN17DFileDialogHandle12setDirectoryERK7QString
libdde-file-manager.so.1:_ZN17DFileDialogHandle12setLabelTextEN11QFileDialog11DialogLabelERK7QString
libdde-file-manager.so.1:_ZN17DFileDialogHandle13setAcceptModeEN11QFileDialog10AcceptModeE
libdde-file-manager.so.1:_ZN17DFileDialogHandle14setNameFiltersERK11QStringList
libdde-file-manager.so.1:_ZN17DFileDialogHandle15addCustomWidgetEiRK7QString
libdde-file-manager.so.1:_ZN17DFileDialogHandle15setDirectoryUrlERK4QUrl
libdde-file-manager.so.1:_ZN17DFileDialogHandle15setHideOnAcceptEb
libdde-file-manager.so.1:_ZN17DFileDialogHandle16selectNameFilterERK7QString
libdde-file-manager.so.1:_ZN17DFileDialogHandle17currentUrlChangedEv
libdde-file-manager.so.1:_ZN17DFileDialogHandle18endAddCustomWidgetEv
libdde-file-manager.so.1:_ZN17DFileDialogHandle19addDisableUrlSchemeERK7QString
libdde-file-manager.so.1:_ZN17DFileDialogHandle19setCurrentInputNameERK7QString
libdde-file-manager.so.1:_ZN17DFileDialogHandle20beginAddCustomWidgetEv
libdde-file-manager.so.1:_ZN17DFileDialogHandle21selectionFilesChangedEv
libdde-file-manager.so.1:_ZN17DFileDialogHandle23selectNameFilterByIndexEi
libdde-file-manager.so.1:_ZN17DFileDialogHandle25selectedNameFilterChangedEv
libdde-file-manager.so.1:_ZN17DFileDialogHandle4doneEi
libdde-file-manager.so.1:_ZN17DFileDialogHandle4execEv
libdde-file-manager.so.1:_ZN17DFileDialogHandle4hideEv
libdde-file-manager.so.1:_ZN17DFileDialogHandle4openEv
libdde-file-manager.so.1:_ZN17DFileDialogHandle4showEv
libdde-file-manager.so.1:_ZN17DFileDialogHandle6acceptEv
libdde-file-manager.so.1:_ZN17DFileDialogHandle6rejectEv
libdde-file-manager.so.1:_ZN17DFileDialogHandle8acceptedEv
libdde-file-manager.so.1:_ZN17DFileDialogHandle8finishedEi
libdde-file-manager.so.1:_ZN17DFileDialogHandle8rejectedEv
libdde-file-manager.so.1:_ZN17DFileDialogHandle9selectUrlERK4QUrl
libdde-file-manager.so.1:_ZN17DFileDialogHandle9setFilterE6QFlagsIN4QDir6FilterEE
libdde-file-manager.so.1:_ZN17DFileDialogHandle9setOptionEN11QFileDialog6OptionEb
libdde-file-manager.so.1:_ZN17DFileDialogHandle9setParentEP7QWidget
libdde-file-manager.so.1:_ZN17DFileDialogHandleC1EP7QWidget
libdde-file-manager.so.1:_ZN17DFileDialogHandleC2EP7QWidget
libdde-file-manager.so.1:_ZN17DFileDialogHandleD0Ev
libdde-file-manager.so.1:_ZN17DFileDialogHandleD1Ev
libdde-file-manager.so.1:_ZN17DFileDialogHandleD2Ev
libdde-file-manager.so.1:_ZN17DFileProxyWatcher11onFileMovedERK4DUrlS2_
libdde-file-manager.so.1:_ZN17DFileProxyWatcher13onFileDeletedERK4DUrl
libdde-file-manager.so.1:_ZN17DFileProxyWatcher16onSubfileCreatedERK4DUrl
libdde-file-manager.so.1:_ZN17DFileProxyWatcher22onFileAttributeChangedERK4DUrl
libdde-file-manager.so.1:_ZN17DFileProxyWatcherC1ERK4DUrlP20DAbstractFileWatcherSt8functionIFS0_S2_EEP7QObject
libdde-file-manager.so.1:_ZN17DFileProxyWatcherC2ERK4DUrlP20DAbstractFileWatcherSt8functionIFS0_S2_EEP7QObject
libdde-file-manager.so.1:_ZN17DIconItemDelegate11eventFilterEP7QObjectP6QEvent
libdde-file-manager.so.1:_ZN17DIconItemDelegate11qt_metacallEN11QMetaObject4CallEiPPv
libdde-file-manager.so.1:_ZN17DIconItemDelegate11qt_metacastEPKc
libdde-file-manager.so.1:_ZN17DIconItemDelegate12decreaseIconEv
libdde-file-manager.so.1:_ZN17DIconItemDelegate12increaseIconEv
libdde-file-manager.so.1:_ZN17DIconItemDelegate13onTriggerEditERK11QModelIndex
libdde-file-manager.so.1:_ZN17DIconItemDelegate18updateItemSizeHintEv
libdde-file-manager.so.1:_ZN17DIconItemDelegate20onEditWidgetFocusOutEv
libdde-file-manager.so.1:_ZN17DIconItemDelegate20setEnabledTextShadowEb
libdde-file-manager.so.1:_ZN17DIconItemDelegate25hideNotEditingIndexWidgetEv
libdde-file-manager.so.1:_ZN17DIconItemDelegate26setIconSizeByIconSizeLevelEi
libdde-file-manager.so.1:_ZN17DIconItemDelegate33setFocusTextBackgroundBorderColorE6QColor
libdde-file-manager.so.1:_ZN17DIconItemDelegateC1EP15DFileViewHelper
libdde-file-manager.so.1:_ZN17DIconItemDelegateC2EP15DFileViewHelper
libdde-file-manager.so.1:_ZN17DIconItemDelegateD0Ev
libdde-file-manager.so.1:_ZN17DIconItemDelegateD1Ev
libdde-file-manager.so.1:_ZN17DIconItemDelegateD2Ev
libdde-file-manager.so.1:_ZN17DListItemDelegate11eventFilterEP7QObjectP6QEvent
libdde-file-manager.so.1:_ZN17DListItemDelegate18updateItemSizeHintEv
libdde-file-manager.so.1:_ZN17DListItemDelegate9helpEventEP10QHelpEventP17QAbstractItemViewRK20QStyleOptionViewItemRK11QModelIndex
libdde-file-manager.so.1:_ZN17DListItemDelegateC1EP15DFileViewHelper
libdde-file-manager.so.1:_ZN17DListItemDelegateC2EP15DFileViewHelper
libdde-file-manager.so.1:_ZN17DRenameBarPrivate11layoutItemsEv
libdde-file-manager.so.1:_ZN17DRenameBarPrivate15setUiParametersEv
libdde-file-manager.so.1:_ZN17DRenameBarPrivate18setRenameBtnStatusERKb
libdde-file-manager.so.1:_ZN17DRenameBarPrivate6initUiEv
libdde-file-manager.so.1:_ZN17DRenameBarPrivateC1EP10DRenameBar
libdde-file-manager.so.1:_ZN17DRenameBarPrivateC2EP10DRenameBar
libdde-file-manager.so.1:_ZN17FileSignalManager10jobRemovedERK4QMapI7QStringS1_E
libdde-file-manager.so.1:_ZN17FileSignalManager11qt_metacallEN11QMetaObject4CallEiPPv
libdde-file-manager.so.1:_ZN17FileSignalManager11qt_metacastEPKc
libdde-file-manager.so.1:_ZN17FileSignalManager13requestRenameERK15DFMUrlBaseEvent
libdde-file-manager.so.1:_ZN17FileSignalManager14jobDataUpdatedERK4QMapI7QStringS1_ES4_
libdde-file-manager.so.1:_ZN17FileSignalManager15bookmarkRenamedERK7QStringRK15DFMUrlBaseEvent
libdde-file-manager.so.1:_ZN17FileSignalManager15requestAbortJobERK4DUrl
libdde-file-manager.so.1:_ZN17FileSignalManager15showAboutDialogEy
libdde-file-manager.so.1:_ZN17FileSignalManager16requestRenameTagERK4DUrl
libdde-file-manager.so.1:_ZN17FileSignalManager17currentUrlChangedERK15DFMUrlBaseEvent
libdde-file-manager.so.1:_ZN17FileSignalManager17requestSelectFileERK19DFMUrlListBaseEvent
libdde-file-manager.so.1:_ZN17FileSignalManager17trashStateChangedEv
libdde-file-manager.so.1:_ZN17FileSignalManager18requestSearchCtrlFEy
libdde-file-manager.so.1:_ZN17FileSignalManager18requestSearchCtrlLEy
libdde-file-manager.so.1:_ZN17FileSignalManager19requestActiveWindowEv
libdde-file-manager.so.1:_ZN17FileSignalManager19showDiskErrorDialogERK7QStringS2_
libdde-file-manager.so.1:_ZN17FileSignalManager20conflictDialogShowedERK4QMapI7QStringS1_E
libdde-file-manager.so.1:_ZN17FileSignalManager20requestFetchNetworksERK15DFMUrlBaseEvent
libdde-file-manager.so.1:_ZN17FileSignalManager20requestFreshFileViewEy
libdde-file-manager.so.1:_ZN17FileSignalManager20requestViewSelectAllEi
libdde-file-manager.so.1:_ZN17FileSignalManager21requestBookmarkRenameERK8DFMEvent
libdde-file-manager.so.1:_ZN17FileSignalManager21requestCacheSortStateEv
libdde-file-manager.so.1:_ZN17FileSignalManager21requsetCacheLoginDataERK11QJsonObject
libdde-file-manager.so.1:_ZN17FileSignalManager21statusBarItemsCountedERK8DFMEventi
libdde-file-manager.so.1:_ZN17FileSignalManager21userShareCountChangedEi
libdde-file-manager.so.1:_ZN17FileSignalManager22requestCloseCurrentTabEy
libdde-file-manager.so.1:_ZN17FileSignalManager22requestFoucsOnFileViewEy
libdde-file-manager.so.1:_ZN17FileSignalManager22requestQuitApplicationEv
libdde-file-manager.so.1:_ZN17FileSignalManager22requestShowErrorDialogERK7QStringS2_
libdde-file-manager.so.1:_ZN17FileSignalManager22statusBarItemsSelectedERK8DFMEventi
libdde-file-manager.so.1:_ZN17FileSignalManager23requestFreshAllFileViewEv
libdde-file-manager.so.1:_ZN17FileSignalManager23requestMultiFilesRenameERK19DFMUrlListBaseEvent
libdde-file-manager.so.1:_ZN17FileSignalManager23requestSelectRenameFileERK15DFMUrlBaseEvent
libdde-file-manager.so.1:_ZN17FileSignalManager24requestShow4GFat32DialogEv
libdde-file-manager.so.1:_ZN17FileSignalManager25requestOpenNewWindowByUrlERK4DUrlb
libdde-file-manager.so.1:_ZN17FileSignalManager25requestShowOpenWithDialogERK8DFMEvent
libdde-file-manager.so.1:_ZN17FileSignalManager25requestShowPropertyDialogERK19DFMUrlListBaseEvent
libdde-file-manager.so.1:_ZN17FileSignalManager25requestShowUrlWrongDialogERK4DUrl
libdde-file-manager.so.1:_ZN17FileSignalManager25requestStopUpdateJobTimerEv
libdde-file-manager.so.1:_ZN17FileSignalManager26requestStartUpdateJobTimerEv
libdde-file-manager.so.1:_ZN17FileSignalManager26requestUpdateMimeAppsCacheEv
libdde-file-manager.so.1:_ZN17FileSignalManager27requestChooseSmbMountedFileERK15DFMUrlBaseEvent
libdde-file-manager.so.1:_ZN17FileSignalManager28requestShowFilePreviewDialogERK5QListI4DUrlES4_
libdde-file-manager.so.1:_ZN17FileSignalManager29aboutToCloseLastActivedWindowEi
libdde-file-manager.so.1:_ZN17FileSignalManager29requestShowNoPermissionDialogERK19DFMUrlListBaseEvent
libdde-file-manager.so.1:_ZN17FileSignalManager30requestShowRestoreFailedDialogERK5QListI4DUrlE
libdde-file-manager.so.1:_ZN17FileSignalManager30requestShowTrashPropertyDialogERK8DFMEvent
libdde-file-manager.so.1:_ZN17FileSignalManager31requestShowDevicePropertyDialogERK8DFMEvent
libdde-file-manager.so.1:_ZN17FileSignalManager32requestChangeIconSizeBySizeIndexERKi
libdde-file-manager.so.1:_ZN17FileSignalManager33requestShowComputerPropertyDialogERK8DFMEvent
libdde-file-manager.so.1:_ZN17FileSignalManager35requestShowAddUserShareFailedDialogERK7QString
libdde-file-manager.so.1:_ZN17FileSignalManager38requestShowRestoreFailedPerssionDialogERK7QStringS2_
libdde-file-manager.so.1:_ZN17FileSignalManager39requestShowShareOptionsInPropertyDialogERK19DFMUrlListBaseEvent
libdde-file-manager.so.1:_ZN17FileSignalManager8jobAddedERK4QMapI7QStringS1_E
libdde-file-manager.so.1:_ZN17FileSignalManager9abortTaskERK4QMapI7QStringS1_E
libdde-file-manager.so.1:_ZN17FileSignalManagerC1EP7QObject
libdde-file-manager.so.1:_ZN17FileSignalManagerC2EP7QObject
libdde-file-manager.so.1:_ZN17NetworkController11qt_metacallEN11QMetaObject4CallEiPPv
libdde-file-manager.so.1:_ZN17NetworkController11qt_metacastEPKc
libdde-file-manager.so.1:_ZN17NetworkControllerC1EP7QObject
libdde-file-manager.so.1:_ZN17NetworkControllerC2EP7QObject
libdde-file-manager.so.1:_ZN17NetworkControllerD0Ev
libdde-file-manager.so.1:_ZN17NetworkControllerD1Ev
libdde-file-manager.so.1:_ZN17NetworkControllerD2Ev
libdde-file-manager.so.1:_ZN17RecentDirIterator4nextEv
libdde-file-manager.so.1:_ZN17RecentDirIteratorC1ERK4DUrlRK11QStringList6QFlagsIN4QDir6FilterEES6_IN12QDirIterator12IteratorFlagEEP16RecentController
libdde-file-manager.so.1:_ZN17RecentDirIteratorC2ERK4DUrlRK11QStringList6QFlagsIN4QDir6FilterEES6_IN12QDirIterator12IteratorFlagEEP16RecentController
libdde-file-manager.so.1:_ZN17RecentFileWatcher10addWatcherERK4DUrl
libdde-file-manager.so.1:_ZN17RecentFileWatcher13onFileDeletedERK4DUrl
libdde-file-manager.so.1:_ZN17RecentFileWatcher13removeWatcherERK4DUrl
libdde-file-manager.so.1:_ZN17RecentFileWatcher14onFileModifiedERK4DUrl
libdde-file-manager.so.1:_ZN17RecentFileWatcher22onFileAttributeChangedERK4DUrl
libdde-file-manager.so.1:_ZN17RecentFileWatcher24setEnabledSubfileWatcherERK4DUrlb
libdde-file-manager.so.1:_ZN17RecentFileWatcherC1ERK4DUrlP7QObject
libdde-file-manager.so.1:_ZN17RecentFileWatcherC2ERK4DUrlP7QObject
libdde-file-manager.so.1:_ZN17SearchDiriterator4nextEv
libdde-file-manager.so.1:_ZN17SearchDiriterator5closeEv
libdde-file-manager.so.1:_ZN17SearchDiriteratorC1ERK4DUrlRK11QStringList6QFlagsIN4QDir6FilterEES6_IN12QDirIterator12IteratorFlagEEP16SearchController
libdde-file-manager.so.1:_ZN17SearchDiriteratorC2ERK4DUrlRK11QStringList6QFlagsIN4QDir6FilterEES6_IN12QDirIterator12IteratorFlagEEP16SearchController
libdde-file-manager.so.1:_ZN17SearchDiriteratorD0Ev
libdde-file-manager.so.1:_ZN17SearchDiriteratorD1Ev
libdde-file-manager.so.1:_ZN17SearchDiriteratorD2Ev
libdde-file-manager.so.1:_ZN17SearchFileWatcher10addWatcherERK4DUrl
libdde-file-manager.so.1:_ZN17SearchFileWatcher11onFileMovedERK4DUrlS2_
libdde-file-manager.so.1:_ZN17SearchFileWatcher13onFileDeletedERK4DUrl
libdde-file-manager.so.1:_ZN17SearchFileWatcher13removeWatcherERK4DUrl
libdde-file-manager.so.1:_ZN17SearchFileWatcher14onFileModifiedERK4DUrl
libdde-file-manager.so.1:_ZN17SearchFileWatcher22onFileAttributeChangedERK4DUrl
libdde-file-manager.so.1:_ZN17SearchFileWatcher24setEnabledSubfileWatcherERK4DUrlb
libdde-file-manager.so.1:_ZN17SearchFileWatcherC1ERK4DUrlP7QObject
libdde-file-manager.so.1:_ZN17SearchFileWatcherC2ERK4DUrlP7QObject
libdde-file-manager.so.1:_ZN17SearchFileWatcherD0Ev
libdde-file-manager.so.1:_ZN17SearchFileWatcherD1Ev
libdde-file-manager.so.1:_ZN17SearchFileWatcherD2Ev
libdde-file-manager.so.1:_ZN17SectionValueLabel11qt_metacallEN11QMetaObject4CallEiPPv
libdde-file-manager.so.1:_ZN17SectionValueLabel11qt_metacastEPKc
libdde-file-manager.so.1:_ZN17SectionValueLabelC1ERK7QStringP7QWidget6QFlagsIN2Qt10WindowTypeEE
libdde-file-manager.so.1:_ZN17SectionValueLabelC2ERK7QStringP7QWidget6QFlagsIN2Qt10WindowTypeEE
libdde-file-manager.so.1:_ZN17TaggedFileWatcher10addWatcherERK4DUrl
libdde-file-manager.so.1:_ZN17TaggedFileWatcher13removeWatcherERK4DUrl
libdde-file-manager.so.1:_ZN17TaggedFileWatcher24setEnabledSubfileWatcherERK4DUrlb
libdde-file-manager.so.1:_ZN17TaggedFileWatcherC1ERK4DUrlP7QObject
libdde-file-manager.so.1:_ZN17TaggedFileWatcherC2ERK4DUrlP7QObject
libdde-file-manager.so.1:_ZN18AVFSFileController11qt_metacallEN11QMetaObject4CallEiPPv
libdde-file-manager.so.1:_ZN18AVFSFileController11qt_metacastEPKc
libdde-file-manager.so.1:_ZN18AVFSFileController20findArchFileRootPathERK4DUrl
libdde-file-manager.so.1:_ZN18AVFSFileController7realUrlERK4DUrl
libdde-file-manager.so.1:_ZN18AVFSFileControllerC1EP7QObject
libdde-file-manager.so.1:_ZN18AVFSFileControllerC2EP7QObject
libdde-file-manager.so.1:_ZN18DFMDecompressEvnet8fromJsonERK11QJsonObject
libdde-file-manager.so.1:_ZN18DFMDecompressEvnetC1EPK7QObjectRK5QListI4DUrlE
libdde-file-manager.so.1:_ZN18DFMDecompressEvnetC2EPK7QObjectRK5QListI4DUrlE
libdde-file-manager.so.1:_ZN18DFMMenuActionEvent8fromJsonERK11QJsonObject
libdde-file-manager.so.1:_ZN18DFMMenuActionEventC1EPK7QObjectPK9DFileMenuRK4DUrlRK5QListIS6_EN9DFMGlobal10MenuActionE
libdde-file-manager.so.1:_ZN18DFMMenuActionEventC2EPK7QObjectPK9DFileMenuRK4DUrlRK5QListIS6_EN9DFMGlobal10MenuActionE
libdde-file-manager.so.1:_ZN18DFMOpenNewTabEvent8fromJsonERK11QJsonObject
libdde-file-manager.so.1:_ZN18DFMOpenNewTabEventC1EPK7QObjectRK4DUrl
libdde-file-manager.so.1:_ZN18DFMOpenNewTabEventC2EPK7QObjectRK4DUrl
libdde-file-manager.so.1:_ZN18DFMRevocationEventC1EPK7QObject
libdde-file-manager.so.1:_ZN18DFMRevocationEventC2EPK7QObject
libdde-file-manager.so.1:_ZN18DFileManagerWindow10closeEventEP11QCloseEvent
libdde-file-manager.so.1:_ZN18DFileManagerWindow10initTabBarEv
libdde-file-manager.so.1:_ZN18DFileManagerWindow10moveCenterERK6QPoint
libdde-file-manager.so.1:_ZN18DFileManagerWindow10openNewTabE4DUrl
libdde-file-manager.so.1:_ZN18DFileManagerWindow11eventFilterEP7QObjectP6QEvent
libdde-file-manager.so.1:_ZN18DFileManagerWindow11initConnectEv
libdde-file-manager.so.1:_ZN18DFileManagerWindow11initToolBarEv
libdde-file-manager.so.1:_ZN18DFileManagerWindow11qt_metacallEN11QMetaObject4CallEiPPv
libdde-file-manager.so.1:_ZN18DFileManagerWindow11qt_metacastEPKc
libdde-file-manager.so.1:_ZN18DFileManagerWindow11resizeEventEP12QResizeEvent
libdde-file-manager.so.1:_ZN18DFileManagerWindow12aboutToCloseEv
libdde-file-manager.so.1:_ZN18DFileManagerWindow12initSplitterEv
libdde-file-manager.so.1:_ZN18DFileManagerWindow12initTitleBarEv
libdde-file-manager.so.1:_ZN18DFileManagerWindow12moveTopRightEv
libdde-file-manager.so.1:_ZN18DFileManagerWindow12switchToViewEPN16dde_file_manager11DFMBaseViewE
libdde-file-manager.so.1:_ZN18DFileManagerWindow13handleNewViewEPN16dde_file_manager11DFMBaseViewE
libdde-file-manager.so.1:_ZN18DFileManagerWindow13hideRenameBarEv
libdde-file-manager.so.1:_ZN18DFileManagerWindow13initRightViewEv
libdde-file-manager.so.1:_ZN18DFileManagerWindow13keyPressEventEP9QKeyEvent
libdde-file-manager.so.1:_ZN18DFileManagerWindow14cdForTabByViewEPN16dde_file_manager11DFMBaseViewERK4DUrl
libdde-file-manager.so.1:_ZN18DFileManagerWindow14initTitleFrameEv
libdde-file-manager.so.1:_ZN18DFileManagerWindow14initViewLayoutEv
libdde-file-manager.so.1:_ZN18DFileManagerWindow14onThemeChangedEv
libdde-file-manager.so.1:_ZN18DFileManagerWindow15closeCurrentTabEy
libdde-file-manager.so.1:_ZN18DFileManagerWindow15initLeftSideBarEv
libdde-file-manager.so.1:_ZN18DFileManagerWindow15onShowRenameBarERK19DFMUrlListBaseEvent
libdde-file-manager.so.1:_ZN18DFileManagerWindow15positionChangedERK6QPoint
libdde-file-manager.so.1:_ZN18DFileManagerWindow16hideNewTabButtonEv
libdde-file-manager.so.1:_ZN18DFileManagerWindow16moveCenterByRectE5QRect
libdde-file-manager.so.1:_ZN18DFileManagerWindow16showNewTabButtonEv
libdde-file-manager.so.1:_ZN18DFileManagerWindow17currentUrlChangedEv
libdde-file-manager.so.1:_ZN18DFileManagerWindow17initCentralWidgetEv
libdde-file-manager.so.1:_ZN18DFileManagerWindow17onRequestCloseTabEiRKb
libdde-file-manager.so.1:_ZN18DFileManagerWindow18initRenameBarStateEv
libdde-file-manager.so.1:_ZN18DFileManagerWindow18moveTopRightByRectE5QRect
libdde-file-manager.so.1:_ZN18DFileManagerWindow19onCurrentTabChangedEi
libdde-file-manager.so.1:_ZN18DFileManagerWindow19onTabAddableChangedEb
libdde-file-manager.so.1:_ZN18DFileManagerWindow19onTrashStateChangedEv
libdde-file-manager.so.1:_ZN18DFileManagerWindow19requestToSelectUrlsEv
libdde-file-manager.so.1:_ZN18DFileManagerWindow19setSplitterPositionEi
libdde-file-manager.so.1:_ZN18DFileManagerWindow20hideEmptyTrashButtonEv
libdde-file-manager.so.1:_ZN18DFileManagerWindow20showEmptyTrashButtonEv
libdde-file-manager.so.1:_ZN18DFileManagerWindow21mouseDoubleClickEventEP11QMouseEvent
libdde-file-manager.so.1:_ZN18DFileManagerWindow21onNewTabButtonClickedEv
libdde-file-manager.so.1:_ZN18DFileManagerWindow22requestEmptyTrashFilesEv
libdde-file-manager.so.1:_ZN18DFileManagerWindow22toggleAdvanceSearchBarEbb
libdde-file-manager.so.1:_ZN18DFileManagerWindow23currentViewStateChangedEv
libdde-file-manager.so.1:_ZN18DFileManagerWindow25isAdvanceSearchBarVisibleEv
libdde-file-manager.so.1:_ZN18DFileManagerWindow25isCurrentUrlSupportSearchERK4DUrl
libdde-file-manager.so.1:_ZN18DFileManagerWindow26onTabBarCurrentIndexChangeERKi
libdde-file-manager.so.1:_ZN18DFileManagerWindow2cdERK4DUrl
libdde-file-manager.so.1:_ZN18DFileManagerWindow6initUIEv
libdde-file-manager.so.1:_ZN18DFileManagerWindow7fmEventERK14QSharedPointerI8DFMEventEP8QVariant
libdde-file-manager.so.1:_ZN18DFileManagerWindow8cdForTabEiRK4DUrl
libdde-file-manager.so.1:_ZN18DFileManagerWindow8initDataEv
libdde-file-manager.so.1:_ZN18DFileManagerWindow8setThemeERK7QString
libdde-file-manager.so.1:_ZN18DFileManagerWindow8windowIdEv
libdde-file-manager.so.1:_ZN18DFileManagerWindow9hideEventEP10QHideEvent
libdde-file-manager.so.1:_ZN18DFileManagerWindow9moveEventEP10QMoveEvent
libdde-file-manager.so.1:_ZN18DFileManagerWindow9showEventEP10QShowEvent
libdde-file-manager.so.1:_ZN18DFileManagerWindowC1EP7QWidget
libdde-file-manager.so.1:_ZN18DFileManagerWindowC1ERK4DUrlP7QWidget
libdde-file-manager.so.1:_ZN18DFileManagerWindowC2EP7QWidget
libdde-file-manager.so.1:_ZN18DFileManagerWindowC2ERK4DUrlP7QWidget
libdde-file-manager.so.1:_ZN18DFileManagerWindowD0Ev
libdde-file-manager.so.1:_ZN18DFileManagerWindowD1Ev
libdde-file-manager.so.1:_ZN18DFileManagerWindowD2Ev
libdde-file-manager.so.1:_ZN18DFileSystemWatcher10fileClosedERK7QStringS2_NS_14QPrivateSignalE
libdde-file-manager.so.1:_ZN18DFileSystemWatcher10removePathERK7QString
libdde-file-manager.so.1:_ZN18DFileSystemWatcher11fileCreatedERK7QStringS2_NS_14QPrivateSignalE
libdde-file-manager.so.1:_ZN18DFileSystemWatcher11fileDeletedERK7QStringS2_NS_14QPrivateSignalE
libdde-file-manager.so.1:_ZN18DFileSystemWatcher11qt_metacallEN11QMetaObject4CallEiPPv
libdde-file-manager.so.1:_ZN18DFileSystemWatcher11qt_metacastEPKc
libdde-file-manager.so.1:_ZN18DFileSystemWatcher11removePathsERK11QStringList
libdde-file-manager.so.1:_ZN18DFileSystemWatcher12fileModifiedERK7QStringS2_NS_14QPrivateSignalE
libdde-file-manager.so.1:_ZN18DFileSystemWatcher20fileAttributeChangedERK7QStringS2_NS_14QPrivateSignalE
libdde-file-manager.so.1:_ZN18DFileSystemWatcher7addPathERK7QString
libdde-file-manager.so.1:_ZN18DFileSystemWatcher8addPathsERK11QStringList
libdde-file-manager.so.1:_ZN18DFileSystemWatcher9fileMovedERK7QStringS2_S2_S2_NS_14QPrivateSignalE
libdde-file-manager.so.1:_ZN18DFileSystemWatcherC1EP7QObject
libdde-file-manager.so.1:_ZN18DFileSystemWatcherC1ERK11QStringListP7QObject
libdde-file-manager.so.1:_ZN18DFileSystemWatcherC2EP7QObject
libdde-file-manager.so.1:_ZN18DFileSystemWatcherC2ERK11QStringListP7QObject
libdde-file-manager.so.1:_ZN18DFileSystemWatcherD0Ev
libdde-file-manager.so.1:_ZN18DFileSystemWatcherD1Ev
libdde-file-manager.so.1:_ZN18DFileSystemWatcherD2Ev
libdde-file-manager.so.1:_ZN18DQuickSearchFilter11qt_metacallEN11QMetaObject4CallEiPPv
libdde-file-manager.so.1:_ZN18DQuickSearchFilter11qt_metacastEPKc
libdde-file-manager.so.1:_ZN18DQuickSearchFilterC1Ev
libdde-file-manager.so.1:_ZN18DQuickSearchFilterC2Ev
libdde-file-manager.so.1:_ZN18DQuickSearchFilterD0Ev
libdde-file-manager.so.1:_ZN18DQuickSearchFilterD1Ev
libdde-file-manager.so.1:_ZN18DQuickSearchFilterD2Ev
libdde-file-manager.so.1:_ZN18DefaultDiriterator4nextEv
libdde-file-manager.so.1:_ZN18DefaultDiriteratorC1EPK23DAbstractFileControllerRK14QSharedPointerI20DFMCreateDiriteratorE
libdde-file-manager.so.1:_ZN18DefaultDiriteratorC2EPK23DAbstractFileControllerRK14QSharedPointerI20DFMCreateDiriteratorE
libdde-file-manager.so.1:_ZN18DiskMountInterface11qt_metacallEN11QMetaObject4CallEiPPv
libdde-file-manager.so.1:_ZN18DiskMountInterface11qt_metacastEPKc
libdde-file-manager.so.1:_ZN18DiskMountInterface5ErrorERK7QStringS2_
libdde-file-manager.so.1:_ZN18DiskMountInterface7ChangedEiRK7QString
libdde-file-manager.so.1:_ZN18DiskMountInterfaceC1ERK7QStringS2_RK15QDBusConnectionP7QObject
libdde-file-manager.so.1:_ZN18DiskMountInterfaceC2ERK7QStringS2_RK15QDBusConnectionP7QObject
libdde-file-manager.so.1:_ZN18DiskMountInterfaceD0Ev
libdde-file-manager.so.1:_ZN18DiskMountInterfaceD1Ev
libdde-file-manager.so.1:_ZN18DiskMountInterfaceD2Ev
libdde-file-manager.so.1:_ZN18MoveCopyTaskWidget10setMessageERK7QStringS2_
libdde-file-manager.so.1:_ZN18MoveCopyTaskWidget11getProgressEv
libdde-file-manager.so.1:_ZN18MoveCopyTaskWidget11getTimeLeftEv
libdde-file-manager.so.1:_ZN18MoveCopyTaskWidget11handleCloseEv
libdde-file-manager.so.1:_ZN18MoveCopyTaskWidget11initConnectEv
libdde-file-manager.so.1:_ZN18MoveCopyTaskWidget11qt_metacallEN11QMetaObject4CallEiPPv
libdde-file-manager.so.1:_ZN18MoveCopyTaskWidget11qt_metacastEPKc
libdde-file-manager.so.1:_ZN18MoveCopyTaskWidget11setProgressE7QString
libdde-file-manager.so.1:_ZN18MoveCopyTaskWidget11setProgressEi
libdde-file-manager.so.1:_ZN18MoveCopyTaskWidget11setTimeLeftEi
libdde-file-manager.so.1:_ZN18MoveCopyTaskWidget12getTargetObjEv
libdde-file-manager.so.1:_ZN18MoveCopyTaskWidget12hideConflictEv
libdde-file-manager.so.1:_ZN18MoveCopyTaskWidget12setTargetObjE7QString
libdde-file-manager.so.1:_ZN18MoveCopyTaskWidget12showConflictEv
libdde-file-manager.so.1:_ZN18MoveCopyTaskWidget13conflictHidedERK4QMapI7QStringS1_E
libdde-file-manager.so.1:_ZN18MoveCopyTaskWidget13heightChangedEv
libdde-file-manager.so.1:_ZN18MoveCopyTaskWidget13hovereChangedERKb
libdde-file-manager.so.1:_ZN18MoveCopyTaskWidget13setTipMessageERK7QStringS2_
libdde-file-manager.so.1:_ZN18MoveCopyTaskWidget13updateMessageERK4QMapI7QStringS1_E
libdde-file-manager.so.1:_ZN18MoveCopyTaskWidget14conflictShowedERK4QMapI7QStringS1_E
libdde-file-manager.so.1:_ZN18MoveCopyTaskWidget14handleResponseEv
libdde-file-manager.so.1:_ZN18MoveCopyTaskWidget15disposeJobErrorEN16dde_file_manager16DFileCopyMoveJob6ActionE
libdde-file-manager.so.1:_ZN18MoveCopyTaskWidget15hideButtonFrameEv
libdde-file-manager.so.1:_ZN18MoveCopyTaskWidget15initButtonFrameEv
libdde-file-manager.so.1:_ZN18MoveCopyTaskWidget15showButtonFrameEv
libdde-file-manager.so.1:_ZN18MoveCopyTaskWidget16updateTipMessageEv
libdde-file-manager.so.1:_ZN18MoveCopyTaskWidget17getDestinationObjEv
libdde-file-manager.so.1:_ZN18MoveCopyTaskWidget17handleLineDisplayERKiRKbS1_
libdde-file-manager.so.1:_ZN18MoveCopyTaskWidget17onJobSpeedChangedEx
libdde-file-manager.so.1:_ZN18MoveCopyTaskWidget17setDestinationObjE7QString
libdde-file-manager.so.1:_ZN18MoveCopyTaskWidget18updateMessageByJobEv
libdde-file-manager.so.1:_ZN18MoveCopyTaskWidget20onJobProgressChangedEd
libdde-file-manager.so.1:_ZN18MoveCopyTaskWidget22onJobCurrentJobChangedE4DUrlS0_
libdde-file-manager.so.1:_ZN18MoveCopyTaskWidget23initConflictDetailFrameEv
libdde-file-manager.so.1:_ZN18MoveCopyTaskWidget25conflictResponseConfirmedERK4QMapI7QStringS1_ERKS0_IS1_8QVariantE
libdde-file-manager.so.1:_ZN18MoveCopyTaskWidget25updateConflictDetailFrameE4DUrlS0_
libdde-file-manager.so.1:_ZN18MoveCopyTaskWidget5eventEP6QEvent
libdde-file-manager.so.1:_ZN18MoveCopyTaskWidget6closedERK4QMapI7QStringS1_E
libdde-file-manager.so.1:_ZN18MoveCopyTaskWidget6initUIEv
libdde-file-manager.so.1:_ZN18MoveCopyTaskWidget8getSpeedEv
libdde-file-manager.so.1:_ZN18MoveCopyTaskWidget8setSpeedEf
libdde-file-manager.so.1:_ZN18MoveCopyTaskWidgetC1EPN16dde_file_manager16DFileCopyMoveJobEP7QWidget
libdde-file-manager.so.1:_ZN18MoveCopyTaskWidgetC1ERK4QMapI7QStringS1_EP7QWidget
libdde-file-manager.so.1:_ZN18MoveCopyTaskWidgetC2EPN16dde_file_manager16DFileCopyMoveJobEP7QWidget
libdde-file-manager.so.1:_ZN18MoveCopyTaskWidgetC2ERK4QMapI7QStringS1_EP7QWidget
libdde-file-manager.so.1:_ZN18MoveCopyTaskWidgetD0Ev
libdde-file-manager.so.1:_ZN18MoveCopyTaskWidgetD1Ev
libdde-file-manager.so.1:_ZN18MoveCopyTaskWidgetD2Ev
libdde-file-manager.so.1:_ZN18UserShareInterface11qt_metacallEN11QMetaObject4CallEiPPv
libdde-file-manager.so.1:_ZN18UserShareInterface11qt_metacastEPKc
libdde-file-manager.so.1:_ZN18UserShareInterfaceC1ERK7QStringS2_RK15QDBusConnectionP7QObject
libdde-file-manager.so.1:_ZN18UserShareInterfaceC2ERK7QStringS2_RK15QDBusConnectionP7QObject
libdde-file-manager.so.1:_ZN18UserShareInterfaceD0Ev
libdde-file-manager.so.1:_ZN18UserShareInterfaceD1Ev
libdde-file-manager.so.1:_ZN18UserShareInterfaceD2Ev
libdde-file-manager.so.1:_ZN19DFMDeviceController11qt_metacallEN11QMetaObject4CallEiPPv
libdde-file-manager.so.1:_ZN19DFMDeviceController11qt_metacastEPKc
libdde-file-manager.so.1:_ZN19DFMDeviceController12forceUnmountERK7QString
libdde-file-manager.so.1:_ZN19DFMDeviceController14initVfsManagerEv
libdde-file-manager.so.1:_ZN19DFMDeviceController15initDiskManagerEv
libdde-file-manager.so.1:_ZN19DFMDeviceController21fileSystemDeviceAddedE7QString
libdde-file-manager.so.1:_ZN19DFMDeviceController23fileSystemDeviceRemovedE7QString
libdde-file-manager.so.1:_ZN19DFMDeviceController30fileSystemDeviceIdLabelChangedERK7QString
libdde-file-manager.so.1:_ZN19DFMDeviceController30virualFileSystemDeviceAttachedERK4QUrl
libdde-file-manager.so.1:_ZN19DFMDeviceController30virualFileSystemDeviceDetachedERK4QUrl
libdde-file-manager.so.1:_ZN19DFMDeviceController5ejectERK7QString
libdde-file-manager.so.1:_ZN19DFMDeviceController5mountERK7QString
libdde-file-manager.so.1:_ZN19DFMDeviceController7unmountERK7QString
libdde-file-manager.so.1:_ZN19DFMDeviceController9stopDriveERK7QString
libdde-file-manager.so.1:_ZN19DFMDeviceControllerC1EP7QObject
libdde-file-manager.so.1:_ZN19DFMDeviceControllerC2EP7QObject
libdde-file-manager.so.1:_ZN19DFMMoveToTrashEvent8fromJsonERK11QJsonObject
libdde-file-manager.so.1:_ZN19DFMMoveToTrashEventC1EPK7QObjectRK5QListI4DUrlE
libdde-file-manager.so.1:_ZN19DFMMoveToTrashEventC2EPK7QObjectRK5QListI4DUrlE
libdde-file-manager.so.1:_ZN19DFMOpenFileLocation8fromJsonERK11QJsonObject
libdde-file-manager.so.1:_ZN19DFMOpenFileLocationC1EPK7QObjectRK4DUrl
libdde-file-manager.so.1:_ZN19DFMOpenFileLocationC2EPK7QObjectRK4DUrl
libdde-file-manager.so.1:_ZN19DFMSetFileTagsEvent8fromJsonERK11QJsonObject
libdde-file-manager.so.1:_ZN19DFMSetFileTagsEventC1EPK7QObjectRK4DUrlRK5QListI7QStringE
libdde-file-manager.so.1:_ZN19DFMSetFileTagsEventC2EPK7QObjectRK4DUrlRK5QListI7QStringE
libdde-file-manager.so.1:_ZN19DFMUrlListBaseEvent8fromJsonEN8DFMEvent4TypeERK11QJsonObject
libdde-file-manager.so.1:_ZN19DFMUrlListBaseEventC1EN8DFMEvent4TypeEPK7QObjectRK5QListI4DUrlE
libdde-file-manager.so.1:_ZN19DFMUrlListBaseEventC1EPK7QObjectRK5QListI4DUrlE
libdde-file-manager.so.1:_ZN19DFMUrlListBaseEventC1Ev
libdde-file-manager.so.1:_ZN19DFMUrlListBaseEventC2EN8DFMEvent4TypeEPK7QObjectRK5QListI4DUrlE
libdde-file-manager.so.1:_ZN19DFMUrlListBaseEventC2EPK7QObjectRK5QListI4DUrlE
libdde-file-manager.so.1:_ZN19DFMUrlListBaseEventC2Ev
libdde-file-manager.so.1:_ZN19DFileSelectionModel15updateSelectedsEv
libdde-file-manager.so.1:_ZN19DFileSelectionModel5clearEv
libdde-file-manager.so.1:_ZN19DFileSelectionModel6selectERK14QItemSelection6QFlagsIN19QItemSelectionModel13SelectionFlagEE
libdde-file-manager.so.1:_ZN19DFileSelectionModelC1EP18QAbstractItemModel
libdde-file-manager.so.1:_ZN19DFileSelectionModelC1EP18QAbstractItemModelP7QObject
libdde-file-manager.so.1:_ZN19DFileSelectionModelC2EP18QAbstractItemModel
libdde-file-manager.so.1:_ZN19DFileSelectionModelC2EP18QAbstractItemModelP7QObject
libdde-file-manager.so.1:_ZN19DFileWatcherPrivate10formatPathERK7QString
libdde-file-manager.so.1:_ZN19DFileWatcherPrivate17handleGhostSignalERK4DUrlM20DAbstractFileWatcherFvS2_ES2_
libdde-file-manager.so.1:_ZN19DFileWatcherPrivate17handleGhostSignalERK4DUrlM20DAbstractFileWatcherFvS2_S2_ES2_S2_
libdde-file-manager.so.1:_ZN19DFileWatcherPrivate18_q_handleFileCloseERK7QStringS2_
libdde-file-manager.so.1:_ZN19DFileWatcherPrivate18_q_handleFileMovedERK7QStringS2_S2_S2_
libdde-file-manager.so.1:_ZN19DFileWatcherPrivate20_q_handleFileCreatedERK7QStringS2_
libdde-file-manager.so.1:_ZN19DFileWatcherPrivate20_q_handleFileDeletedERK7QStringS2_
libdde-file-manager.so.1:_ZN19DFileWatcherPrivate21_q_handleFileModifiedERK7QStringS2_
libdde-file-manager.so.1:_ZN19DFileWatcherPrivate29_q_handleFileAttributeChangedERK7QStringS2_
libdde-file-manager.so.1:_ZN19DFileWatcherPrivate4stopEv
libdde-file-manager.so.1:_ZN19DFileWatcherPrivate5startEv
libdde-file-manager.so.1:_ZN19DStyledItemDelegate11qt_metacallEN11QMetaObject4CallEiPPv
libdde-file-manager.so.1:_ZN19DStyledItemDelegate11qt_metacastEPKc
libdde-file-manager.so.1:_ZN19DStyledItemDelegate12decreaseIconEv
libdde-file-manager.so.1:_ZN19DStyledItemDelegate12increaseIconEv
libdde-file-manager.so.1:_ZN19DStyledItemDelegate13getIconPixmapERK5QIconRK5QSizedNS0_4ModeENS0_5StateE
libdde-file-manager.so.1:_ZN19DStyledItemDelegate15paintCircleListEP8QPainter6QRectFdRK5QListI6QColorERKS4_
libdde-file-manager.so.1:_ZN19DStyledItemDelegate19hideAllIIndexWidgetEv
libdde-file-manager.so.1:_ZN19DStyledItemDelegate25hideNotEditingIndexWidgetEv
libdde-file-manager.so.1:_ZN19DStyledItemDelegate26setIconSizeByIconSizeLevelEi
libdde-file-manager.so.1:_ZN19DStyledItemDelegate30commitDataAndCloseActiveEditorEv
libdde-file-manager.so.1:_ZN19DStyledItemDelegate9paintIconEP8QPainterRK5QIconRK6QRectF6QFlagsIN2Qt13AlignmentFlagEENS2_4ModeENS2_5StateE
libdde-file-manager.so.1:_ZN19DStyledItemDelegateC1EP15DFileViewHelper
libdde-file-manager.so.1:_ZN19DStyledItemDelegateC1ER26DStyledItemDelegatePrivateP15DFileViewHelper
libdde-file-manager.so.1:_ZN19DStyledItemDelegateC2EP15DFileViewHelper
libdde-file-manager.so.1:_ZN19DStyledItemDelegateC2ER26DStyledItemDelegatePrivateP15DFileViewHelper
libdde-file-manager.so.1:_ZN19DStyledItemDelegateD0Ev
libdde-file-manager.so.1:_ZN19DStyledItemDelegateD1Ev
libdde-file-manager.so.1:_ZN19DStyledItemDelegateD2Ev
libdde-file-manager.so.1:_ZN19FileDialogStatusBar11addComboBoxEP6QLabelP9QComboBox
libdde-file-manager.so.1:_ZN19FileDialogStatusBar11addLineEditEP6QLabelP9QLineEdit
libdde-file-manager.so.1:_ZN19FileDialogStatusBar11eventFilterEP7QObjectP6QEvent
libdde-file-manager.so.1:_ZN19FileDialogStatusBar11qt_metacallEN11QMetaObject4CallEiPPv
libdde-file-manager.so.1:_ZN19FileDialogStatusBar11qt_metacastEPKc
libdde-file-manager.so.1:_ZN19FileDialogStatusBar12updateLayoutEv
libdde-file-manager.so.1:_ZN19FileDialogStatusBar14setComBoxItemsERK11QStringList
libdde-file-manager.so.1:_ZN19FileDialogStatusBar18endAddCustomWidgetEv
libdde-file-manager.so.1:_ZN19FileDialogStatusBar20beginAddCustomWidgetEv
libdde-file-manager.so.1:_ZN19FileDialogStatusBar20onWindowTitleChangedERK7QString
libdde-file-manager.so.1:_ZN19FileDialogStatusBar7setModeENS_4ModeE
libdde-file-manager.so.1:_ZN19FileDialogStatusBar9hideEventEP10QHideEvent
libdde-file-manager.so.1:_ZN19FileDialogStatusBar9showEventEP10QShowEvent
libdde-file-manager.so.1:_ZN19FileDialogStatusBarC1EP7QWidget
libdde-file-manager.so.1:_ZN19FileDialogStatusBarC2EP7QWidget
libdde-file-manager.so.1:_ZN19TrashManagerPrivate12localToTrashERK4DUrl
libdde-file-manager.so.1:_ZN19TrashManagerPrivate12trashToLocalERK4DUrl
libdde-file-manager.so.1:_ZN19TrashPropertyDialog11qt_metacallEN11QMetaObject4CallEiPPv
libdde-file-manager.so.1:_ZN19TrashPropertyDialog11qt_metacastEPKc
libdde-file-manager.so.1:_ZN19TrashPropertyDialog16updateFolderSizeEx
libdde-file-manager.so.1:_ZN19TrashPropertyDialog23startComputerFolderSizeERK4DUrl
libdde-file-manager.so.1:_ZN19TrashPropertyDialog6initUIEv
libdde-file-manager.so.1:_ZN19TrashPropertyDialogC1ERK4DUrlP7QWidget
libdde-file-manager.so.1:_ZN19TrashPropertyDialogC2ERK4DUrlP7QWidget
libdde-file-manager.so.1:_ZN19TrashPropertyDialogD0Ev
libdde-file-manager.so.1:_ZN19TrashPropertyDialogD1Ev
libdde-file-manager.so.1:_ZN19TrashPropertyDialogD2Ev
libdde-file-manager.so.1:_ZN20DAbstractFileWatcher10fileClosedERK4DUrl
libdde-file-manager.so.1:_ZN20DAbstractFileWatcher11fileDeletedERK4DUrl
libdde-file-manager.so.1:_ZN20DAbstractFileWatcher11ghostSignalERK4DUrlMS_FvS2_ES2_
libdde-file-manager.so.1:_ZN20DAbstractFileWatcher11ghostSignalERK4DUrlMS_FvS2_RKiES2_i
libdde-file-manager.so.1:_ZN20DAbstractFileWatcher11ghostSignalERK4DUrlMS_FvS2_S2_ES2_S2_
libdde-file-manager.so.1:_ZN20DAbstractFileWatcher11qt_metacallEN11QMetaObject4CallEiPPv
libdde-file-manager.so.1:_ZN20DAbstractFileWatcher11qt_metacastEPKc
libdde-file-manager.so.1:_ZN20DAbstractFileWatcher11stopWatcherEv
libdde-file-manager.so.1:_ZN20DAbstractFileWatcher12fileModifiedERK4DUrl
libdde-file-manager.so.1:_ZN20DAbstractFileWatcher12startWatcherEv
libdde-file-manager.so.1:_ZN20DAbstractFileWatcher14restartWatcherEv
libdde-file-manager.so.1:_ZN20DAbstractFileWatcher14subfileCreatedERK4DUrl
libdde-file-manager.so.1:_ZN20DAbstractFileWatcher20fileAttributeChangedERK4DUrlRKi
libdde-file-manager.so.1:_ZN20DAbstractFileWatcher24setEnabledSubfileWatcherERK4DUrlb
libdde-file-manager.so.1:_ZN20DAbstractFileWatcher9fileMovedERK4DUrlS2_
libdde-file-manager.so.1:_ZN20DAbstractFileWatcherC1ER27DAbstractFileWatcherPrivateRK4DUrlP7QObject
libdde-file-manager.so.1:_ZN20DAbstractFileWatcherC2ER27DAbstractFileWatcherPrivateRK4DUrlP7QObject
libdde-file-manager.so.1:_ZN20DAbstractFileWatcherD0Ev
libdde-file-manager.so.1:_ZN20DAbstractFileWatcherD1Ev
libdde-file-manager.so.1:_ZN20DAbstractFileWatcherD2Ev
libdde-file-manager.so.1:_ZN20DDesktopRenameDialog10setVisibleEb
libdde-file-manager.so.1:_ZN20DDesktopRenameDialog11initConnectEv
libdde-file-manager.so.1:_ZN20DDesktopRenameDialog11qt_metacallEN11QMetaObject4CallEiPPv
libdde-file-manager.so.1:_ZN20DDesktopRenameDialog11qt_metacastEPKc
libdde-file-manager.so.1:_ZN20DDesktopRenameDialog14setDialogTitleERK7QString
libdde-file-manager.so.1:_ZN20DDesktopRenameDialog14visibleChangedEb
libdde-file-manager.so.1:_ZN20DDesktopRenameDialog16initUiParametersEv
libdde-file-manager.so.1:_ZN20DDesktopRenameDialog16onVisibleChangedEb
libdde-file-manager.so.1:_ZN20DDesktopRenameDialog17clickCancelButtonEv
libdde-file-manager.so.1:_ZN20DDesktopRenameDialog17clickRenameButtonEv
libdde-file-manager.so.1:_ZN20DDesktopRenameDialog20onCurrentModeChangedERKm
libdde-file-manager.so.1:_ZN20DDesktopRenameDialog21setRenameButtonStatusERKb
libdde-file-manager.so.1:_ZN20DDesktopRenameDialog23onCurrentAddModeChangedERKm
libdde-file-manager.so.1:_ZN20DDesktopRenameDialog25onContentChangedForAddingERK7QString
libdde-file-manager.so.1:_ZN20DDesktopRenameDialog26onContentChangedForFindingERK7QString
libdde-file-manager.so.1:_ZN20DDesktopRenameDialog30onContentChangedForCustomzedSNERK7QString
libdde-file-manager.so.1:_ZN20DDesktopRenameDialog6initUiEv
libdde-file-manager.so.1:_ZN20DDesktopRenameDialogC1EP7QWidget
libdde-file-manager.so.1:_ZN20DDesktopRenameDialogC2EP7QWidget
libdde-file-manager.so.1:_ZN20DFMCreateDiriterator8fromJsonERK11QJsonObject
libdde-file-manager.so.1:_ZN20DFMCreateDiriteratorC1EPK7QObjectRK4DUrlRK11QStringList6QFlagsIN4QDir6FilterEES9_IN12QDirIterator12IteratorFlagEEb
libdde-file-manager.so.1:_ZN20DFMCreateDiriteratorC1EPK7QObjectRK4DUrlRK11QStringList6QFlagsIN4QDir6FilterEEb
libdde-file-manager.so.1:_ZN20DFMCreateDiriteratorC2EPK7QObjectRK4DUrlRK11QStringList6QFlagsIN4QDir6FilterEES9_IN12QDirIterator12IteratorFlagEEb
libdde-file-manager.so.1:_ZN20DFMCreateDiriteratorC2EPK7QObjectRK4DUrlRK11QStringList6QFlagsIN4QDir6FilterEEb
libdde-file-manager.so.1:_ZN20DFMGetChildrensEvent8fromJsonERK11QJsonObject
libdde-file-manager.so.1:_ZN20DFMGetChildrensEventC1EPK7QObjectRK4DUrlRK11QStringList6QFlagsIN4QDir6FilterEES9_IN12QDirIterator12IteratorFlagEEb
libdde-file-manager.so.1:_ZN20DFMGetChildrensEventC1EPK7QObjectRK4DUrlRK11QStringList6QFlagsIN4QDir6FilterEEb
libdde-file-manager.so.1:_ZN20DFMGetChildrensEventC2EPK7QObjectRK4DUrlRK11QStringList6QFlagsIN4QDir6FilterEES9_IN12QDirIterator12IteratorFlagEEb
libdde-file-manager.so.1:_ZN20DFMGetChildrensEventC2EPK7QObjectRK4DUrlRK11QStringList6QFlagsIN4QDir6FilterEEb
libdde-file-manager.so.1:_ZN20DFMSaveOperatorEventC1ERK14QSharedPointerI8DFMEventES4_b
libdde-file-manager.so.1:_ZN20DFMSaveOperatorEventC1Ev
libdde-file-manager.so.1:_ZN20DFMSaveOperatorEventC2ERK14QSharedPointerI8DFMEventES4_b
libdde-file-manager.so.1:_ZN20DFMSaveOperatorEventC2Ev
libdde-file-manager.so.1:_ZN20PluginManagerPrivateC1EP13PluginManager
libdde-file-manager.so.1:_ZN20PluginManagerPrivateC2EP13PluginManager
libdde-file-manager.so.1:_ZN20RecordRenameBarState5clearEv
libdde-file-manager.so.1:_ZN20RecordRenameBarStateC1EOS_
libdde-file-manager.so.1:_ZN20RecordRenameBarStateC1ERKS_
libdde-file-manager.so.1:_ZN20RecordRenameBarStateC2EOS_
libdde-file-manager.so.1:_ZN20RecordRenameBarStateC2ERKS_
libdde-file-manager.so.1:_ZN20RecordRenameBarStateaSEOS_
libdde-file-manager.so.1:_ZN20RecordRenameBarStateaSERKS_
libdde-file-manager.so.1:_ZN20SearchHistroyManager12toStringListEv
libdde-file-manager.so.1:_ZN20SearchHistroyManager22writeIntoSearchHistoryE7QString
libdde-file-manager.so.1:_ZN20SearchHistroyManagerC1Ev
libdde-file-manager.so.1:_ZN20SearchHistroyManagerC2Ev
libdde-file-manager.so.1:_ZN20SearchHistroyManagerD1Ev
libdde-file-manager.so.1:_ZN20SearchHistroyManagerD2Ev
libdde-file-manager.so.1:_ZN20TrashFileInfoPrivate10updateInfoEv
libdde-file-manager.so.1:_ZN20TrashFileInfoPrivate22inheritParentTrashInfoEv
libdde-file-manager.so.1:_ZN20UnknownPreviewWidget11qt_metacallEN11QMetaObject4CallEiPPv
libdde-file-manager.so.1:_ZN20UnknownPreviewWidget11qt_metacastEPKc
libdde-file-manager.so.1:_ZN20UnknownPreviewWidget11resizeEventEP12QResizeEvent
libdde-file-manager.so.1:_ZN20UnknownPreviewWidget6initUIEv
libdde-file-manager.so.1:_ZN20UnknownPreviewWidgetC1ERK4DUrlP7QWidget
libdde-file-manager.so.1:_ZN20UnknownPreviewWidgetC2ERK4DUrlP7QWidget
libdde-file-manager.so.1:_ZN21DFMAddToBookmarkEventC1EPK7QObjectRK4DUrl
libdde-file-manager.so.1:_ZN21DFMAddToBookmarkEventC2EPK7QObjectRK4DUrl
libdde-file-manager.so.1:_ZN21DFMCreateSymlinkEvent8fromJsonERK11QJsonObject
libdde-file-manager.so.1:_ZN21DFMCreateSymlinkEventC1EPK7QObjectRK4DUrlS5_
libdde-file-manager.so.1:_ZN21DFMCreateSymlinkEventC2EPK7QObjectRK4DUrlS5_
libdde-file-manager.so.1:_ZN21DFMOpenFileByAppEvent8fromJsonERK11QJsonObject
libdde-file-manager.so.1:_ZN21DFMOpenFileByAppEventC1EPK7QObjectRK7QStringRK4DUrl
libdde-file-manager.so.1:_ZN21DFMOpenFileByAppEventC2EPK7QObjectRK7QStringRK4DUrl
libdde-file-manager.so.1:_ZN21DFMOpenNewWindowEvent8fromJsonERK11QJsonObject
libdde-file-manager.so.1:_ZN21DFMOpenNewWindowEventC1EPK7QObjectRK5QListI4DUrlEb
libdde-file-manager.so.1:_ZN21DFMOpenNewWindowEventC2EPK7QObjectRK5QListI4DUrlEb
libdde-file-manager.so.1:_ZN21DFMSetPermissionEventC1EPK7QObjectRK4DUrlRK6QFlagsIN11QFileDevice10PermissionEE
libdde-file-manager.so.1:_ZN21DFMSetPermissionEventC2EPK7QObjectRK4DUrlRK6QFlagsIN11QFileDevice10PermissionEE
libdde-file-manager.so.1:_ZN21LinkSectionValueLabel11qt_metacallEN11QMetaObject4CallEiPPv
libdde-file-manager.so.1:_ZN21LinkSectionValueLabel11qt_metacastEPKc
libdde-file-manager.so.1:_ZN21LinkSectionValueLabel16setLinkTargetUrlERK4DUrl
libdde-file-manager.so.1:_ZN21LinkSectionValueLabel17mouseReleaseEventEP11QMouseEvent
libdde-file-manager.so.1:_ZN21LinkSectionValueLabelC1ERK7QStringP7QWidget6QFlagsIN2Qt10WindowTypeEE
libdde-file-manager.so.1:_ZN21LinkSectionValueLabelC2ERK7QStringP7QWidget6QFlagsIN2Qt10WindowTypeEE
libdde-file-manager.so.1:_ZN21StartManagerInterface11qt_metacallEN11QMetaObject4CallEiPPv
libdde-file-manager.so.1:_ZN21StartManagerInterface11qt_metacastEPKc
libdde-file-manager.so.1:_ZN21StartManagerInterface16AutostartChangedERK7QStringS2_
libdde-file-manager.so.1:_ZN21StartManagerInterfaceC1ERK7QStringS2_RK15QDBusConnectionP7QObject
libdde-file-manager.so.1:_ZN21StartManagerInterfaceC2ERK7QStringS2_RK15QDBusConnectionP7QObject
libdde-file-manager.so.1:_ZN21StartManagerInterfaceD0Ev
libdde-file-manager.so.1:_ZN21StartManagerInterfaceD1Ev
libdde-file-manager.so.1:_ZN21StartManagerInterfaceD2Ev
libdde-file-manager.so.1:_ZN22ComputerPropertyDialog10getMessageERK11QStringList
libdde-file-manager.so.1:_ZN22ComputerPropertyDialog11qt_metacallEN11QMetaObject4CallEiPPv
libdde-file-manager.so.1:_ZN22ComputerPropertyDialog11qt_metacastEPKc
libdde-file-manager.so.1:_ZN22ComputerPropertyDialog6closedEv
libdde-file-manager.so.1:_ZN22ComputerPropertyDialog6initUIEv
libdde-file-manager.so.1:_ZN22ComputerPropertyDialogC1EP7QWidget
libdde-file-manager.so.1:_ZN22ComputerPropertyDialogC2EP7QWidget
libdde-file-manager.so.1:_ZN22DAnythingMonitorFilter11qt_metacallEN11QMetaObject4CallEiPPv
libdde-file-manager.so.1:_ZN22DAnythingMonitorFilter11qt_metacastEPKc
libdde-file-manager.so.1:_ZN22DAnythingMonitorFilter24whetherFilterCurrentPathERK10QByteArray
libdde-file-manager.so.1:_ZN22DAnythingMonitorFilterC1EP7QObject
libdde-file-manager.so.1:_ZN22DAnythingMonitorFilterC2EP7QObject
libdde-file-manager.so.1:_ZN22DAnythingMonitorFilterD0Ev
libdde-file-manager.so.1:_ZN22DAnythingMonitorFilterD1Ev
libdde-file-manager.so.1:_ZN22DAnythingMonitorFilterD2Ev
libdde-file-manager.so.1:_ZN22DFMChangeTagColorEvent8fromJsonERK11QJsonObject
libdde-file-manager.so.1:_ZN22DFMChangeTagColorEventC1EPK7QObjectRK6QColorRK4DUrl
libdde-file-manager.so.1:_ZN22DFMChangeTagColorEventC2EPK7QObjectRK6QColorRK4DUrl
libdde-file-manager.so.1:_ZN22DFMCreateFileInfoEvnet8fromJsonERK11QJsonObject
libdde-file-manager.so.1:_ZN22DFMCreateFileInfoEvnetC1EPK7QObjectRK4DUrl
libdde-file-manager.so.1:_ZN22DFMCreateFileInfoEvnetC2EPK7QObjectRK4DUrl
libdde-file-manager.so.1:_ZN22DFMDecompressHereEvnet8fromJsonERK11QJsonObject
libdde-file-manager.so.1:_ZN22DFMDecompressHereEvnetC1EPK7QObjectRK5QListI4DUrlE
libdde-file-manager.so.1:_ZN22DFMDecompressHereEvnetC2EPK7QObjectRK5QListI4DUrlE
libdde-file-manager.so.1:_ZN22DFMOpenInTerminalEvent8fromJsonERK11QJsonObject
libdde-file-manager.so.1:_ZN22DFMOpenInTerminalEventC1EPK7QObjectRK4DUrl
libdde-file-manager.so.1:_ZN22DFMOpenInTerminalEventC2EPK7QObjectRK4DUrl
libdde-file-manager.so.1:_ZN22DFMRemoveBookmarkEventC1EPK7QObjectRK4DUrl
libdde-file-manager.so.1:_ZN22DFMRemoveBookmarkEventC2EPK7QObjectRK4DUrl
libdde-file-manager.so.1:_ZN22DFileViewHelperPrivate18_q_selectAndRenameERK15DFMUrlBaseEvent
libdde-file-manager.so.1:_ZN22DFileViewHelperPrivate26getAdditionalIconByPluginsERK28QExplicitlySharedDataPointerI17DAbstractFileInfoE
libdde-file-manager.so.1:_ZN22DFileViewHelperPrivate4initEv
libdde-file-manager.so.1:_ZN22DFileViewHelperPrivate7_q_editERK15DFMUrlBaseEvent
libdde-file-manager.so.1:_ZN22DesktopFileInfoPrivate10updateInfoERK4DUrl
libdde-file-manager.so.1:_ZN22FileTagObjectInterface10drawObjectEP8QPainterRK6QRectFP13QTextDocumentiRK11QTextFormat
libdde-file-manager.so.1:_ZN22FileTagObjectInterface11qt_metacallEN11QMetaObject4CallEiPPv
libdde-file-manager.so.1:_ZN22FileTagObjectInterface11qt_metacastEPKc
libdde-file-manager.so.1:_ZN22FileTagObjectInterface13intrinsicSizeEP13QTextDocumentiRK11QTextFormat
libdde-file-manager.so.1:_ZN22MimeTypeDisplayManager11defaultIconERK7QString
libdde-file-manager.so.1:_ZN22MimeTypeDisplayManager11displayNameERK7QString
libdde-file-manager.so.1:_ZN22MimeTypeDisplayManager11initConnectEv
libdde-file-manager.so.1:_ZN22MimeTypeDisplayManager11qt_metacallEN11QMetaObject4CallEiPPv
libdde-file-manager.so.1:_ZN22MimeTypeDisplayManager11qt_metacastEPKc
libdde-file-manager.so.1:_ZN22MimeTypeDisplayManager12displayNamesEv
libdde-file-manager.so.1:_ZN22MimeTypeDisplayManager17displayNameToEnumERK7QString
libdde-file-manager.so.1:_ZN22MimeTypeDisplayManager20loadSupportMimeTypesEv
libdde-file-manager.so.1:_ZN22MimeTypeDisplayManager21supportVideoMimeTypesEv
libdde-file-manager.so.1:_ZN22MimeTypeDisplayManager23supportArchiveMimetypesEv
libdde-file-manager.so.1:_ZN22MimeTypeDisplayManager8initDataEv
libdde-file-manager.so.1:_ZN22MimeTypeDisplayManager9readlinesERK7QString
libdde-file-manager.so.1:_ZN22MimeTypeDisplayManagerC1EP7QObject
libdde-file-manager.so.1:_ZN22MimeTypeDisplayManagerC2EP7QObject
libdde-file-manager.so.1:_ZN22MimeTypeDisplayManagerD0Ev
libdde-file-manager.so.1:_ZN22MimeTypeDisplayManagerD1Ev
libdde-file-manager.so.1:_ZN22MimeTypeDisplayManagerD2Ev
libdde-file-manager.so.1:_ZN22MountAskPasswordDialog11initConnectEv
libdde-file-manager.so.1:_ZN22MountAskPasswordDialog11qt_metacallEN11QMetaObject4CallEiPPv
libdde-file-manager.so.1:_ZN22MountAskPasswordDialog11qt_metacastEPKc
libdde-file-manager.so.1:_ZN22MountAskPasswordDialog12getLoginDataEv
libdde-file-manager.so.1:_ZN22MountAskPasswordDialog12setLoginDataERK11QJsonObject
libdde-file-manager.so.1:_ZN22MountAskPasswordDialog13handleConnectEv
libdde-file-manager.so.1:_ZN22MountAskPasswordDialog19handleButtonClickedEi7QString
libdde-file-manager.so.1:_ZN22MountAskPasswordDialog19togglePasswordFrameEi
libdde-file-manager.so.1:_ZN22MountAskPasswordDialog20setDomainLineVisibleEb
libdde-file-manager.so.1:_ZN22MountAskPasswordDialog6initUIEv
libdde-file-manager.so.1:_ZN22MountAskPasswordDialogC1EP7QWidget
libdde-file-manager.so.1:_ZN22MountAskPasswordDialogC2EP7QWidget
libdde-file-manager.so.1:_ZN22MountAskPasswordDialogD0Ev
libdde-file-manager.so.1:_ZN22MountAskPasswordDialogD1Ev
libdde-file-manager.so.1:_ZN22MountAskPasswordDialogD2Ev
libdde-file-manager.so.1:_ZN22OpenWithDialogListItem10enterEventEP6QEvent
libdde-file-manager.so.1:_ZN22OpenWithDialogListItem10leaveEventEP6QEvent
libdde-file-manager.so.1:_ZN22OpenWithDialogListItem10paintEventEP11QPaintEvent
libdde-file-manager.so.1:_ZN22OpenWithDialogListItem10setCheckedEb
libdde-file-manager.so.1:_ZN22OpenWithDialogListItem11qt_metacallEN11QMetaObject4CallEiPPv
libdde-file-manager.so.1:_ZN22OpenWithDialogListItem11qt_metacastEPKc
libdde-file-manager.so.1:_ZN22OpenWithDialogListItem11resizeEventEP12QResizeEvent
libdde-file-manager.so.1:_ZN22OpenWithDialogListItemC1ERK5QIconRK7QStringP7QWidget
libdde-file-manager.so.1:_ZN22OpenWithDialogListItemC2ERK5QIconRK7QStringP7QWidget
libdde-file-manager.so.1:_ZN23CloseAllDialogIndicator11initConnectEv
libdde-file-manager.so.1:_ZN23CloseAllDialogIndicator11qt_metacallEN11QMetaObject4CallEiPPv
libdde-file-manager.so.1:_ZN23CloseAllDialogIndicator11qt_metacastEPKc
libdde-file-manager.so.1:_ZN23CloseAllDialogIndicator13keyPressEventEP9QKeyEvent
libdde-file-manager.so.1:_ZN23CloseAllDialogIndicator15setTotalMessageExi
libdde-file-manager.so.1:_ZN23CloseAllDialogIndicator6initUIEv
libdde-file-manager.so.1:_ZN23CloseAllDialogIndicator9allClosedEv
libdde-file-manager.so.1:_ZN23CloseAllDialogIndicator9showEventEP10QShowEvent
libdde-file-manager.so.1:_ZN23CloseAllDialogIndicatorC1EP7QWidget
libdde-file-manager.so.1:_ZN23CloseAllDialogIndicatorC2EP7QWidget
libdde-file-manager.so.1:_ZN23CloseAllDialogIndicatorD0Ev
libdde-file-manager.so.1:_ZN23CloseAllDialogIndicatorD1Ev
libdde-file-manager.so.1:_ZN23CloseAllDialogIndicatorD2Ev
libdde-file-manager.so.1:_ZN23CommandManagerInterface11qt_metacallEN11QMetaObject4CallEiPPv
libdde-file-manager.so.1:_ZN23CommandManagerInterface11qt_metacastEPKc
libdde-file-manager.so.1:_ZN23CommandManagerInterfaceC1ERK7QStringS2_RK15QDBusConnectionP7QObject
libdde-file-manager.so.1:_ZN23CommandManagerInterfaceC2ERK7QStringS2_RK15QDBusConnectionP7QObject
libdde-file-manager.so.1:_ZN23CommandManagerInterfaceD0Ev
libdde-file-manager.so.1:_ZN23CommandManagerInterfaceD1Ev
libdde-file-manager.so.1:_ZN23CommandManagerInterfaceD2Ev
libdde-file-manager.so.1:_ZN23DAbstractFileController11qt_metacallEN11QMetaObject4CallEiPPv
libdde-file-manager.so.1:_ZN23DAbstractFileController11qt_metacastEPKc
libdde-file-manager.so.1:_ZN23DAbstractFileControllerC1EP7QObject
libdde-file-manager.so.1:_ZN23DAbstractFileControllerC2EP7QObject
libdde-file-manager.so.1:_ZN23DFMCancelFileShareEvent8fromJsonERK11QJsonObject
libdde-file-manager.so.1:_ZN23DFMCancelFileShareEventC1EPK7QObjectRK4DUrl
libdde-file-manager.so.1:_ZN23DFMCancelFileShareEventC2EPK7QObjectRK4DUrl
libdde-file-manager.so.1:_ZN23DFileSystemModelPrivate15_q_onFileRenameERK4DUrlS2_
libdde-file-manager.so.1:_ZN23DFileSystemModelPrivate16_q_onFileCreatedERK4DUrl
libdde-file-manager.so.1:_ZN23DFileSystemModelPrivate16_q_onFileDeletedERK4DUrl
libdde-file-manager.so.1:_ZN23DFileSystemModelPrivate16_q_onFileUpdatedERK4DUrl
libdde-file-manager.so.1:_ZN23DFileSystemModelPrivate16_q_onFileUpdatedERK4DUrlRKi
libdde-file-manager.so.1:_ZN23DFileSystemModelPrivate19_q_processFileEventEv
libdde-file-manager.so.1:_ZN23DFileSystemModelPrivateD1Ev
libdde-file-manager.so.1:_ZN23DFileSystemModelPrivateD2Ev
libdde-file-manager.so.1:_ZN23DTagActionWidgetPrivate13initUiElementEv
libdde-file-manager.so.1:_ZN23DTagActionWidgetPrivate13setParametersEv
libdde-file-manager.so.1:_ZN23DTagActionWidgetPrivateC1EP16DTagActionWidget
libdde-file-manager.so.1:_ZN23DTagActionWidgetPrivateC2EP16DTagActionWidget
libdde-file-manager.so.1:_ZN23IntrospectableInterface11qt_metacallEN11QMetaObject4CallEiPPv
libdde-file-manager.so.1:_ZN23IntrospectableInterface11qt_metacastEPKc
libdde-file-manager.so.1:_ZN23IntrospectableInterfaceC1ERK7QStringS2_RK15QDBusConnectionP7QObject
libdde-file-manager.so.1:_ZN23IntrospectableInterfaceC2ERK7QStringS2_RK15QDBusConnectionP7QObject
libdde-file-manager.so.1:_ZN23IntrospectableInterfaceD0Ev
libdde-file-manager.so.1:_ZN23IntrospectableInterfaceD1Ev
libdde-file-manager.so.1:_ZN23IntrospectableInterfaceD2Ev
libdde-file-manager.so.1:_ZN23ShareFileWatcherPrivate4stopEv
libdde-file-manager.so.1:_ZN23ShareFileWatcherPrivate5startEv
libdde-file-manager.so.1:_ZN24CircleProgressAnimatePad10enterEventEP6QEvent
libdde-file-manager.so.1:_ZN24CircleProgressAnimatePad10leaveEventEP6QEvent
libdde-file-manager.so.1:_ZN24CircleProgressAnimatePad10paintEventEP11QPaintEvent
libdde-file-manager.so.1:_ZN24CircleProgressAnimatePad11qt_metacallEN11QMetaObject4CallEiPPv
libdde-file-manager.so.1:_ZN24CircleProgressAnimatePad11qt_metacastEPKc
libdde-file-manager.so.1:_ZN24CircleProgressAnimatePad11setCanPauseEb
libdde-file-manager.so.1:_ZN24CircleProgressAnimatePad11setFontSizeEi
libdde-file-manager.so.1:_ZN24CircleProgressAnimatePad12setLineWidthEi
libdde-file-manager.so.1:_ZN24CircleProgressAnimatePad13setChunkColorERK6QColor
libdde-file-manager.so.1:_ZN24CircleProgressAnimatePad13setPauseStateEb
libdde-file-manager.so.1:_ZN24CircleProgressAnimatePad13stopAnimationEv
libdde-file-manager.so.1:_ZN24CircleProgressAnimatePad14setMinmumValueEi
libdde-file-manager.so.1:_ZN24CircleProgressAnimatePad14startAnimationEv
libdde-file-manager.so.1:_ZN24CircleProgressAnimatePad15initConnectionsEv
libdde-file-manager.so.1:_ZN24CircleProgressAnimatePad15mousePressEventEP11QMouseEvent
libdde-file-manager.so.1:_ZN24CircleProgressAnimatePad15setCurrentValueEi
libdde-file-manager.so.1:_ZN24CircleProgressAnimatePad15setMaximumValueEi
libdde-file-manager.so.1:_ZN24CircleProgressAnimatePad18setBackgroundColorERK6QColor
libdde-file-manager.so.1:_ZN24CircleProgressAnimatePad7clickedEv
libdde-file-manager.so.1:_ZN24CircleProgressAnimatePad8setAngleEi
libdde-file-manager.so.1:_ZN24CircleProgressAnimatePad9stepAngleEv
libdde-file-manager.so.1:_ZN24CircleProgressAnimatePadC1EP7QWidget
libdde-file-manager.so.1:_ZN24CircleProgressAnimatePadC2EP7QWidget
libdde-file-manager.so.1:_ZN24DAbstractFileInfoPrivate11getFileInfoERK4DUrl
libdde-file-manager.so.1:_ZN24DAbstractFileInfoPrivate6setUrlERK4DUrlb
libdde-file-manager.so.1:_ZN24DAbstractFileInfoPrivateC1ERK4DUrlP17DAbstractFileInfob
libdde-file-manager.so.1:_ZN24DAbstractFileInfoPrivateC2ERK4DUrlP17DAbstractFileInfob
libdde-file-manager.so.1:_ZN24DAbstractFileInfoPrivateD0Ev
libdde-file-manager.so.1:_ZN24DAbstractFileInfoPrivateD1Ev
libdde-file-manager.so.1:_ZN24DAbstractFileInfoPrivateD2Ev
libdde-file-manager.so.1:_ZN24DFMChangeCurrentUrlEvent8fromJsonERK11QJsonObject
libdde-file-manager.so.1:_ZN24DFMChangeCurrentUrlEventC1EPK7QObjectRK4DUrlPK7QWidget
libdde-file-manager.so.1:_ZN24DFMChangeCurrentUrlEventC2EPK7QObjectRK4DUrlPK7QWidget
libdde-file-manager.so.1:_ZN24DFMCreateGetChildrensJob8fromJsonERK11QJsonObject
libdde-file-manager.so.1:_ZN24DFMCreateGetChildrensJobC1EPK7QObjectRK4DUrlRK11QStringList6QFlagsIN4QDir6FilterEES9_IN12QDirIterator12IteratorFlagEEb
libdde-file-manager.so.1:_ZN24DFMCreateGetChildrensJobC1EPK7QObjectRK4DUrlRK11QStringList6QFlagsIN4QDir6FilterEEb
libdde-file-manager.so.1:_ZN24DFMCreateGetChildrensJobC2EPK7QObjectRK4DUrlRK11QStringList6QFlagsIN4QDir6FilterEES9_IN12QDirIterator12IteratorFlagEEb
libdde-file-manager.so.1:_ZN24DFMCreateGetChildrensJobC2EPK7QObjectRK4DUrlRK11QStringList6QFlagsIN4QDir6FilterEEb
libdde-file-manager.so.1:_ZN24DFMRemoveTagsOfFileEvent8fromJsonERK11QJsonObject
libdde-file-manager.so.1:_ZN24DFMRemoveTagsOfFileEventC1EPK7QObjectRK4DUrlRK5QListI7QStringE
libdde-file-manager.so.1:_ZN24DFMRemoveTagsOfFileEventC2EPK7QObjectRK4DUrlRK5QListI7QStringE
libdde-file-manager.so.1:_ZN24DFMRestoreFromTrashEvent8fromJsonERK11QJsonObject
libdde-file-manager.so.1:_ZN24DFMRestoreFromTrashEventC1EPK7QObjectRK5QListI4DUrlE
libdde-file-manager.so.1:_ZN24DFMRestoreFromTrashEventC2EPK7QObjectRK5QListI4DUrlE
libdde-file-manager.so.1:_ZN24DFileProxyWatcherPrivate4stopEv
libdde-file-manager.so.1:_ZN24DFileProxyWatcherPrivate5startEv
libdde-file-manager.so.1:_ZN24DMultiFilePropertyDialog11initConnectEv
libdde-file-manager.so.1:_ZN24DMultiFilePropertyDialog11qt_metacallEN11QMetaObject4CallEiPPv
libdde-file-manager.so.1:_ZN24DMultiFilePropertyDialog11qt_metacastEPKc
libdde-file-manager.so.1:_ZN24DMultiFilePropertyDialog15getRandomNumberERKSt4pairImmE
libdde-file-manager.so.1:_ZN24DMultiFilePropertyDialog21updateFolderSizeLabelEx
libdde-file-manager.so.1:_ZN24DMultiFilePropertyDialog24startComputingFolderSizeEv
libdde-file-manager.so.1:_ZN24DMultiFilePropertyDialog31getTheQuantityOfFilesAndFoldersERK5QListI4DUrlE
libdde-file-manager.so.1:_ZN24DMultiFilePropertyDialogC1ERK5QListI4DUrlEP7QWidget
libdde-file-manager.so.1:_ZN24DMultiFilePropertyDialogC2ERK5QListI4DUrlEP7QWidget
libdde-file-manager.so.1:_ZN24DMultiFilePropertyDialogD0Ev
libdde-file-manager.so.1:_ZN24DMultiFilePropertyDialogD1Ev
libdde-file-manager.so.1:_ZN24DMultiFilePropertyDialogD2Ev
libdde-file-manager.so.1:_ZN24SearchFileWatcherPrivate4stopEv
libdde-file-manager.so.1:_ZN24SearchFileWatcherPrivate5startEv
libdde-file-manager.so.1:_ZN24TaggedFileWatcherPrivate4stopEv
libdde-file-manager.so.1:_ZN24TaggedFileWatcherPrivate5startEv
libdde-file-manager.so.1:_ZN25DFMCleanSaveOperatorEventC1EPK7QObject
libdde-file-manager.so.1:_ZN25DFMCleanSaveOperatorEventC2EPK7QObject
libdde-file-manager.so.1:_ZN25DFMCreateFileWatcherEvent8fromJsonERK11QJsonObject
libdde-file-manager.so.1:_ZN25DFMCreateFileWatcherEventC1EPK7QObjectRK4DUrl
libdde-file-manager.so.1:_ZN25DFMCreateFileWatcherEventC2EPK7QObjectRK4DUrl
libdde-file-manager.so.1:_ZN25DFileManagerWindowPrivate14setCurrentViewEPN16dde_file_manager11DFMBaseViewE
libdde-file-manager.so.1:_ZN25DFileManagerWindowPrivate20processKeyPressEventEP9QKeyEvent
libdde-file-manager.so.1:_ZN25DFileManagerWindowPrivate8cdForTabEP3TabRK4DUrl
libdde-file-manager.so.1:_ZN25DFileSystemWatcherPrivate11removePathsERK11QStringListPS0_S3_
libdde-file-manager.so.1:_ZN25DFileSystemWatcherPrivate13onFileChangedERK7QStringb
libdde-file-manager.so.1:_ZN25DFileSystemWatcherPrivate18_q_readFromInotifyEv
libdde-file-manager.so.1:_ZN25DFileSystemWatcherPrivate18onDirectoryChangedERK7QStringb
libdde-file-manager.so.1:_ZN25DFileSystemWatcherPrivate8addPathsERK11QStringListPS0_S3_
libdde-file-manager.so.1:_ZN25DFileSystemWatcherPrivateC1EiP18DFileSystemWatcher
libdde-file-manager.so.1:_ZN25DFileSystemWatcherPrivateC2EiP18DFileSystemWatcher
libdde-file-manager.so.1:_ZN25DFileSystemWatcherPrivateD1Ev
libdde-file-manager.so.1:_ZN25DFileSystemWatcherPrivateD2Ev
libdde-file-manager.so.1:_ZN25DQuickSearchFilterPrivateC1EP18DQuickSearchFilter
libdde-file-manager.so.1:_ZN25DQuickSearchFilterPrivateC2EP18DQuickSearchFilter
libdde-file-manager.so.1:_ZN25MoveToTrashConflictDialog11qt_metacallEN11QMetaObject4CallEiPPv
libdde-file-manager.so.1:_ZN25MoveToTrashConflictDialog11qt_metacastEPKc
libdde-file-manager.so.1:_ZN25MoveToTrashConflictDialogC1EP7QWidgetRK5QListI4DUrlE
libdde-file-manager.so.1:_ZN25MoveToTrashConflictDialogC2EP7QWidgetRK5QListI4DUrlE
libdde-file-manager.so.1:_ZN25TagManagerDaemonInterface10addNewTagsERK12QDBusVariant
libdde-file-manager.so.1:_ZN25TagManagerDaemonInterface10deleteTagsERK12QDBusVariant
libdde-file-manager.so.1:_ZN25TagManagerDaemonInterface10untagFilesERK4QMapI7QString8QVariantE
libdde-file-manager.so.1:_ZN25TagManagerDaemonInterface11qt_metacallEN11QMetaObject4CallEiPPv
libdde-file-manager.so.1:_ZN25TagManagerDaemonInterface11qt_metacastEPKc
libdde-file-manager.so.1:_ZN25TagManagerDaemonInterface13changeTagNameERK4QMapI7QString8QVariantE
libdde-file-manager.so.1:_ZN25TagManagerDaemonInterface14changeTagColorERK4QMapI7QString8QVariantE
libdde-file-manager.so.1:_ZN25TagManagerDaemonInterface15filesWereTaggedERK4QMapI7QString8QVariantE
libdde-file-manager.so.1:_ZN25TagManagerDaemonInterfaceC1ERK7QStringS2_RK15QDBusConnectionP7QObject
libdde-file-manager.so.1:_ZN25TagManagerDaemonInterfaceC2ERK7QStringS2_RK15QDBusConnectionP7QObject
libdde-file-manager.so.1:_ZN25TagManagerDaemonInterfaceD0Ev
libdde-file-manager.so.1:_ZN25TagManagerDaemonInterfaceD1Ev
libdde-file-manager.so.1:_ZN25TagManagerDaemonInterfaceD2Ev
libdde-file-manager.so.1:_ZN26DStyledItemDelegatePrivate16_q_onRowsRemovedERK11QModelIndexii
libdde-file-manager.so.1:_ZN26DStyledItemDelegatePrivate17_q_onRowsInsertedERK11QModelIndexii
libdde-file-manager.so.1:_ZN26DStyledItemDelegatePrivate4initEv
libdde-file-manager.so.1:_ZN26DeviceInfoManagerInterface11qt_metacallEN11QMetaObject4CallEiPPv
libdde-file-manager.so.1:_ZN26DeviceInfoManagerInterface11qt_metacastEPKc
libdde-file-manager.so.1:_ZN26DeviceInfoManagerInterfaceC1ERK7QStringS2_RK15QDBusConnectionP7QObject
libdde-file-manager.so.1:_ZN26DeviceInfoManagerInterfaceC2ERK7QStringS2_RK15QDBusConnectionP7QObject
libdde-file-manager.so.1:_ZN26DeviceInfoManagerInterfaceD0Ev
libdde-file-manager.so.1:_ZN26DeviceInfoManagerInterfaceD1Ev
libdde-file-manager.so.1:_ZN26DeviceInfoManagerInterfaceD2Ev
libdde-file-manager.so.1:_ZN26QuickSearchDaemonInterface11qt_metacallEN11QMetaObject4CallEiPPv
libdde-file-manager.so.1:_ZN26QuickSearchDaemonInterface11qt_metacastEPKc
libdde-file-manager.so.1:_ZN26QuickSearchDaemonInterfaceC1ERK7QStringS2_RK15QDBusConnectionP7QObject
libdde-file-manager.so.1:_ZN26QuickSearchDaemonInterfaceC2ERK7QStringS2_RK15QDBusConnectionP7QObject
libdde-file-manager.so.1:_ZN26QuickSearchDaemonInterfaceD0Ev
libdde-file-manager.so.1:_ZN26QuickSearchDaemonInterfaceD1Ev
libdde-file-manager.so.1:_ZN26QuickSearchDaemonInterfaceD2Ev
libdde-file-manager.so.1:_ZN26TagManagerDaemonController10addNewTagsERK8QVariant
libdde-file-manager.so.1:_ZN26TagManagerDaemonController10deleteTagsERK8QVariant
libdde-file-manager.so.1:_ZN26TagManagerDaemonController10untagFilesERK4QMapI7QString8QVariantE
libdde-file-manager.so.1:_ZN26TagManagerDaemonController11qt_metacallEN11QMetaObject4CallEiPPv
libdde-file-manager.so.1:_ZN26TagManagerDaemonController11qt_metacastEPKc
libdde-file-manager.so.1:_ZN26TagManagerDaemonController12init_connectEv
libdde-file-manager.so.1:_ZN26TagManagerDaemonController12onAddNewTagsERK12QDBusVariant
libdde-file-manager.so.1:_ZN26TagManagerDaemonController12onDeleteTagsERK12QDBusVariant
libdde-file-manager.so.1:_ZN26TagManagerDaemonController12onUntagFilesERK4QMapI7QString8QVariantE
libdde-file-manager.so.1:_ZN26TagManagerDaemonController13changeTagNameERK4QMapI7QString8QVariantE
libdde-file-manager.so.1:_ZN26TagManagerDaemonController14changeTagColorERK4QMapI7QString8QVariantE
libdde-file-manager.so.1:_ZN26TagManagerDaemonController15filesWereTaggedERK4QMapI7QString8QVariantE
libdde-file-manager.so.1:_ZN26TagManagerDaemonController15onChangeTagNameERK4QMapI7QString8QVariantE
libdde-file-manager.so.1:_ZN26TagManagerDaemonController16onChangeTagColorERK4QMapI7QString8QVariantE
libdde-file-manager.so.1:_ZN26TagManagerDaemonController17disposeClientDataERK4QMapI7QString8QVariantEN3Tag10ActionTypeE
libdde-file-manager.so.1:_ZN26TagManagerDaemonController17onFilesWereTaggedERK4QMapI7QString8QVariantE
libdde-file-manager.so.1:_ZN26TagManagerDaemonController8instanceEv
libdde-file-manager.so.1:_ZN26TagManagerDaemonControllerC1EP7QObject
libdde-file-manager.so.1:_ZN26TagManagerDaemonControllerC2EP7QObject
libdde-file-manager.so.1:_ZN27DAbstractFileWatcherPrivate17handleGhostSignalERK4DUrlM20DAbstractFileWatcherFvS2_ES2_
libdde-file-manager.so.1:_ZN27DAbstractFileWatcherPrivate17handleGhostSignalERK4DUrlM20DAbstractFileWatcherFvS2_RKiES2_i
libdde-file-manager.so.1:_ZN27DAbstractFileWatcherPrivate17handleGhostSignalERK4DUrlM20DAbstractFileWatcherFvS2_S2_ES2_S2_
libdde-file-manager.so.1:_ZN27DAbstractFileWatcherPrivateC1EP20DAbstractFileWatcher
libdde-file-manager.so.1:_ZN27DAbstractFileWatcherPrivateC2EP20DAbstractFileWatcher
libdde-file-manager.so.1:_ZN27DDesktopRenameDialogPrivate12initUiLayoutEv
libdde-file-manager.so.1:_ZN27DDesktopRenameDialogPrivate16initUiParametersEv
libdde-file-manager.so.1:_ZN27DDesktopRenameDialogPrivate6initUiEv
libdde-file-manager.so.1:_ZN27DDesktopRenameDialogPrivateC1EP20DDesktopRenameDialog
libdde-file-manager.so.1:_ZN27DDesktopRenameDialogPrivateC2EP20DDesktopRenameDialog
libdde-file-manager.so.1:_ZN27DFMGetTagsThroughFilesEvent8fromJsonERK11QJsonObject
libdde-file-manager.so.1:_ZN27DFMGetTagsThroughFilesEventC1EPK7QObjectRK5QListI4DUrlE
libdde-file-manager.so.1:_ZN27DFMGetTagsThroughFilesEventC2EPK7QObjectRK5QListI4DUrlE
libdde-file-manager.so.1:_ZN27QuickSearchDaemonController11qt_metacallEN11QMetaObject4CallEiPPv
libdde-file-manager.so.1:_ZN27QuickSearchDaemonController11qt_metacastEPKc
libdde-file-manager.so.1:_ZN27QuickSearchDaemonController15fileWereCreatedERK5QListI10QByteArrayE
libdde-file-manager.so.1:_ZN27QuickSearchDaemonController15fileWereDeletedERK5QListI10QByteArrayE
libdde-file-manager.so.1:_ZN27QuickSearchDaemonController15fileWereRenamedERK5QListI5QPairI10QByteArrayS2_EE
libdde-file-manager.so.1:_ZN27QuickSearchDaemonController6searchERK7QStringS2_
libdde-file-manager.so.1:_ZN27QuickSearchDaemonControllerC1EP7QObject
libdde-file-manager.so.1:_ZN27QuickSearchDaemonControllerC2EP7QObject
libdde-file-manager.so.1:_ZN28DFMSetFileExtensionPropertysC1EPK7QObjectRK4DUrlRK5QHashI7QString8QVariantE
libdde-file-manager.so.1:_ZN28DFMSetFileExtensionPropertysC2EPK7QObjectRK4DUrlRK5QHashI7QString8QVariantE
libdde-file-manager.so.1:_ZN28DFMWriteUrlsToClipboardEvent8fromJsonERK11QJsonObject
libdde-file-manager.so.1:_ZN28DFMWriteUrlsToClipboardEventC1EPK7QObjectN9DFMGlobal15ClipboardActionERK5QListI4DUrlE
libdde-file-manager.so.1:_ZN28DFMWriteUrlsToClipboardEventC2EPK7QObjectN9DFMGlobal15ClipboardActionERK5QListI4DUrlE
libdde-file-manager.so.1:_ZN28OpenWithDialogListSparerItemC1ERK7QStringP7QWidget
libdde-file-manager.so.1:_ZN28OpenWithDialogListSparerItemC2ERK7QStringP7QWidget
libdde-file-manager.so.1:_ZN29DAnythingMonitorFilterPrivate12read_settingEv
libdde-file-manager.so.1:_ZN29DAnythingMonitorFilterPrivate20whetherFilterThePathERK10QByteArray
libdde-file-manager.so.1:_ZN29DAnythingMonitorFilterPrivate26get_home_path_of_all_usersEv
libdde-file-manager.so.1:_ZN29DAnythingMonitorFilterPrivateC1EP22DAnythingMonitorFilter
libdde-file-manager.so.1:_ZN29DAnythingMonitorFilterPrivateC2EP22DAnythingMonitorFilter
libdde-file-manager.so.1:_ZN30UserSharePasswordSettingDialog11qt_metacallEN11QMetaObject4CallEiPPv
libdde-file-manager.so.1:_ZN30UserSharePasswordSettingDialog11qt_metacastEPKc
libdde-file-manager.so.1:_ZN30UserSharePasswordSettingDialog15onButtonClickedERKi
libdde-file-manager.so.1:_ZN30UserSharePasswordSettingDialog6initUIEv
libdde-file-manager.so.1:_ZN30UserSharePasswordSettingDialogC1EP7QWidget
libdde-file-manager.so.1:_ZN30UserSharePasswordSettingDialogC2EP7QWidget
libdde-file-manager.so.1:_ZN31DMultiFilePropertyDialogPrivate11layoutItemsEv
libdde-file-manager.so.1:_ZN31DMultiFilePropertyDialogPrivate13getRandomUrlsEv
libdde-file-manager.so.1:_ZN31DMultiFilePropertyDialogPrivate15initUiParameterEv
libdde-file-manager.so.1:_ZN31DMultiFilePropertyDialogPrivate6initUiEv
libdde-file-manager.so.1:_ZN31DMultiFilePropertyDialogPrivateC1ERK5QListI4DUrlEP24DMultiFilePropertyDialog
libdde-file-manager.so.1:_ZN31DMultiFilePropertyDialogPrivateC2ERK5QListI4DUrlEP24DMultiFilePropertyDialog
libdde-file-manager.so.1:_ZN32MountSecretDiskAskPasswordDialog11initConnectEv
libdde-file-manager.so.1:_ZN32MountSecretDiskAskPasswordDialog11qt_metacallEN11QMetaObject4CallEiPPv
libdde-file-manager.so.1:_ZN32MountSecretDiskAskPasswordDialog11qt_metacastEPKc
libdde-file-manager.so.1:_ZN32MountSecretDiskAskPasswordDialog19handleButtonClickedEi7QString
libdde-file-manager.so.1:_ZN32MountSecretDiskAskPasswordDialog24handleRadioButtonClickedEi
libdde-file-manager.so.1:_ZN32MountSecretDiskAskPasswordDialog6initUIEv
libdde-file-manager.so.1:_ZN32MountSecretDiskAskPasswordDialog9showEventEP10QShowEvent
libdde-file-manager.so.1:_ZN32MountSecretDiskAskPasswordDialogC1ERK7QStringP7QWidget
libdde-file-manager.so.1:_ZN32MountSecretDiskAskPasswordDialogC2ERK7QStringP7QWidget
libdde-file-manager.so.1:_ZN32MountSecretDiskAskPasswordDialogD0Ev
libdde-file-manager.so.1:_ZN32MountSecretDiskAskPasswordDialogD1Ev
libdde-file-manager.so.1:_ZN32MountSecretDiskAskPasswordDialogD2Ev
libdde-file-manager.so.1:_ZN33OrgFreedesktopUDisks2JobInterface11qt_metacallEN11QMetaObject4CallEiPPv
libdde-file-manager.so.1:_ZN33OrgFreedesktopUDisks2JobInterface11qt_metacastEPKc
libdde-file-manager.so.1:_ZN33OrgFreedesktopUDisks2JobInterface9CompletedEbRK7QString
libdde-file-manager.so.1:_ZN33OrgFreedesktopUDisks2JobInterfaceC1ERK7QStringS2_RK15QDBusConnectionP7QObject
libdde-file-manager.so.1:_ZN33OrgFreedesktopUDisks2JobInterfaceC2ERK7QStringS2_RK15QDBusConnectionP7QObject
libdde-file-manager.so.1:_ZN33OrgFreedesktopUDisks2JobInterfaceD0Ev
libdde-file-manager.so.1:_ZN33OrgFreedesktopUDisks2JobInterfaceD1Ev
libdde-file-manager.so.1:_ZN33OrgFreedesktopUDisks2JobInterfaceD2Ev
libdde-file-manager.so.1:_ZN34OrgFreedesktopUDisks2LoopInterface11qt_metacallEN11QMetaObject4CallEiPPv
libdde-file-manager.so.1:_ZN34OrgFreedesktopUDisks2LoopInterface11qt_metacastEPKc
libdde-file-manager.so.1:_ZN34OrgFreedesktopUDisks2LoopInterfaceC1ERK7QStringS2_RK15QDBusConnectionP7QObject
libdde-file-manager.so.1:_ZN34OrgFreedesktopUDisks2LoopInterfaceC2ERK7QStringS2_RK15QDBusConnectionP7QObject
libdde-file-manager.so.1:_ZN34OrgFreedesktopUDisks2LoopInterfaceD0Ev
libdde-file-manager.so.1:_ZN34OrgFreedesktopUDisks2LoopInterfaceD1Ev
libdde-file-manager.so.1:_ZN34OrgFreedesktopUDisks2LoopInterfaceD2Ev
libdde-file-manager.so.1:_ZN35OrgFreedesktopUDisks2BlockInterface11qt_metacallEN11QMetaObject4CallEiPPv
libdde-file-manager.so.1:_ZN35OrgFreedesktopUDisks2BlockInterface11qt_metacastEPKc
libdde-file-manager.so.1:_ZN35OrgFreedesktopUDisks2BlockInterfaceC1ERK7QStringS2_RK15QDBusConnectionP7QObject
libdde-file-manager.so.1:_ZN35OrgFreedesktopUDisks2BlockInterfaceC2ERK7QStringS2_RK15QDBusConnectionP7QObject
libdde-file-manager.so.1:_ZN35OrgFreedesktopUDisks2BlockInterfaceD0Ev
libdde-file-manager.so.1:_ZN35OrgFreedesktopUDisks2BlockInterfaceD1Ev
libdde-file-manager.so.1:_ZN35OrgFreedesktopUDisks2BlockInterfaceD2Ev
libdde-file-manager.so.1:_ZN35OrgFreedesktopUDisks2DriveInterface11qt_metacallEN11QMetaObject4CallEiPPv
libdde-file-manager.so.1:_ZN35OrgFreedesktopUDisks2DriveInterface11qt_metacastEPKc
libdde-file-manager.so.1:_ZN35OrgFreedesktopUDisks2DriveInterfaceC1ERK7QStringS2_RK15QDBusConnectionP7QObject
libdde-file-manager.so.1:_ZN35OrgFreedesktopUDisks2DriveInterfaceC2ERK7QStringS2_RK15QDBusConnectionP7QObject
libdde-file-manager.so.1:_ZN35OrgFreedesktopUDisks2DriveInterfaceD0Ev
libdde-file-manager.so.1:_ZN35OrgFreedesktopUDisks2DriveInterfaceD1Ev
libdde-file-manager.so.1:_ZN35OrgFreedesktopUDisks2DriveInterfaceD2Ev
libdde-file-manager.so.1:_ZN36OrgFreedesktopUDisks2MDRaidInterface11qt_metacallEN11QMetaObject4CallEiPPv
libdde-file-manager.so.1:_ZN36OrgFreedesktopUDisks2MDRaidInterface11qt_metacastEPKc
libdde-file-manager.so.1:_ZN36OrgFreedesktopUDisks2MDRaidInterfaceC1ERK7QStringS2_RK15QDBusConnectionP7QObject
libdde-file-manager.so.1:_ZN36OrgFreedesktopUDisks2MDRaidInterfaceC2ERK7QStringS2_RK15QDBusConnectionP7QObject
libdde-file-manager.so.1:_ZN36OrgFreedesktopUDisks2MDRaidInterfaceD0Ev
libdde-file-manager.so.1:_ZN36OrgFreedesktopUDisks2MDRaidInterfaceD1Ev
libdde-file-manager.so.1:_ZN36OrgFreedesktopUDisks2MDRaidInterfaceD2Ev
libdde-file-manager.so.1:_ZN37OrgFreedesktopUDisks2ManagerInterface11qt_metacallEN11QMetaObject4CallEiPPv
libdde-file-manager.so.1:_ZN37OrgFreedesktopUDisks2ManagerInterface11qt_metacastEPKc
libdde-file-manager.so.1:_ZN37OrgFreedesktopUDisks2ManagerInterfaceC1ERK7QStringS2_RK15QDBusConnectionP7QObject
libdde-file-manager.so.1:_ZN37OrgFreedesktopUDisks2ManagerInterfaceC2ERK7QStringS2_RK15QDBusConnectionP7QObject
libdde-file-manager.so.1:_ZN37OrgFreedesktopUDisks2ManagerInterfaceD0Ev
libdde-file-manager.so.1:_ZN37OrgFreedesktopUDisks2ManagerInterfaceD1Ev
libdde-file-manager.so.1:_ZN37OrgFreedesktopUDisks2ManagerInterfaceD2Ev
libdde-file-manager.so.1:_ZN38OrgFreedesktopUDisks2DriveAtaInterface11qt_metacallEN11QMetaObject4CallEiPPv
libdde-file-manager.so.1:_ZN38OrgFreedesktopUDisks2DriveAtaInterface11qt_metacastEPKc
libdde-file-manager.so.1:_ZN38OrgFreedesktopUDisks2DriveAtaInterfaceC1ERK7QStringS2_RK15QDBusConnectionP7QObject
libdde-file-manager.so.1:_ZN38OrgFreedesktopUDisks2DriveAtaInterfaceC2ERK7QStringS2_RK15QDBusConnectionP7QObject
libdde-file-manager.so.1:_ZN38OrgFreedesktopUDisks2DriveAtaInterfaceD0Ev
libdde-file-manager.so.1:_ZN38OrgFreedesktopUDisks2DriveAtaInterfaceD1Ev
libdde-file-manager.so.1:_ZN38OrgFreedesktopUDisks2DriveAtaInterfaceD2Ev
libdde-file-manager.so.1:_ZN39OrgFreedesktopUDisks2EncryptedInterface11qt_metacallEN11QMetaObject4CallEiPPv
libdde-file-manager.so.1:_ZN39OrgFreedesktopUDisks2EncryptedInterface11qt_metacastEPKc
libdde-file-manager.so.1:_ZN39OrgFreedesktopUDisks2EncryptedInterfaceC1ERK7QStringS2_RK15QDBusConnectionP7QObject
libdde-file-manager.so.1:_ZN39OrgFreedesktopUDisks2EncryptedInterfaceC2ERK7QStringS2_RK15QDBusConnectionP7QObject
libdde-file-manager.so.1:_ZN39OrgFreedesktopUDisks2EncryptedInterfaceD0Ev
libdde-file-manager.so.1:_ZN39OrgFreedesktopUDisks2EncryptedInterfaceD1Ev
libdde-file-manager.so.1:_ZN39OrgFreedesktopUDisks2EncryptedInterfaceD2Ev
libdde-file-manager.so.1:_ZN39OrgFreedesktopUDisks2PartitionInterface11qt_metacallEN11QMetaObject4CallEiPPv
libdde-file-manager.so.1:_ZN39OrgFreedesktopUDisks2PartitionInterface11qt_metacastEPKc
libdde-file-manager.so.1:_ZN39OrgFreedesktopUDisks2PartitionInterfaceC1ERK7QStringS2_RK15QDBusConnectionP7QObject
libdde-file-manager.so.1:_ZN39OrgFreedesktopUDisks2PartitionInterfaceC2ERK7QStringS2_RK15QDBusConnectionP7QObject
libdde-file-manager.so.1:_ZN39OrgFreedesktopUDisks2PartitionInterfaceD0Ev
libdde-file-manager.so.1:_ZN39OrgFreedesktopUDisks2PartitionInterfaceD1Ev
libdde-file-manager.so.1:_ZN39OrgFreedesktopUDisks2PartitionInterfaceD2Ev
libdde-file-manager.so.1:_ZN39OrgFreedesktopUDisks2SwapspaceInterface11qt_metacallEN11QMetaObject4CallEiPPv
libdde-file-manager.so.1:_ZN39OrgFreedesktopUDisks2SwapspaceInterface11qt_metacastEPKc
libdde-file-manager.so.1:_ZN39OrgFreedesktopUDisks2SwapspaceInterfaceC1ERK7QStringS2_RK15QDBusConnectionP7QObject
libdde-file-manager.so.1:_ZN39OrgFreedesktopUDisks2SwapspaceInterfaceC2ERK7QStringS2_RK15QDBusConnectionP7QObject
libdde-file-manager.so.1:_ZN39OrgFreedesktopUDisks2SwapspaceInterfaceD0Ev
libdde-file-manager.so.1:_ZN39OrgFreedesktopUDisks2SwapspaceInterfaceD1Ev
libdde-file-manager.so.1:_ZN39OrgFreedesktopUDisks2SwapspaceInterfaceD2Ev
libdde-file-manager.so.1:_ZN3Tab10isDraggingEv
libdde-file-manager.so.1:_ZN3Tab10setCheckedEb
libdde-file-manager.so.1:_ZN3Tab10setHoveredEb
libdde-file-manager.so.1:_ZN3Tab10setTabTextE7QString
libdde-file-manager.so.1:_ZN3Tab11initConnectEv
libdde-file-manager.so.1:_ZN3Tab11movePreviusEPS_
libdde-file-manager.so.1:_ZN3Tab11qt_metacallEN11QMetaObject4CallEiPPv
libdde-file-manager.so.1:_ZN3Tab11qt_metacastEPKc
libdde-file-manager.so.1:_ZN3Tab11setFileViewEPN16dde_file_manager11DFMBaseViewE
libdde-file-manager.so.1:_ZN3Tab11setGeometryE5QRect
libdde-file-manager.so.1:_ZN3Tab12setFixedSizeE5QSize
libdde-file-manager.so.1:_ZN3Tab13isDragOutSideEv
libdde-file-manager.so.1:_ZN3Tab13setBorderLeftEb
libdde-file-manager.so.1:_ZN3Tab13setCurrentUrlERK4DUrl
libdde-file-manager.so.1:_ZN3Tab14mouseMoveEventEP24QGraphicsSceneMouseEvent
libdde-file-manager.so.1:_ZN3Tab15draggingStartedEv
libdde-file-manager.so.1:_ZN3Tab15hoverEnterEventEP24QGraphicsSceneHoverEvent
libdde-file-manager.so.1:_ZN3Tab15hoverLeaveEventEP24QGraphicsSceneHoverEvent
libdde-file-manager.so.1:_ZN3Tab15mousePressEventEP24QGraphicsSceneMouseEvent
libdde-file-manager.so.1:_ZN3Tab16aboutToNewWindowEPS_
libdde-file-manager.so.1:_ZN3Tab16draggingFinishedEv
libdde-file-manager.so.1:_ZN3Tab16requestNewWindowE4DUrl
libdde-file-manager.so.1:_ZN3Tab17mouseReleaseEventEP24QGraphicsSceneMouseEvent
libdde-file-manager.so.1:_ZN3Tab20onFileRootUrlChangedERK4DUrl
libdde-file-manager.so.1:_ZN3Tab20requestActiveNextTabEv
libdde-file-manager.so.1:_ZN3Tab24requestActivePreviousTabEv
libdde-file-manager.so.1:_ZN3Tab5paintEP8QPainterPK24QStyleOptionGraphicsItemP7QWidget
libdde-file-manager.so.1:_ZN3Tab5widthEv
libdde-file-manager.so.1:_ZN3Tab6heightEv
libdde-file-manager.so.1:_ZN3Tab7clickedEv
libdde-file-manager.so.1:_ZN3Tab7tabTextEv
libdde-file-manager.so.1:_ZN3Tab8fileViewEv
libdde-file-manager.so.1:_ZN3Tab8geometryEv
libdde-file-manager.so.1:_ZN3Tab8moveNextEPS_
libdde-file-manager.so.1:_ZN3Tab8toPixmapEb
libdde-file-manager.so.1:_ZN3TabC1EP15QGraphicsObjectPN16dde_file_manager11DFMBaseViewE
libdde-file-manager.so.1:_ZN3TabC2EP15QGraphicsObjectPN16dde_file_manager11DFMBaseViewE
libdde-file-manager.so.1:_ZN3TabD0Ev
libdde-file-manager.so.1:_ZN3TabD1Ev
libdde-file-manager.so.1:_ZN3TabD2Ev
libdde-file-manager.so.1:_ZN3Tag16escaping_en_skimERK7QString
libdde-file-manager.so.1:_ZN3Tag18ActualAndFakerNameEv
libdde-file-manager.so.1:_ZN3Tag23restore_escaped_en_skimERK7QString
libdde-file-manager.so.1:_ZN40OrgFreedesktopDBusObjectManagerInterface11qt_metacallEN11QMetaObject4CallEiPPv
libdde-file-manager.so.1:_ZN40OrgFreedesktopDBusObjectManagerInterface11qt_metacastEPKc
libdde-file-manager.so.1:_ZN40OrgFreedesktopDBusObjectManagerInterface15InterfacesAddedERK15QDBusObjectPathRK4QMapI7QStringS3_IS4_8QVariantEE
libdde-file-manager.so.1:_ZN40OrgFreedesktopDBusObjectManagerInterface17InterfacesRemovedERK15QDBusObjectPathRK11QStringList
libdde-file-manager.so.1:_ZN40OrgFreedesktopDBusObjectManagerInterfaceC1ERK7QStringS2_RK15QDBusConnectionP7QObject
libdde-file-manager.so.1:_ZN40OrgFreedesktopDBusObjectManagerInterfaceC2ERK7QStringS2_RK15QDBusConnectionP7QObject
libdde-file-manager.so.1:_ZN40OrgFreedesktopDBusObjectManagerInterfaceD0Ev
libdde-file-manager.so.1:_ZN40OrgFreedesktopDBusObjectManagerInterfaceD1Ev
libdde-file-manager.so.1:_ZN40OrgFreedesktopDBusObjectManagerInterfaceD2Ev
libdde-file-manager.so.1:_ZN40OrgFreedesktopUDisks2FilesystemInterface11qt_metacallEN11QMetaObject4CallEiPPv
libdde-file-manager.so.1:_ZN40OrgFreedesktopUDisks2FilesystemInterface11qt_metacastEPKc
libdde-file-manager.so.1:_ZN40OrgFreedesktopUDisks2FilesystemInterfaceC1ERK7QStringS2_RK15QDBusConnectionP7QObject
libdde-file-manager.so.1:_ZN40OrgFreedesktopUDisks2FilesystemInterfaceC2ERK7QStringS2_RK15QDBusConnectionP7QObject
libdde-file-manager.so.1:_ZN40OrgFreedesktopUDisks2FilesystemInterfaceD0Ev
libdde-file-manager.so.1:_ZN40OrgFreedesktopUDisks2FilesystemInterfaceD1Ev
libdde-file-manager.so.1:_ZN40OrgFreedesktopUDisks2FilesystemInterfaceD2Ev
libdde-file-manager.so.1:_ZN44OrgFreedesktopUDisks2PartitionTableInterface11qt_metacallEN11QMetaObject4CallEiPPv
libdde-file-manager.so.1:_ZN44OrgFreedesktopUDisks2PartitionTableInterface11qt_metacastEPKc
libdde-file-manager.so.1:_ZN44OrgFreedesktopUDisks2PartitionTableInterfaceC1ERK7QStringS2_RK15QDBusConnectionP7QObject
libdde-file-manager.so.1:_ZN44OrgFreedesktopUDisks2PartitionTableInterfaceC2ERK7QStringS2_RK15QDBusConnectionP7QObject
libdde-file-manager.so.1:_ZN44OrgFreedesktopUDisks2PartitionTableInterfaceD0Ev
libdde-file-manager.so.1:_ZN44OrgFreedesktopUDisks2PartitionTableInterfaceD1Ev
libdde-file-manager.so.1:_ZN44OrgFreedesktopUDisks2PartitionTableInterfaceD2Ev
libdde-file-manager.so.1:_ZN4DUrl10toQUrlListERK5QListIS_E
libdde-file-manager.so.1:_ZN4DUrl11fromAFCFileERK7QString
libdde-file-manager.so.1:_ZN4DUrl11fromMTPFileERK7QString
libdde-file-manager.so.1:_ZN4DUrl11fromSMBFileERK7QString
libdde-file-manager.so.1:_ZN4DUrl12childrenListERKS_
libdde-file-manager.so.1:_ZN4DUrl12fromAVFSFileERK7QString
libdde-file-manager.so.1:_ZN4DUrl12fromDeviceIdERK7QString
libdde-file-manager.so.1:_ZN4DUrl12fromQUrlListERK5QListI4QUrlE
libdde-file-manager.so.1:_ZN4DUrl12toStringListERK5QListIS_E12QUrlTwoFlagsIN4QUrl19UrlFormattingOptionENS5_25ComponentFormattingOptionEE
libdde-file-manager.so.1:_ZN4DUrl13fromLocalFileERK7QString
libdde-file-manager.so.1:_ZN4DUrl13fromTrashFileERK7QString
libdde-file-manager.so.1:_ZN4DUrl13fromUserInputERK7QStringS0_b6QFlagsIN4QUrl25UserInputResolutionOptionEE
libdde-file-manager.so.1:_ZN4DUrl13fromUserInputERK7QStringb
libdde-file-manager.so.1:_ZN4DUrl14fromRecentFileERK7QString
libdde-file-manager.so.1:_ZN4DUrl14fromSearchFileERK7QString
libdde-file-manager.so.1:_ZN4DUrl14fromSearchFileERKS_RK7QStringS1_
libdde-file-manager.so.1:_ZN4DUrl14fromStringListERK11QStringListN4QUrl11ParsingModeE
libdde-file-manager.so.1:_ZN4DUrl15fromNetworkFileERK7QString
libdde-file-manager.so.1:_ZN4DUrl15setBookmarkNameERK7QString
libdde-file-manager.so.1:_ZN4DUrl16fromBookMarkFileERKS_RK7QString
libdde-file-manager.so.1:_ZN4DUrl16fromComputerFileERK7QString
libdde-file-manager.so.1:_ZN4DUrl16makeAbsolutePathEv
libdde-file-manager.so.1:_ZN4DUrl16setSearchKeywordERK7QString
libdde-file-manager.so.1:_ZN4DUrl16setTaggedFileUrlERK7QString
libdde-file-manager.so.1:_ZN4DUrl17fromUserShareFileERK7QString
libdde-file-manager.so.1:_ZN4DUrl17updateVirtualPathEv
libdde-file-manager.so.1:_ZN4DUrl18fromUserTaggedFileERK7QStringS2_
libdde-file-manager.so.1:_ZN4DUrl18setSearchTargetUrlERKS_
libdde-file-manager.so.1:_ZN4DUrl18setSearchedFileUrlERKS_
libdde-file-manager.so.1:_ZN4DUrl6setUrlERK7QStringN4QUrl11ParsingModeEb
libdde-file-manager.so.1:_ZN4DUrl7setPathERK7QStringN4QUrl11ParsingModeEb
libdde-file-manager.so.1:_ZN4DUrl9hasSchemeERK7QString
libdde-file-manager.so.1:_ZN4DUrl9parentUrlERKS_
libdde-file-manager.so.1:_ZN4DUrl9setSchemeERK7QStringb
libdde-file-manager.so.1:_ZN4DUrlC1EOS_
libdde-file-manager.so.1:_ZN4DUrlC1ERK4QUrl
libdde-file-manager.so.1:_ZN4DUrlC1ERK7QStringN4QUrl11ParsingModeE
libdde-file-manager.so.1:_ZN4DUrlC1ERKS_
libdde-file-manager.so.1:_ZN4DUrlC1Ev
libdde-file-manager.so.1:_ZN4DUrlC2EOS_
libdde-file-manager.so.1:_ZN4DUrlC2ERK4QUrl
libdde-file-manager.so.1:_ZN4DUrlC2ERK7QStringN4QUrl11ParsingModeE
libdde-file-manager.so.1:_ZN4DUrlC2ERKS_
libdde-file-manager.so.1:_ZN4DUrlC2Ev
libdde-file-manager.so.1:_ZN4DUrlaSEOS_
libdde-file-manager.so.1:_ZN4DUrlaSERKS_
libdde-file-manager.so.1:_ZN5QtX115utils10MoveWindowEP7QWidgetP11QMouseEventRK5QRect
libdde-file-manager.so.1:_ZN5QtX115utils12ResizeWindowEP7QWidgetP11QMouseEventi
libdde-file-manager.so.1:_ZN5QtX115utils15setHandleCursorEP7QWidget
libdde-file-manager.so.1:_ZN5QtX115utils15setNormalCursorEP7QWidget
libdde-file-manager.so.1:_ZN5QtX115utils16ShowNormalWindowEP7QWidget
libdde-file-manager.so.1:_ZN5QtX115utils17UpdateCursorShapeEP7QWidgetiii
libdde-file-manager.so.1:_ZN5QtX115utils19ShowMaximizedWindowEP7QWidget
libdde-file-manager.so.1:_ZN5QtX115utils19ShowMinimizedWindowEP7QWidget
libdde-file-manager.so.1:_ZN5QtX115utils21ToggleMaximizedWindowEP7QWidget
libdde-file-manager.so.1:_ZN5QtX115utils21setCursorByCursorTypeEP7QWidgetj
libdde-file-manager.so.1:_ZN6Pinyin14Chinese2PinyinERK7QString
libdde-file-manager.so.1:_ZN6Pinyin8InitDictEv
libdde-file-manager.so.1:_ZN6QDrive11setCan_stopEb
libdde-file-manager.so.1:_ZN6QDrive11setSort_keyERK7QString
libdde-file-manager.so.1:_ZN6QDrive12setCan_ejectEb
libdde-file-manager.so.1:_ZN6QDrive12setCan_startEb
libdde-file-manager.so.1:_ZN6QDrive12setHas_mediaEb
libdde-file-manager.so.1:_ZN6QDrive14setHas_volumesEb
libdde-file-manager.so.1:_ZN6QDrive14setUnix_deviceERK7QString
libdde-file-manager.so.1:_ZN6QDrive15setIs_removableEb
libdde-file-manager.so.1:_ZN6QDrive17setSymbolic_iconsERK11QStringList
libdde-file-manager.so.1:_ZN6QDrive18setStart_stop_typeERK19GDriveStartStopType
libdde-file-manager.so.1:_ZN6QDrive21setCan_poll_for_mediaEb
libdde-file-manager.so.1:_ZN6QDrive21setCan_start_degradedEb
libdde-file-manager.so.1:_ZN6QDrive21setIs_media_removableEb
libdde-file-manager.so.1:_ZN6QDrive27setIs_media_check_automaticEb
libdde-file-manager.so.1:_ZN6QDrive7isValidEv
libdde-file-manager.so.1:_ZN6QDrive7setNameERK7QString
libdde-file-manager.so.1:_ZN6QDrive8setIconsERK11QStringList
libdde-file-manager.so.1:_ZN6QDriveC1Ev
libdde-file-manager.so.1:_ZN6QDriveC2Ev
libdde-file-manager.so.1:_ZN6QMount11setSort_keyERK7QString
libdde-file-manager.so.1:_ZN6QMount12setCan_ejectEb
libdde-file-manager.so.1:_ZN6QMount14setCan_unmountEb
libdde-file-manager.so.1:_ZN6QMount14setIs_shadowedEb
libdde-file-manager.so.1:_ZN6QMount17setSymbolic_iconsERK11QStringList
libdde-file-manager.so.1:_ZN6QMount19setDefault_locationERK7QString
libdde-file-manager.so.1:_ZN6QMount19setMounted_root_uriERK7QString
libdde-file-manager.so.1:_ZN6QMount7setNameERK7QString
libdde-file-manager.so.1:_ZN6QMount8setIconsERK11QStringList
libdde-file-manager.so.1:_ZN6QMountC1Ev
libdde-file-manager.so.1:_ZN6QMountC2Ev
libdde-file-manager.so.1:_ZN6TabBar10currentTabEv
libdde-file-manager.so.1:_ZN6TabBar10onMoveNextEP3Tab
libdde-file-manager.so.1:_ZN6TabBar10setTabTextERKiRK7QString
libdde-file-manager.so.1:_ZN6TabBar10wheelEventEP11QWheelEvent
libdde-file-manager.so.1:_ZN6TabBar11eventFilterEP7QObjectP6QEvent
libdde-file-manager.so.1:_ZN6TabBar11qt_metacallEN11QMetaObject4CallEiPPv
libdde-file-manager.so.1:_ZN6TabBar11qt_metacastEPKc
libdde-file-manager.so.1:_ZN6TabBar11resizeEventEP12QResizeEvent
libdde-file-manager.so.1:_ZN6TabBar11tabBarShownEv
libdde-file-manager.so.1:_ZN6TabBar11tabSizeHintERKi
libdde-file-manager.so.1:_ZN6TabBar12onTabClickedEv
libdde-file-manager.so.1:_ZN6TabBar12tabBarHiddenEv
libdde-file-manager.so.1:_ZN6TabBar12updateScreenEv
libdde-file-manager.so.1:_ZN6TabBar13onMovePreviusEP3Tab
libdde-file-manager.so.1:_ZN6TabBar14currentChangedERKi
libdde-file-manager.so.1:_ZN6TabBar14mouseMoveEventEP11QMouseEvent
libdde-file-manager.so.1:_ZN6TabBar15activateNextTabEv
libdde-file-manager.so.1:_ZN6TabBar15initConnectionsEv
libdde-file-manager.so.1:_ZN6TabBar15setCurrentIndexEi
libdde-file-manager.so.1:_ZN6TabBar16onTabDragStartedEv
libdde-file-manager.so.1:_ZN6TabBar16requestNewWindowERK4DUrl
libdde-file-manager.so.1:_ZN6TabBar17onTabDragFinishedEv
libdde-file-manager.so.1:_ZN6TabBar17tabAddableChangedERKb
libdde-file-manager.so.1:_ZN6TabBar17tabCloseRequestedERKiRKb
libdde-file-manager.so.1:_ZN6TabBar18onAboutToNewWindowEP3Tab
libdde-file-manager.so.1:_ZN6TabBar18onRequestNewWindowE4DUrl
libdde-file-manager.so.1:_ZN6TabBar19activatePreviousTabEv
libdde-file-manager.so.1:_ZN6TabBar19onCurrentUrlChangedERK15DFMUrlBaseEvent
libdde-file-manager.so.1:_ZN6TabBar23onTabCloseButtonHoveredEi
libdde-file-manager.so.1:_ZN6TabBar25onTabCloseButtonUnHoveredEi
libdde-file-manager.so.1:_ZN6TabBar5eventEP6QEvent
libdde-file-manager.so.1:_ZN6TabBar5tabAtERKi
libdde-file-manager.so.1:_ZN6TabBar8tabMovedERKiS1_
libdde-file-manager.so.1:_ZN6TabBar9createTabEPN16dde_file_manager11DFMBaseViewE
libdde-file-manager.so.1:_ZN6TabBar9removeTabEiRKb
libdde-file-manager.so.1:_ZN6TabBarC1EP7QWidget
libdde-file-manager.so.1:_ZN6TabBarC2EP7QWidget
libdde-file-manager.so.1:_ZN7FileJob10deleteFileERK7QString
libdde-file-manager.so.1:_ZN7FileJob10jobAbortedEv
libdde-file-manager.so.1:_ZN7FileJob10jobRemovedEv
libdde-file-manager.so.1:_ZN7FileJob10jobUpdatedEv
libdde-file-manager.so.1:_ZN7FileJob10setReplaceEb
libdde-file-manager.so.1:_ZN7FileJob11getWindowIdEv
libdde-file-manager.so.1:_ZN7FileJob11jobPreparedEv
libdde-file-manager.so.1:_ZN7FileJob11qt_metacallEN11QMetaObject4CallEiPPv
libdde-file-manager.so.1:_ZN7FileJob11qt_metacastEPKc
libdde-file-manager.so.1:_ZN7FileJob11setWindowIdEi
libdde-file-manager.so.1:_ZN7FileJob12getTargetDirEv
libdde-file-manager.so.1:_ZN7FileJob12setIsAbortedEb
libdde-file-manager.so.1:_ZN7FileJob12showProgressEllPv
libdde-file-manager.so.1:_ZN7FileJob13copyFileByGioERK7QStringS2_bPS0_
libdde-file-manager.so.1:_ZN7FileJob13doMoveCopyJobERK5QListI4DUrlERKS1_
libdde-file-manager.so.1:_ZN7FileJob13doMoveToTrashERK5QListI4DUrlE
libdde-file-manager.so.1:_ZN7FileJob13handleMoveJobERK7QStringS2_PS0_
libdde-file-manager.so.1:_ZN7FileJob13jobConflictedEv
libdde-file-manager.so.1:_ZN7FileJob13moveFileByGioERK7QStringS2_PS0_
libdde-file-manager.so.1:_ZN7FileJob13setApplyToAllEb
libdde-file-manager.so.1:_ZN7FileJob14deleteEmptyDirERK7QString
libdde-file-manager.so.1:_ZN7FileJob14doTrashRestoreERK7QStringS2_
libdde-file-manager.so.1:_ZN7FileJob14getStorageInfoERK7QString
libdde-file-manager.so.1:_ZN7FileJob14moveDirToTrashERK7QStringPS0_
libdde-file-manager.so.1:_ZN7FileJob14setIsCoExistedEb
libdde-file-manager.so.1:_ZN7FileJob14writeTrashInfoERK7QStringS2_S2_
libdde-file-manager.so.1:_ZN7FileJob15deleteFileByGioERK7QString
libdde-file-manager.so.1:_ZN7FileJob15moveFileToTrashERK7QStringPS0_
libdde-file-manager.so.1:_ZN7FileJob15progressPercentEi
libdde-file-manager.so.1:_ZN7FileJob15requestJobAddedERK4QMapI7QStringS1_E
libdde-file-manager.so.1:_ZN7FileJob16requestAbortTaskERK4QMapI7QStringS1_E
libdde-file-manager.so.1:_ZN7FileJob16restoreTrashFileERK7QStringS2_
libdde-file-manager.so.1:_ZN7FileJob17adjustSymlinkPathER7QStringS1_
libdde-file-manager.so.1:_ZN7FileJob17handleJobFinishedEv
libdde-file-manager.so.1:_ZN7FileJob17handleSymlinkFileERK7QStringS2_PS0_
libdde-file-manager.so.1:_ZN7FileJob17requestJobRemovedERK4QMapI7QStringS1_E
libdde-file-manager.so.1:_ZN7FileJob17setDirPermissionsERK7QStringS2_
libdde-file-manager.so.1:_ZN7FileJob18checkDuplicateNameERK7QString
libdde-file-manager.so.1:_ZN7FileJob21checkFat32FileOutof4GERK7QStringS2_
libdde-file-manager.so.1:_ZN7FileJob21requestJobDataUpdatedERK4QMapI7QStringS1_ES4_
libdde-file-manager.so.1:_ZN7FileJob22checkTrashFileOutOf1GBERK4DUrl
libdde-file-manager.so.1:_ZN7FileJob23checkDiskSpaceAvailableERK5QListI4DUrlERKS1_
libdde-file-manager.so.1:_ZN7FileJob25checkUseGvfsFileOperationERK5QListI4DUrlERKS1_
libdde-file-manager.so.1:_ZN7FileJob25checkUseGvfsFileOperationERK7QString
libdde-file-manager.so.1:_ZN7FileJob25getNotExistsTrashFileNameERK7QString
libdde-file-manager.so.1:_ZN7FileJob27requestConflictDialogShowedERK4QMapI7QStringS1_E
libdde-file-manager.so.1:_ZN7FileJob28requestJobRemovedImmediatelyERK4QMapI7QStringS1_E
libdde-file-manager.so.1:_ZN7FileJob32requestNoEnoughSpaceDialogShowedEv
libdde-file-manager.so.1:_ZN7FileJob33requestCopyMoveToSelfDialogShowedERK4QMapI7QStringS1_E
libdde-file-manager.so.1:_ZN7FileJob36requestCanNotMoveToTrashDialogShowedERK5QListI4DUrlE
libdde-file-manager.so.1:_ZN7FileJob5errorE7QString
libdde-file-manager.so.1:_ZN7FileJob6doCopyERK5QListI4DUrlERKS1_
libdde-file-manager.so.1:_ZN7FileJob6doMoveERK5QListI4DUrlERKS1_
libdde-file-manager.so.1:_ZN7FileJob6pausedEv
libdde-file-manager.so.1:_ZN7FileJob6resultE7QString
libdde-file-manager.so.1:_ZN7FileJob7canMoveERK7QString
libdde-file-manager.so.1:_ZN7FileJob7copyDirERK7QStringS2_bPS0_
libdde-file-manager.so.1:_ZN7FileJob7moveDirERK7QStringS2_PS0_
libdde-file-manager.so.1:_ZN7FileJob7startedEv
libdde-file-manager.so.1:_ZN7FileJob8copyFileERK7QStringS2_bPS0_
libdde-file-manager.so.1:_ZN7FileJob8doDeleteERK5QListI4DUrlE
libdde-file-manager.so.1:_ZN7FileJob8finishedEv
libdde-file-manager.so.1:_ZN7FileJob8getJobIdEv
libdde-file-manager.so.1:_ZN7FileJob8jobAddedEv
libdde-file-manager.so.1:_ZN7FileJob8moveFileERK7QStringS2_PS0_
libdde-file-manager.so.1:_ZN7FileJob8setJobIdERK7QString
libdde-file-manager.so.1:_ZN7FileJob9cancelledEv
libdde-file-manager.so.1:_ZN7FileJob9deleteDirERK7QString
libdde-file-manager.so.1:_ZN7FileJob9setIsSkipEb
libdde-file-manager.so.1:_ZN7FileJob9setStatusENS_6StatusE
libdde-file-manager.so.1:_ZN7FileJobC1ENS_7JobTypeEP7QObject
libdde-file-manager.so.1:_ZN7FileJobC2ENS_7JobTypeEP7QObject
libdde-file-manager.so.1:_ZN7FileJobD0Ev
libdde-file-manager.so.1:_ZN7FileJobD1Ev
libdde-file-manager.so.1:_ZN7FileJobD2Ev
libdde-file-manager.so.1:_ZN7PartMan11RegexpLabelERK7QStringS2_
libdde-file-manager.so.1:_ZN7PartMan13RunScriptFileERK11QStringListR7QStringS4_
libdde-file-manager.so.1:_ZN7PartMan13RunScriptFileERK7QString
libdde-file-manager.so.1:_ZN7PartMan16PartitionManager11qt_metacallEN11QMetaObject4CallEiPPv
libdde-file-manager.so.1:_ZN7PartMan16PartitionManager11qt_metacastEPKc
libdde-file-manager.so.1:_ZN7PartMan16PartitionManager15actionFormatEfiERK7QStringS3_
libdde-file-manager.so.1:_ZN7PartMan16PartitionManager15actionFormatEfiERKNS_9PartitionE
libdde-file-manager.so.1:_ZN7PartMan16PartitionManager15actionFormatHfsERK7QStringS3_
libdde-file-manager.so.1:_ZN7PartMan16PartitionManager15actionFormatHfsERKNS_9PartitionE
libdde-file-manager.so.1:_ZN7PartMan16PartitionManager15actionFormatJfsERK7QStringS3_
libdde-file-manager.so.1:_ZN7PartMan16PartitionManager15actionFormatJfsERKNS_9PartitionE
libdde-file-manager.so.1:_ZN7PartMan16PartitionManager15actionFormatXfsERK7QStringS3_
libdde-file-manager.so.1:_ZN7PartMan16PartitionManager15actionFormatXfsERKNS_9PartitionE
libdde-file-manager.so.1:_ZN7PartMan16PartitionManager16actionFormatExt2ERK7QStringS3_
libdde-file-manager.so.1:_ZN7PartMan16PartitionManager16actionFormatExt2ERKNS_9PartitionE
libdde-file-manager.so.1:_ZN7PartMan16PartitionManager16actionFormatExt3ERK7QStringS3_
libdde-file-manager.so.1:_ZN7PartMan16PartitionManager16actionFormatExt3ERKNS_9PartitionE
libdde-file-manager.so.1:_ZN7PartMan16PartitionManager16actionFormatExt4ERK7QStringS3_
libdde-file-manager.so.1:_ZN7PartMan16PartitionManager16actionFormatExt4ERKNS_9PartitionE
libdde-file-manager.so.1:_ZN7PartMan16PartitionManager16actionFormatF2fsERK7QStringS3_
libdde-file-manager.so.1:_ZN7PartMan16PartitionManager16actionFormatF2fsERKNS_9PartitionE
libdde-file-manager.so.1:_ZN7PartMan16PartitionManager16actionFormatNtfsERK7QStringS3_
libdde-file-manager.so.1:_ZN7PartMan16PartitionManager16actionFormatNtfsERKNS_9PartitionE
libdde-file-manager.so.1:_ZN7PartMan16PartitionManager17actionFormatBtrfsERK7QStringS3_
libdde-file-manager.so.1:_ZN7PartMan16PartitionManager17actionFormatBtrfsERKNS_9PartitionE
libdde-file-manager.so.1:_ZN7PartMan16PartitionManager17actionFormatFat16ERK7QStringS3_
libdde-file-manager.so.1:_ZN7PartMan16PartitionManager17actionFormatFat16ERKNS_9PartitionE
libdde-file-manager.so.1:_ZN7PartMan16PartitionManager17actionFormatFat32ERK7QStringS3_
libdde-file-manager.so.1:_ZN7PartMan16PartitionManager17actionFormatFat32ERKNS_9PartitionE
libdde-file-manager.so.1:_ZN7PartMan16PartitionManager18actionFormatLvm2pvERK7QStringS3_
libdde-file-manager.so.1:_ZN7PartMan16PartitionManager18actionFormatLvm2pvERKNS_9PartitionE
libdde-file-manager.so.1:_ZN7PartMan16PartitionManager18actionFormatNilfs2ERK7QStringS3_
libdde-file-manager.so.1:_ZN7PartMan16PartitionManager18actionFormatNilfs2ERKNS_9PartitionE
libdde-file-manager.so.1:_ZN7PartMan16PartitionManager19actionFormatHfsplusERK7QStringS3_
libdde-file-manager.so.1:_ZN7PartMan16PartitionManager19actionFormatHfsplusERKNS_9PartitionE
libdde-file-manager.so.1:_ZN7PartMan16PartitionManager19actionFormatReiser4ERK7QStringS3_
libdde-file-manager.so.1:_ZN7PartMan16PartitionManager19actionFormatReiser4ERKNS_9PartitionE
libdde-file-manager.so.1:_ZN7PartMan16PartitionManager19actionFormatUnknownERK7QStringS3_
libdde-file-manager.so.1:_ZN7PartMan16PartitionManager19actionFormatUnknownERKNS_9PartitionE
libdde-file-manager.so.1:_ZN7PartMan16PartitionManager20actionFormatReiserfsERK7QStringS3_
libdde-file-manager.so.1:_ZN7PartMan16PartitionManager20actionFormatReiserfsERKNS_9PartitionE
libdde-file-manager.so.1:_ZN7PartMan16PartitionManager21actionFormatLinuxswapERK7QStringS3_
libdde-file-manager.so.1:_ZN7PartMan16PartitionManager21actionFormatLinuxswapERKNS_9PartitionE
libdde-file-manager.so.1:_ZN7PartMan16PartitionManager22getMaxNameLengthByTypeERKNS0_6FsTypeE
libdde-file-manager.so.1:_ZN7PartMan16PartitionManager28getMaxNameLengthByTypeStringERK7QString
libdde-file-manager.so.1:_ZN7PartMan16PartitionManager4mkfsERK7QStringS3_S3_
libdde-file-manager.so.1:_ZN7PartMan16PartitionManager4mkfsERKNS_9PartitionE
libdde-file-manager.so.1:_ZN7PartMan16PartitionManagerC1EP7QObject
libdde-file-manager.so.1:_ZN7PartMan16PartitionManagerC2EP7QObject
libdde-file-manager.so.1:_ZN7PartMan16ReadUsageManager11qt_metacallEN11QMetaObject4CallEiPPv
libdde-file-manager.so.1:_ZN7PartMan16ReadUsageManager11qt_metacastEPKc
libdde-file-manager.so.1:_ZN7PartMan16ReadUsageManager12readEfiUsageERK7QStringRxS4_
libdde-file-manager.so.1:_ZN7PartMan16ReadUsageManager12readHfsUsageERK7QStringRxS4_
libdde-file-manager.so.1:_ZN7PartMan16ReadUsageManager12readJfsUsageERK7QStringRxS4_
libdde-file-manager.so.1:_ZN7PartMan16ReadUsageManager12readXfsUsageERK7QStringRxS4_
libdde-file-manager.so.1:_ZN7PartMan16ReadUsageManager13readExt2UsageERK7QStringRxS4_
libdde-file-manager.so.1:_ZN7PartMan16ReadUsageManager13readExt3UsageERK7QStringRxS4_
libdde-file-manager.so.1:_ZN7PartMan16ReadUsageManager13readExt4UsageERK7QStringRxS4_
libdde-file-manager.so.1:_ZN7PartMan16ReadUsageManager13readF2fsUsageERK7QStringRxS4_
libdde-file-manager.so.1:_ZN7PartMan16ReadUsageManager13readNtfsUsageERK7QStringRxS4_
libdde-file-manager.so.1:_ZN7PartMan16ReadUsageManager14ParseBtrfsUnitERK7QString
libdde-file-manager.so.1:_ZN7PartMan16ReadUsageManager14readBtrfsUsageERK7QStringRxS4_
libdde-file-manager.so.1:_ZN7PartMan16ReadUsageManager14readFat16UsageERK7QStringRxS4_
libdde-file-manager.so.1:_ZN7PartMan16ReadUsageManager14readFat32UsageERK7QStringRxS4_
libdde-file-manager.so.1:_ZN7PartMan16ReadUsageManager15readLvm2pvUsageERK7QStringRxS4_
libdde-file-manager.so.1:_ZN7PartMan16ReadUsageManager15readNilfs2UsageERK7QStringRxS4_
libdde-file-manager.so.1:_ZN7PartMan16ReadUsageManager16readHfsplusUsageERK7QStringRxS4_
libdde-file-manager.so.1:_ZN7PartMan16ReadUsageManager16readReiser4UsageERK7QStringRxS4_
libdde-file-manager.so.1:_ZN7PartMan16ReadUsageManager16readUnknownUsageERK7QStringRxS4_
libdde-file-manager.so.1:_ZN7PartMan16ReadUsageManager17readReiserfsUsageERK7QStringRxS4_
libdde-file-manager.so.1:_ZN7PartMan16ReadUsageManager18readLinuxswapUsageERK7QStringRxS4_
libdde-file-manager.so.1:_ZN7PartMan16ReadUsageManager9readUsageERK7QStringRxS4_
libdde-file-manager.so.1:_ZN7PartMan16ReadUsageManager9readUsageERK7QStringS3_RxS4_
libdde-file-manager.so.1:_ZN7PartMan16ReadUsageManagerC1EP7QObject
libdde-file-manager.so.1:_ZN7PartMan16ReadUsageManagerC2EP7QObject
libdde-file-manager.so.1:_ZN7PartMan8SpawnCmdERK7QStringRK11QStringList
libdde-file-manager.so.1:_ZN7PartMan8SpawnCmdERK7QStringRK11QStringListRS0_
libdde-file-manager.so.1:_ZN7PartMan8SpawnCmdERK7QStringRK11QStringListRS0_S6_
libdde-file-manager.so.1:_ZN7PartMan9Partition12setFreespaceERKx
libdde-file-manager.so.1:_ZN7PartMan9Partition13setMountPointERK7QString
libdde-file-manager.so.1:_ZN7PartMan9Partition14setIsRemovableEb
libdde-file-manager.so.1:_ZN7PartMan9Partition16registerMetaTypeEv
libdde-file-manager.so.1:_ZN7PartMan9Partition24getPartitionByDevicePathERK7QString
libdde-file-manager.so.1:_ZN7PartMan9Partition5setFsERK7QString
libdde-file-manager.so.1:_ZN7PartMan9Partition7setNameERK7QString
libdde-file-manager.so.1:_ZN7PartMan9Partition7setPathERK7QString
libdde-file-manager.so.1:_ZN7PartMan9Partition7setUuidERK7QString
libdde-file-manager.so.1:_ZN7PartMan9Partition8setLabelERK7QString
libdde-file-manager.so.1:_ZN7PartMan9Partition8setTotalERKx
libdde-file-manager.so.1:_ZN7PartMan9PartitionC1Ev
libdde-file-manager.so.1:_ZN7PartMan9PartitionC2Ev
libdde-file-manager.so.1:_ZN7PartManlsE6QDebugRKNS_9PartitionE
libdde-file-manager.so.1:_ZN7PartManlsER13QDBusArgumentRKNS_9PartitionE
libdde-file-manager.so.1:_ZN7PartManlsER6QDebugRKNS_18PartitionTableTypeE
libdde-file-manager.so.1:_ZN7PartManlsER6QDebugRKNS_6OsTypeE
libdde-file-manager.so.1:_ZN7PartManrsERK13QDBusArgumentRNS_9PartitionE
libdde-file-manager.so.1:_ZN7QVolume11setSort_keyERK7QString
libdde-file-manager.so.1:_ZN7QVolume12setCan_ejectEb
libdde-file-manager.so.1:_ZN7QVolume12setCan_mountEb
libdde-file-manager.so.1:_ZN7QVolume12setIsMountedEb
libdde-file-manager.so.1:_ZN7QVolume12setNfs_mountERK7QString
libdde-file-manager.so.1:_ZN7QVolume14setUnix_deviceERK7QString
libdde-file-manager.so.1:_ZN7QVolume15setIs_removableEb
libdde-file-manager.so.1:_ZN7QVolume17setSymbolic_iconsERK11QStringList
libdde-file-manager.so.1:_ZN7QVolume19setMounted_root_uriERK7QString
libdde-file-manager.so.1:_ZN7QVolume19setShould_automountEb
libdde-file-manager.so.1:_ZN7QVolume20setDrive_unix_deviceERK7QString
libdde-file-manager.so.1:_ZN7QVolume22setActivation_root_uriERK7QString
libdde-file-manager.so.1:_ZN7QVolume7isValidEv
libdde-file-manager.so.1:_ZN7QVolume7setNameERK7QString
libdde-file-manager.so.1:_ZN7QVolume7setUuidERK7QString
libdde-file-manager.so.1:_ZN7QVolume8setDriveERK6QDrive
libdde-file-manager.so.1:_ZN7QVolume8setIconsERK11QStringList
libdde-file-manager.so.1:_ZN7QVolume8setLableERK7QString
libdde-file-manager.so.1:_ZN7QVolumeC1Ev
libdde-file-manager.so.1:_ZN7QVolumeC2Ev
libdde-file-manager.so.1:_ZN8BookMarkC1ERK4DUrl
libdde-file-manager.so.1:_ZN8BookMarkC1ERK7QStringRK4DUrl
libdde-file-manager.so.1:_ZN8BookMarkC2ERK4DUrl
libdde-file-manager.so.1:_ZN8BookMarkC2ERK7QStringRK4DUrl
libdde-file-manager.so.1:_ZN8BookMarkD0Ev
libdde-file-manager.so.1:_ZN8BookMarkD1Ev
libdde-file-manager.so.1:_ZN8BookMarkD2Ev
libdde-file-manager.so.1:_ZN8DFMEvent10nameToTypeERK7QString
libdde-file-manager.so.1:_ZN8DFMEvent10typeToNameENS_4TypeE
libdde-file-manager.so.1:_ZN8DFMEvent11setWindowIdEy
libdde-file-manager.so.1:_ZN8DFMEvent17windowIdByQObjectEPK7QObject
libdde-file-manager.so.1:_ZN8DFMEvent8fromJsonENS_4TypeERK11QJsonObject
libdde-file-manager.so.1:_ZN8DFMEvent8fromJsonERK11QJsonObject
libdde-file-manager.so.1:_ZN8DFMEventC1ENS_4TypeEPK7QObject
libdde-file-manager.so.1:_ZN8DFMEventC1EPK7QObject
libdde-file-manager.so.1:_ZN8DFMEventC1ERKS_
libdde-file-manager.so.1:_ZN8DFMEventC2ENS_4TypeEPK7QObject
libdde-file-manager.so.1:_ZN8DFMEventC2EPK7QObject
libdde-file-manager.so.1:_ZN8DFMEventC2ERKS_
libdde-file-manager.so.1:_ZN8DFMEventD0Ev
libdde-file-manager.so.1:_ZN8DFMEventD1Ev
libdde-file-manager.so.1:_ZN8DFMEventD2Ev
libdde-file-manager.so.1:_ZN8DFMEventaSERKS_
libdde-file-manager.so.1:_ZN8DTagEdit10onFocusOutEv
libdde-file-manager.so.1:_ZN8DTagEdit11processTagsEv
libdde-file-manager.so.1:_ZN8DTagEdit11qt_metacallEN11QMetaObject4CallEiPPv
libdde-file-manager.so.1:_ZN8DTagEdit11qt_metacastEPKc
libdde-file-manager.so.1:_ZN8DTagEdit13keyPressEventEP9QKeyEvent
libdde-file-manager.so.1:_ZN8DTagEdit14mouseMoveEventEP11QMouseEvent
libdde-file-manager.so.1:_ZN8DTagEdit16initializeLayoutEv
libdde-file-manager.so.1:_ZN8DTagEdit16setDefaultCrumbsERK11QStringList
libdde-file-manager.so.1:_ZN8DTagEdit17initializeConnectEv
libdde-file-manager.so.1:_ZN8DTagEdit17initializeWidgetsEv
libdde-file-manager.so.1:_ZN8DTagEdit18setFilesForTaggingERK5QListI4DUrlE
libdde-file-manager.so.1:_ZN8DTagEdit20initializeParametersEv
libdde-file-manager.so.1:_ZN8DTagEdit22setFocusOutSelfClosingEb
libdde-file-manager.so.1:_ZN8DTagEditC1EP7QWidget
libdde-file-manager.so.1:_ZN8DTagEditC2EP7QWidget
libdde-file-manager.so.1:_ZN8DToolBar11initConnectEv
libdde-file-manager.so.1:_ZN8DToolBar11qt_metacallEN11QMetaObject4CallEiPPv
libdde-file-manager.so.1:_ZN8DToolBar11qt_metacastEPKc
libdde-file-manager.so.1:_ZN8DToolBar13crumbSelectedEPKN16dde_file_manager12DFMCrumbItemE
libdde-file-manager.so.1:_ZN8DToolBar13moveNavStacksEii
libdde-file-manager.so.1:_ZN8DToolBar14getCrumbWidgetEv
libdde-file-manager.so.1:_ZN8DToolBar15addHistoryStackEv
libdde-file-manager.so.1:_ZN8DToolBar16removeNavStackAtEi
libdde-file-manager.so.1:_ZN8DToolBar17currentUrlChangedERK8DFMEvent
libdde-file-manager.so.1:_ZN8DToolBar17getSettingsButtonEv
libdde-file-manager.so.1:_ZN8DToolBar17handleHotkeyCtrlFEy
libdde-file-manager.so.1:_ZN8DToolBar17handleHotkeyCtrlLEy
libdde-file-manager.so.1:_ZN8DToolBar17toolbarUrlChangedERK4DUrl
libdde-file-manager.so.1:_ZN8DToolBar18initAddressToolBarEv
libdde-file-manager.so.1:_ZN8DToolBar18searchBarActivatedEv
libdde-file-manager.so.1:_ZN8DToolBar18switchHistoryStackEi
libdde-file-manager.so.1:_ZN8DToolBar19onBackButtonClickedEv
libdde-file-manager.so.1:_ZN8DToolBar19setCustomActionListERK5QListIP7QActionE
libdde-file-manager.so.1:_ZN8DToolBar20initContollerToolBarEv
libdde-file-manager.so.1:_ZN8DToolBar20refreshButtonClickedEv
libdde-file-manager.so.1:_ZN8DToolBar20searchBarDeactivatedEv
libdde-file-manager.so.1:_ZN8DToolBar20searchBarTextEnteredE7QString
libdde-file-manager.so.1:_ZN8DToolBar20triggerActionByIndexEi
libdde-file-manager.so.1:_ZN8DToolBar21onSearchButtonClickedEv
libdde-file-manager.so.1:_ZN8DToolBar21pushUrlToHistoryStackE4DUrl
libdde-file-manager.so.1:_ZN8DToolBar22onForwardButtonClickedEv
libdde-file-manager.so.1:_ZN8DToolBar23toggleSearchButtonStateEb
libdde-file-manager.so.1:_ZN8DToolBar29updateBackForwardButtonsStateEv
libdde-file-manager.so.1:_ZN8DToolBar4backEv
libdde-file-manager.so.1:_ZN8DToolBar6initUIEv
libdde-file-manager.so.1:_ZN8DToolBar7forwardEv
libdde-file-manager.so.1:_ZN8DToolBar8initDataEv
libdde-file-manager.so.1:_ZN8DToolBarC1EP7QWidget
libdde-file-manager.so.1:_ZN8DToolBarC2EP7QWidget
libdde-file-manager.so.1:_ZN8DToolBarD0Ev
libdde-file-manager.so.1:_ZN8DToolBarD1Ev
libdde-file-manager.so.1:_ZN8DToolBarD2Ev
libdde-file-manager.so.1:_ZN8DiskInfo16registerMetaTypeEv
libdde-file-manager.so.1:_ZN8DiskInfoC1Ev
libdde-file-manager.so.1:_ZN8DiskInfoC2Ev
libdde-file-manager.so.1:_ZN8DiskInfoD1Ev
libdde-file-manager.so.1:_ZN8DiskInfoD2Ev
libdde-file-manager.so.1:_ZN8Shortcut11qt_metacallEN11QMetaObject4CallEiPPv
libdde-file-manager.so.1:_ZN8Shortcut11qt_metacastEPKc
libdde-file-manager.so.1:_ZN8Shortcut5toStrEv
libdde-file-manager.so.1:_ZN8ShortcutC1EP7QObject
libdde-file-manager.so.1:_ZN8ShortcutC2EP7QObject
libdde-file-manager.so.1:_ZN9DFMGlobal10clearTrashEv
libdde-file-manager.so.1:_ZN9DFMGlobal10isRootUserEv
libdde-file-manager.so.1:_ZN9DFMGlobal11qt_metacallEN11QMetaObject4CallEiPPv
libdde-file-manager.so.1:_ZN9DFMGlobal11qt_metacastEPKc
libdde-file-manager.so.1:_ZN9DFMGlobal12wordWrapTextEP11QTextLayoutdN11QTextOption8WrapModeEdP11QStringList
libdde-file-manager.so.1:_ZN9DFMGlobal12wordWrapTextERK7QStringdN11QTextOption8WrapModeERK5QFontdPd
libdde-file-manager.so.1:_ZN9DFMGlobal13detectCharsetERK10QByteArrayRK7QString
libdde-file-manager.so.1:_ZN9DFMGlobal13isDesktopFileERK4DUrl
libdde-file-manager.so.1:_ZN9DFMGlobal14clearClipboardEv
libdde-file-manager.so.1:_ZN9DFMGlobal14refreshPluginsEv
libdde-file-manager.so.1:_ZN9DFMGlobal14startWithHanziERK7QString
libdde-file-manager.so.1:_ZN9DFMGlobal15applicationNameEv
libdde-file-manager.so.1:_ZN9DFMGlobal15initFileServiceEv
libdde-file-manager.so.1:_ZN9DFMGlobal16keyCtrlIsPressedEv
libdde-file-manager.so.1:_ZN9DFMGlobal16organizationNameEv
libdde-file-manager.so.1:_ZN9DFMGlobal17initAppcontrollerEv
libdde-file-manager.so.1:_ZN9DFMGlobal17initDialogManagerEv
libdde-file-manager.so.1:_ZN9DFMGlobal17initPluginManagerEv
libdde-file-manager.so.1:_ZN9DFMGlobal17initSecretManagerEv
libdde-file-manager.so.1:_ZN9DFMGlobal17installTranslatorEv
libdde-file-manager.so.1:_ZN9DFMGlobal17keyShiftIsPressedEv
libdde-file-manager.so.1:_ZN9DFMGlobal18applicationVersionEv
libdde-file-manager.so.1:_ZN9DFMGlobal18fileNameCorrectionERK10QByteArray
libdde-file-manager.so.1:_ZN9DFMGlobal18fileNameCorrectionERK7QString
libdde-file-manager.so.1:_ZN9DFMGlobal18initDeviceListenerEv
libdde-file-manager.so.1:_ZN9DFMGlobal18initNetworkManagerEv
libdde-file-manager.so.1:_ZN9DFMGlobal18isTrashDesktopFileERK4DUrl
libdde-file-manager.so.1:_ZN9DFMGlobal18setUrlsToClipboardERK5QListI4QUrlENS_15ClipboardActionE
libdde-file-manager.so.1:_ZN9DFMGlobal18showPropertyDialogEP7QObjectRK5QListI4DUrlE
libdde-file-manager.so.1:_ZN9DFMGlobal19initBookmarkManagerEv
libdde-file-manager.so.1:_ZN9DFMGlobal19initFileMenuManagerEv
libdde-file-manager.so.1:_ZN9DFMGlobal19initGvfsMountClientEv
libdde-file-manager.so.1:_ZN9DFMGlobal20addMenuExtensionPathERK7QString
libdde-file-manager.so.1:_ZN9DFMGlobal20addPluginLibraryPathERK7QString
libdde-file-manager.so.1:_ZN9DFMGlobal20clipboardDataChangedEv
libdde-file-manager.so.1:_ZN9DFMGlobal20initGvfsMountManagerEv
libdde-file-manager.so.1:_ZN9DFMGlobal20initMimesAppsManagerEv
libdde-file-manager.so.1:_ZN9DFMGlobal20initUserShareManagerEv
libdde-file-manager.so.1:_ZN9DFMGlobal21addMenuExtensionPathsERK11QStringList
libdde-file-manager.so.1:_ZN9DFMGlobal21addPluginLibraryPathsERK11QStringList
libdde-file-manager.so.1:_ZN9DFMGlobal21initFileSiganlManagerEv
libdde-file-manager.so.1:_ZN9DFMGlobal21initSystemPathManagerEv
libdde-file-manager.so.1:_ZN9DFMGlobal21initTagManagerConnectEv
libdde-file-manager.so.1:_ZN9DFMGlobal21isComputerDesktopFileERK4DUrl
libdde-file-manager.so.1:_ZN9DFMGlobal21isTrashDesktopFileUrlERK4DUrl
libdde-file-manager.so.1:_ZN9DFMGlobal21preprocessingFileNameE7QString
libdde-file-manager.so.1:_ZN9DFMGlobal21showFilePreviewDialogERK5QListI4DUrlES4_
libdde-file-manager.so.1:_ZN9DFMGlobal22autoLoadDefaultPluginsEv
libdde-file-manager.so.1:_ZN9DFMGlobal22initOperatorRevocationEv
libdde-file-manager.so.1:_ZN9DFMGlobal22onClipboardDataChangedEv
libdde-file-manager.so.1:_ZN9DFMGlobal23initThumbnailConnectionEv
libdde-file-manager.so.1:_ZN9DFMGlobal24initSearchHistoryManagerEv
libdde-file-manager.so.1:_ZN9DFMGlobal24isComputerDesktopFileUrlERK4DUrl
libdde-file-manager.so.1:_ZN9DFMGlobal26initMimeTypeDisplayManagerEv
libdde-file-manager.so.1:_ZN9DFMGlobal26showMultiFilesRenameDialogERK5QListI4DUrlE
libdde-file-manager.so.1:_ZN9DFMGlobal29autoLoadDefaultMenuExtensionsEv
libdde-file-manager.so.1:_ZN9DFMGlobal7getUserEv
libdde-file-manager.so.1:_ZN9DFMGlobal8instanceEv
libdde-file-manager.so.1:_ZN9DFMGlobal8toPinyinERK7QString
libdde-file-manager.so.1:_ZN9DFMGlobal9cutStringERK7QStringiPK10QTextCodec
libdde-file-manager.so.1:_ZN9DFMGlobal9elideTextEP11QTextLayoutRK6QSizeFN11QTextOption8WrapModeEN2Qt13TextElideModeEdiP11QStringListP8QPainter7QPointFRK6QColorRKSD_RK6QBrushdP5QListI6QRectFE
libdde-file-manager.so.1:_ZN9DFMGlobal9elideTextERK7QStringRK6QSizeFN11QTextOption8WrapModeERK5QFontN2Qt13TextElideModeEdd
libdde-file-manager.so.1:_ZN9DFMGlobal9getUserIdEv
libdde-file-manager.so.1:_ZN9DFMGlobal9toUnicodeERK10QByteArrayRK7QString
libdde-file-manager.so.1:_ZN9DFMGlobalC1Ev
libdde-file-manager.so.1:_ZN9DFMGlobalC2Ev
libdde-file-manager.so.1:_ZN9DFileInfo12makeAbsoluteEv
libdde-file-manager.so.1:_ZN9DFileInfo12makeToActiveEv
libdde-file-manager.so.1:_ZN9DFileInfo14makeToInactiveEv
libdde-file-manager.so.1:_ZN9DFileInfo6existsERK4DUrl
libdde-file-manager.so.1:_ZN9DFileInfo7refreshEv
libdde-file-manager.so.1:_ZN9DFileInfo8mimeTypeERK7QStringN13QMimeDatabase9MatchModeE
libdde-file-manager.so.1:_ZN9DFileInfoC1ER16DFileInfoPrivate
libdde-file-manager.so.1:_ZN9DFileInfoC1ERK4DUrlb
libdde-file-manager.so.1:_ZN9DFileInfoC1ERK7QStringb
libdde-file-manager.so.1:_ZN9DFileInfoC1ERK9QFileInfob
libdde-file-manager.so.1:_ZN9DFileInfoC2ER16DFileInfoPrivate
libdde-file-manager.so.1:_ZN9DFileInfoC2ERK4DUrlb
libdde-file-manager.so.1:_ZN9DFileInfoC2ERK7QStringb
libdde-file-manager.so.1:_ZN9DFileInfoC2ERK9QFileInfob
libdde-file-manager.so.1:_ZN9DFileInfoD0Ev
libdde-file-manager.so.1:_ZN9DFileInfoD1Ev
libdde-file-manager.so.1:_ZN9DFileInfoD2Ev
libdde-file-manager.so.1:_ZN9DFileMenu11qt_metacallEN11QMetaObject4CallEiPPv
libdde-file-manager.so.1:_ZN9DFileMenu11qt_metacastEPKc
libdde-file-manager.so.1:_ZN9DFileMenu12setEventDataERK4DUrlRK5QListIS0_EyPK7QObject
libdde-file-manager.so.1:_ZN9DFileMenu20setIgnoreMenuActionsERK4QSetIN9DFMGlobal10MenuActionEE
libdde-file-manager.so.1:_ZN9DFileMenu4execEv
libdde-file-manager.so.1:_ZN9DFileMenuC1EP7QWidget
libdde-file-manager.so.1:_ZN9DFileMenuC2EP7QWidget
libdde-file-manager.so.1:_ZN9DFileView10moveCursorEN17QAbstractItemView12CursorActionE6QFlagsIN2Qt16KeyboardModifierEE
libdde-file-manager.so.1:_ZN9DFileView10setFiltersE6QFlagsIN4QDir6FilterEE
libdde-file-manager.so.1:_ZN9DFileView10setRootUrlERK4DUrl
libdde-file-manager.so.1:_ZN9DFileView10sortByRoleEiN2Qt9SortOrderE
libdde-file-manager.so.1:_ZN9DFileView10wheelEventEP11QWheelEvent
libdde-file-manager.so.1:_ZN9DFileView11dataChangedERK11QModelIndexS2_RK7QVectorIiE
libdde-file-manager.so.1:_ZN9DFileView11eventFilterEP7QObjectP6QEvent
libdde-file-manager.so.1:_ZN9DFileView11qt_metacallEN11QMetaObject4CallEiPPv
libdde-file-manager.so.1:_ZN9DFileView11qt_metacastEPKc
libdde-file-manager.so.1:_ZN9DFileView11resizeEventEP12QResizeEvent
libdde-file-manager.so.1:_ZN9DFileView11setIconSizeERK5QSize
libdde-file-manager.so.1:_ZN9DFileView11setViewModeENS_8ViewModeE
libdde-file-manager.so.1:_ZN9DFileView12decreaseIconEv
libdde-file-manager.so.1:_ZN9DFileView12focusInEventEP11QFocusEvent
libdde-file-manager.so.1:_ZN9DFileView12increaseIconEv
libdde-file-manager.so.1:_ZN9DFileView12initConnectsEv
libdde-file-manager.so.1:_ZN9DFileView12initDelegateEv
libdde-file-manager.so.1:_ZN9DFileView12rowsInsertedERK11QModelIndexii
libdde-file-manager.so.1:_ZN9DFileView12setRootIndexERK11QModelIndex
libdde-file-manager.so.1:_ZN9DFileView12setSelectionERK5QRect6QFlagsIN19QItemSelectionModel13SelectionFlagEE
libdde-file-manager.so.1:_ZN9DFileView13dragMoveEventEP14QDragMoveEvent
libdde-file-manager.so.1:_ZN9DFileView13keyPressEventEP9QKeyEvent
libdde-file-manager.so.1:_ZN9DFileView13loadViewStateERK4DUrl
libdde-file-manager.so.1:_ZN9DFileView13saveViewStateEv
libdde-file-manager.so.1:_ZN9DFileView14clearHeardViewEv
libdde-file-manager.so.1:_ZN9DFileView14clearSelectionEv
libdde-file-manager.so.1:_ZN9DFileView14dragEnterEventEP15QDragEnterEvent
libdde-file-manager.so.1:_ZN9DFileView14dragLeaveEventEP15QDragLeaveEvent
libdde-file-manager.so.1:_ZN9DFileView14keyboardSearchERK7QString
libdde-file-manager.so.1:_ZN9DFileView14mouseMoveEventEP11QMouseEvent
libdde-file-manager.so.1:_ZN9DFileView14rootUrlChangedERK4DUrl
libdde-file-manager.so.1:_ZN9DFileView14setColumnWidthEii
libdde-file-manager.so.1:_ZN9DFileView14setNameFiltersERK11QStringList
libdde-file-manager.so.1:_ZN9DFileView14showNormalMenuERK11QModelIndexRK6QFlagsIN2Qt8ItemFlagEE
libdde-file-manager.so.1:_ZN9DFileView14switchViewModeENS_8ViewModeE
libdde-file-manager.so.1:_ZN9DFileView15mousePressEventEP11QMouseEvent
libdde-file-manager.so.1:_ZN9DFileView15setContentLabelERK7QString
libdde-file-manager.so.1:_ZN9DFileView15setItemDelegateEP19DStyledItemDelegate
libdde-file-manager.so.1:_ZN9DFileView15updateStatusBarEv
libdde-file-manager.so.1:_ZN9DFileView15viewModeChangedENS_8ViewModeE
libdde-file-manager.so.1:_ZN9DFileView16contextMenuEventEP17QContextMenuEvent
libdde-file-manager.so.1:_ZN9DFileView16onRootUrlDeletedERK4DUrl
libdde-file-manager.so.1:_ZN9DFileView16updateGeometriesEv
libdde-file-manager.so.1:_ZN9DFileView16viewStateChangedEv
libdde-file-manager.so.1:_ZN9DFileView17handleDataChangedERK11QModelIndexS2_RK7QVectorIiE
libdde-file-manager.so.1:_ZN9DFileView17mouseReleaseEventEP11QMouseEvent
libdde-file-manager.so.1:_ZN9DFileView17onRowCountChangedEv
libdde-file-manager.so.1:_ZN9DFileView17showEmptyAreaMenuERK6QFlagsIN2Qt8ItemFlagEE
libdde-file-manager.so.1:_ZN9DFileView17updateColumnWidthEv
libdde-file-manager.so.1:_ZN9DFileView18setDefaultViewModeENS_8ViewModeE
libdde-file-manager.so.1:_ZN9DFileView18updateContentLabelEv
libdde-file-manager.so.1:_ZN9DFileView19onModelStateChangedEi
libdde-file-manager.so.1:_ZN9DFileView20delayUpdateStatusBarEv
libdde-file-manager.so.1:_ZN9DFileView20rowsAboutToBeRemovedERK11QModelIndexii
libdde-file-manager.so.1:_ZN9DFileView20updateToolBarActionsEP7QWidget7QString
libdde-file-manager.so.1:_ZN9DFileView21openIndexByOpenActionERKiRK11QModelIndex
libdde-file-manager.so.1:_ZN9DFileView21sortByActionTriggeredEP7QAction
libdde-file-manager.so.1:_ZN9DFileView22onSortIndicatorChangedEiN2Qt9SortOrderE
libdde-file-manager.so.1:_ZN9DFileView22setAdvanceSearchFilterERK4QMapIi8QVariantEbb
libdde-file-manager.so.1:_ZN9DFileView22setIconSizeBySizeIndexERKi
libdde-file-manager.so.1:_ZN9DFileView22setMenuActionBlacklistERK4QSetIN9DFMGlobal10MenuActionEE
libdde-file-manager.so.1:_ZN9DFileView22setMenuActionWhitelistERK4QSetIN9DFMGlobal10MenuActionEE
libdde-file-manager.so.1:_ZN9DFileView22updateHorizontalOffsetEv
libdde-file-manager.so.1:_ZN9DFileView22updateModelActiveIndexEv
libdde-file-manager.so.1:_ZN9DFileView23onShowHiddenFileChangedEv
libdde-file-manager.so.1:_ZN9DFileView23openWithActionTriggeredEP7QAction
libdde-file-manager.so.1:_ZN9DFileView24dislpayAsActionTriggeredEP7QAction
libdde-file-manager.so.1:_ZN9DFileView24setEnabledSelectionModesERK4QSetIN17QAbstractItemView13SelectionModeEE
libdde-file-manager.so.1:_ZN9DFileView26popupHeaderViewContextMenuERK6QPoint
libdde-file-manager.so.1:_ZN9DFileView28updateListHeaderViewPropertyEv
libdde-file-manager.so.1:_ZN9DFileView2cdERK4DUrl
libdde-file-manager.so.1:_ZN9DFileView30updateExtendHeaderViewPropertyEv
libdde-file-manager.so.1:_ZN9DFileView4cdUpEv
libdde-file-manager.so.1:_ZN9DFileView4editERK11QModelIndexN17QAbstractItemView11EditTriggerEP6QEvent
libdde-file-manager.so.1:_ZN9DFileView5eventEP6QEvent
libdde-file-manager.so.1:_ZN9DFileView5resetEv
libdde-file-manager.so.1:_ZN9DFileView6initUIEv
libdde-file-manager.so.1:_ZN9DFileView6selectERK5QListI4DUrlE
libdde-file-manager.so.1:_ZN9DFileView7refreshEv
libdde-file-manager.so.1:_ZN9DFileView9dropEventEP10QDropEvent
libdde-file-manager.so.1:_ZN9DFileView9freshViewEv
libdde-file-manager.so.1:_ZN9DFileView9initModelEv
libdde-file-manager.so.1:_ZN9DFileView9openIndexERK11QModelIndex
libdde-file-manager.so.1:_ZN9DFileView9showEventEP10QShowEvent
libdde-file-manager.so.1:_ZN9DFileViewC1EP7QWidget
libdde-file-manager.so.1:_ZN9DFileViewC2EP7QWidget
libdde-file-manager.so.1:_ZN9DFileViewD0Ev
libdde-file-manager.so.1:_ZN9DFileViewD1Ev
libdde-file-manager.so.1:_ZN9DFileViewD2Ev
libdde-file-manager.so.1:_ZN9FileUtils10filesCountERK7QString
libdde-file-manager.so.1:_ZN9FileUtils10formatSizeExbii11QStringList
libdde-file-manager.so.1:_ZN9FileUtils10runCommandERK7QStringRK11QStringList
libdde-file-manager.so.1:_ZN9FileUtils10umountAVFSEv
libdde-file-manager.so.1:_ZN9FileUtils12isFileExistsERK7QString
libdde-file-manager.so.1:_ZN9FileUtils13getRealSuffixERK7QString
libdde-file-manager.so.1:_ZN9FileUtils13recurseFolderERK7QStringS2_P11QStringList
libdde-file-manager.so.1:_ZN9FileUtils13removeRecurseERK7QStringS2_
libdde-file-manager.so.1:_ZN9FileUtils13searchAppIconERK11DesktopFileRK5QIcon
libdde-file-manager.so.1:_ZN9FileUtils13setBackgroundERK7QString
libdde-file-manager.so.1:_ZN9FileUtils13writeTextFileERK7QStringS2_
libdde-file-manager.so.1:_ZN9FileUtils14getFileContentERK7QString
libdde-file-manager.so.1:_ZN9FileUtils14isFileRunnableERK7QString
libdde-file-manager.so.1:_ZN9FileUtils14launchAppByGioERK7QStringRK11QStringList
libdde-file-manager.so.1:_ZN9FileUtils14newDocmentNameE7QStringRKS0_S2_
libdde-file-manager.so.1:_ZN9FileUtils14openFilesByAppERK7QStringRK11QStringList
libdde-file-manager.so.1:_ZN9FileUtils14searchMimeIconE7QStringRK5QIcon
libdde-file-manager.so.1:_ZN9FileUtils15diskUsageStringExx
libdde-file-manager.so.1:_ZN9FileUtils15getApplicationsEv
libdde-file-manager.so.1:_ZN9FileUtils15getFileMimetypeERK7QString
libdde-file-manager.so.1:_ZN9FileUtils15imageFormatNameEN6QImage6FormatE
libdde-file-manager.so.1:_ZN9FileUtils15isGvfsMountFileERK7QString
libdde-file-manager.so.1:_ZN9FileUtils15launchAppByDBusERK7QStringRK11QStringList
libdde-file-manager.so.1:_ZN9FileUtils16getMenuExtensionERK5QListI4DUrlE
libdde-file-manager.so.1:_ZN9FileUtils16getMimeTypeByGIOERK7QString
libdde-file-manager.so.1:_ZN9FileUtils16isFileExecutableERK7QString
libdde-file-manager.so.1:_ZN9FileUtils17isFileManagerSelfERK7QString
libdde-file-manager.so.1:_ZN9FileUtils17openExcutableFileERK7QStringi
libdde-file-manager.so.1:_ZN9FileUtils17searchGenericIconERK7QStringRK5QIcon
libdde-file-manager.so.1:_ZN9FileUtils18isExecutableScriptERK7QString
libdde-file-manager.so.1:_ZN9FileUtils19defaultTerminalPathEv
libdde-file-manager.so.1:_ZN9FileUtils19getApplicationNamesEv
libdde-file-manager.so.1:_ZN9FileUtils19getKernelParametersEv
libdde-file-manager.so.1:_ZN9FileUtils19writeJsonObjectFileERK7QStringRK11QJsonObject
libdde-file-manager.so.1:_ZN9FileUtils19writeJsonnArrayFileERK7QStringRK10QJsonArray
libdde-file-manager.so.1:_ZN9FileUtils20getJsonArrayFromFileERK7QString
libdde-file-manager.so.1:_ZN9FileUtils21getJsonObjectFromFileERK7QString
libdde-file-manager.so.1:_ZN9FileUtils22getInternetShortcutUrlERK7QString
libdde-file-manager.so.1:_ZN9FileUtils23openExcutableScriptFileERK7QStringi
libdde-file-manager.so.1:_ZN9FileUtils24isFileWindowsUrlShortcutERK7QString
libdde-file-manager.so.1:_ZN9FileUtils25cpTemplateFileToTargetDirERK7QStringS2_S2_y
libdde-file-manager.so.1:_ZN9FileUtils26migrateConfigFileFromCacheERK7QString
libdde-file-manager.so.1:_ZN9FileUtils27addExecutableFlagAndExecuseERK7QStringi
libdde-file-manager.so.1:_ZN9FileUtils32shouldAskUserToAddExecutableFlagERK7QString
libdde-file-manager.so.1:_ZN9FileUtils3md5EP5QFileRK7QString
libdde-file-manager.so.1:_ZN9FileUtils3md5ERK7QString
libdde-file-manager.so.1:_ZN9FileUtils8openFileERK7QString
libdde-file-manager.so.1:_ZN9FileUtils9isArchiveERK7QString
libdde-file-manager.so.1:_ZN9FileUtils9launchAppERK7QStringRK11QStringList
libdde-file-manager.so.1:_ZN9FileUtils9mountAVFSEv
libdde-file-manager.so.1:_ZN9FileUtils9totalSizeERK5QListI4DUrlE
libdde-file-manager.so.1:_ZN9FileUtils9totalSizeERK5QListI4DUrlERKxRb
libdde-file-manager.so.1:_ZN9FileUtils9totalSizeERK7QString
libdde-file-manager.so.1:_ZN9QDiskInfo11getDiskInfoERK17DAbstractFileInfo
libdde-file-manager.so.1:_ZN9QDiskInfo11setIconNameERK7QString
libdde-file-manager.so.1:_ZN9QDiskInfo12setCan_ejectEb
libdde-file-manager.so.1:_ZN9QDiskInfo12setCan_mountEb
libdde-file-manager.so.1:_ZN9QDiskInfo12setRead_onlyEb
libdde-file-manager.so.1:_ZN9QDiskInfo13setHas_volumeEb
libdde-file-manager.so.1:_ZN9QDiskInfo14setCan_unmountEb
libdde-file-manager.so.1:_ZN9QDiskInfo14setUnix_deviceERK7QString
libdde-file-manager.so.1:_ZN9QDiskInfo15setIs_removableEb
libdde-file-manager.so.1:_ZN9QDiskInfo16setId_filesystemERK7QString
libdde-file-manager.so.1:_ZN9QDiskInfo17setIsNativeCustomEb
libdde-file-manager.so.1:_ZN9QDiskInfo19setDefault_locationERK7QString
libdde-file-manager.so.1:_ZN9QDiskInfo19setMounted_root_uriERK7QString
libdde-file-manager.so.1:_ZN9QDiskInfo20setDrive_unix_deviceERK7QString
libdde-file-manager.so.1:_ZN9QDiskInfo22setActivation_root_uriERK7QString
libdde-file-manager.so.1:_ZN9QDiskInfo24updateGvfsFileSystemInfoEv
libdde-file-manager.so.1:_ZN9QDiskInfo5setIdERK7QString
libdde-file-manager.so.1:_ZN9QDiskInfo7isValidEv
libdde-file-manager.so.1:_ZN9QDiskInfo7setFreeERKy
libdde-file-manager.so.1:_ZN9QDiskInfo7setNameERK7QString
libdde-file-manager.so.1:_ZN9QDiskInfo7setTypeERK7QString
libdde-file-manager.so.1:_ZN9QDiskInfo7setUsedERKy
libdde-file-manager.so.1:_ZN9QDiskInfo7setUuidERK7QString
libdde-file-manager.so.1:_ZN9QDiskInfo8setTotalERKy
libdde-file-manager.so.1:_ZN9QDiskInfoC1Ev
libdde-file-manager.so.1:_ZN9QDiskInfoC2Ev
libdde-file-manager.so.1:_ZN9RequestEP11qt_metacallEN11QMetaObject4CallEiPPv
libdde-file-manager.so.1:_ZN9RequestEP11qt_metacastEPKc
libdde-file-manager.so.1:_ZN9RequestEP15cancelRequestEPEP16DFileInfoPrivate
libdde-file-manager.so.1:_ZN9RequestEP16processEPChangedERK4DUrlP16DFileInfoPrivateRK5QHashI7QString8QVariantE
libdde-file-manager.so.1:_ZN9RequestEP17requestEPFinishedERK4DUrlRK5QHashI7QString8QVariantE
libdde-file-manager.so.1:_ZN9RequestEP3runEv
libdde-file-manager.so.1:_ZN9RequestEP8instanceEv
libdde-file-manager.so.1:_ZN9RequestEP9requestEPERK4DUrlP16DFileInfoPrivate
libdde-file-manager.so.1:_ZN9RequestEPC1EP7QObject
libdde-file-manager.so.1:_ZN9RequestEPC2EP7QObject
libdde-file-manager.so.1:_ZN9RequestEPD0Ev
libdde-file-manager.so.1:_ZN9RequestEPD1Ev
libdde-file-manager.so.1:_ZN9RequestEPD2Ev
libdde-file-manager.so.1:_ZN9ShareInfo10setCommentERK7QString
libdde-file-manager.so.1:_ZN9ShareInfo11setGuest_okERK7QString
libdde-file-manager.so.1:_ZN9ShareInfo12setIsGuestOkEb
libdde-file-manager.so.1:_ZN9ShareInfo12setShareNameERK7QString
libdde-file-manager.so.1:_ZN9ShareInfo13setIsWritableEb
libdde-file-manager.so.1:_ZN9ShareInfo16setUsershare_aclERK7QString
libdde-file-manager.so.1:_ZN9ShareInfo7isValidEv
libdde-file-manager.so.1:_ZN9ShareInfo7setPathERK7QString
libdde-file-manager.so.1:_ZN9ShareInfoC1E7QStringS0_S0_bb
libdde-file-manager.so.1:_ZN9ShareInfoC2E7QStringS0_S0_bb
libdde-file-manager.so.1:_ZN9ShareInfoD1Ev
libdde-file-manager.so.1:_ZN9ShareInfoD2Ev
libdde-file-manager.so.1:_ZN9TitleLine11qt_metacallEN11QMetaObject4CallEiPPv
libdde-file-manager.so.1:_ZN9TitleLine11qt_metacastEPKc
libdde-file-manager.so.1:_ZN9TitleLine11resizeEventEP12QResizeEvent
libdde-file-manager.so.1:_ZN9TitleLine6initUIEv
libdde-file-manager.so.1:_ZN9TitleLineC1ERK7QStringP7QWidget
libdde-file-manager.so.1:_ZN9TitleLineC2ERK7QStringP7QWidget
libdde-file-manager.so.1:_ZNK10BaseDialog10metaObjectEv
libdde-file-manager.so.1:_ZNK10BlurWidget10metaObjectEv
libdde-file-manager.so.1:_ZNK10DRenameBar10metaObjectEv
libdde-file-manager.so.1:_ZNK10DRenameBar15getCurrentStateEv
libdde-file-manager.so.1:_ZNK10DStatusBar10metaObjectEv
libdde-file-manager.so.1:_ZNK10DStatusBar12acceptButtonEv
libdde-file-manager.so.1:_ZNK10DStatusBar12rejectButtonEv
libdde-file-manager.so.1:_ZNK10DStatusBar13scalingSliderEv
libdde-file-manager.so.1:_ZNK10DStatusBar4modeEv
libdde-file-manager.so.1:_ZNK10DStatusBar8comboBoxEv
libdde-file-manager.so.1:_ZNK10DStatusBar8lineEditEv
libdde-file-manager.so.1:_ZNK10DStatusBar8sizeHintEv
libdde-file-manager.so.1:_ZNK10ExtendView10metaObjectEv
libdde-file-manager.so.1:_ZNK10Properties7getKeysEv
libdde-file-manager.so.1:_ZNK10Properties8containsERK7QString
libdde-file-manager.so.1:_ZNK10Subscriber8eventKeyEv
libdde-file-manager.so.1:_ZNK10TagManager10metaObjectEv
libdde-file-manager.so.1:_ZNK10TagManager11getTagColorERK5QListI7QStringE
libdde-file-manager.so.1:_ZNK10TagManager15getTagColorNameERK7QString
libdde-file-manager.so.1:_ZNK10TagManager19getColorByColorNameERK7QString
libdde-file-manager.so.1:_ZNK10TagManager19getColorNameByColorERK6QColor
libdde-file-manager.so.1:_ZNK10TagManager21allTagOfDefaultColorsEv
libdde-file-manager.so.1:_ZNK10TagManager21getColorByDisplayNameERK7QString
libdde-file-manager.so.1:_ZNK10TagManager22getTagNameThroughColorERK6QColor
libdde-file-manager.so.1:_ZNK11DDetailView10metaObjectEv
libdde-file-manager.so.1:_ZNK11DDragWidget10metaObjectEv
libdde-file-manager.so.1:_ZNK11DFMSplitter10metaObjectEv
libdde-file-manager.so.1:_ZNK11DFileDialog10acceptModeEv
libdde-file-manager.so.1:_ZNK11DFileDialog10metaObjectEv
libdde-file-manager.so.1:_ZNK11DFileDialog10testOptionEN11QFileDialog6OptionE
libdde-file-manager.so.1:_ZNK11DFileDialog11getFileViewEv
libdde-file-manager.so.1:_ZNK11DFileDialog11nameFiltersEv
libdde-file-manager.so.1:_ZNK11DFileDialog12directoryUrlEv
libdde-file-manager.so.1:_ZNK11DFileDialog12hideOnAcceptEv
libdde-file-manager.so.1:_ZNK11DFileDialog12selectedUrlsEv
libdde-file-manager.so.1:_ZNK11DFileDialog13selectedFilesEv
libdde-file-manager.so.1:_ZNK11DFileDialog18selectedNameFilterEv
libdde-file-manager.so.1:_ZNK11DFileDialog20getCustomWidgetValueENS_16CustomWidgetTypeERK7QString
libdde-file-manager.so.1:_ZNK11DFileDialog21allCustomWidgetsValueENS_16CustomWidgetTypeE
libdde-file-manager.so.1:_ZNK11DFileDialog22modelCurrentNameFilterEv
libdde-file-manager.so.1:_ZNK11DFileDialog23selectedNameFilterIndexEv
libdde-file-manager.so.1:_ZNK11DFileDialog6filterEv
libdde-file-manager.so.1:_ZNK11DFileDialog7optionsEv
libdde-file-manager.so.1:_ZNK11DFileDialog8viewModeEv
libdde-file-manager.so.1:_ZNK11DFileDialog9directoryEv
libdde-file-manager.so.1:_ZNK11DFileDialog9labelTextEN11QFileDialog11DialogLabelE
libdde-file-manager.so.1:_ZNK11DFileDialog9statusBarEv
libdde-file-manager.so.1:_ZNK11DTaskDialog10metaObjectEv
libdde-file-manager.so.1:_ZNK11DThreadUtil17FunctionCallProxy10metaObjectEv
libdde-file-manager.so.1:_ZNK11DesktopFile11getDeepinIdEv
libdde-file-manager.so.1:_ZNK11DesktopFile11getFileNameEv
libdde-file-manager.so.1:_ZNK11DesktopFile11getMimeTypeEv
libdde-file-manager.so.1:_ZNK11DesktopFile12getLocalNameEv
libdde-file-manager.so.1:_ZNK11DesktopFile13getCategoriesEv
libdde-file-manager.so.1:_ZNK11DesktopFile14getDisplayNameEv
libdde-file-manager.so.1:_ZNK11DesktopFile15getDeepinVendorEv
libdde-file-manager.so.1:_ZNK11DesktopFile15getPureFileNameEv
libdde-file-manager.so.1:_ZNK11DesktopFile7getExecEv
libdde-file-manager.so.1:_ZNK11DesktopFile7getIconEv
libdde-file-manager.so.1:_ZNK11DesktopFile7getNameEv
libdde-file-manager.so.1:_ZNK11DesktopFile7getTypeEv
libdde-file-manager.so.1:_ZNK11DesktopFile9getNoShowEv
libdde-file-manager.so.1:_ZNK11NetworkNode11displayNameEv
libdde-file-manager.so.1:_ZNK11NetworkNode3urlEv
libdde-file-manager.so.1:_ZNK11NetworkNode8iconTypeEv
libdde-file-manager.so.1:_ZNK11PathManager10metaObjectEv
libdde-file-manager.so.1:_ZNK11PathManager12isSystemPathE7QString
libdde-file-manager.so.1:_ZNK11PathManager14systemPathsMapEv
libdde-file-manager.so.1:_ZNK11PathManager24getSystemPathDisplayNameE7QString
libdde-file-manager.so.1:_ZNK11PathManager25systemPathDisplayNamesMapEv
libdde-file-manager.so.1:_ZNK11TagFileInfo10isWritableEv
libdde-file-manager.so.1:_ZNK11TagFileInfo11mimeDataUrlEv
libdde-file-manager.so.1:_ZNK11TagFileInfo11permissionsEv
libdde-file-manager.so.1:_ZNK11TagFileInfo14canIteratorDirEv
libdde-file-manager.so.1:_ZNK11TagFileInfo14menuActionListEN17DAbstractFileInfo8MenuTypeE
libdde-file-manager.so.1:_ZNK11TagFileInfo15userColumnRolesEv
libdde-file-manager.so.1:_ZNK11TagFileInfo17redirectedFileUrlEv
libdde-file-manager.so.1:_ZNK11TagFileInfo18extensionPropertysEv
libdde-file-manager.so.1:_ZNK11TagFileInfo18goToUrlWhenDeletedEv
libdde-file-manager.so.1:_ZNK11TagFileInfo19getUrlByNewFileNameERK7QString
libdde-file-manager.so.1:_ZNK11TagFileInfo20fileItemDisableFlagsEv
libdde-file-manager.so.1:_ZNK11TagFileInfo20supportedDragActionsEv
libdde-file-manager.so.1:_ZNK11TagFileInfo20supportedDropActionsEv
libdde-file-manager.so.1:_ZNK11TagFileInfo21canRedirectionFileUrlEv
libdde-file-manager.so.1:_ZNK11TagFileInfo5isDirEv
libdde-file-manager.so.1:_ZNK11TagFileInfo6existsEv
libdde-file-manager.so.1:_ZNK11TagFileInfo7canDropEv
libdde-file-manager.so.1:_ZNK11TagFileInfo7isTagedEv
libdde-file-manager.so.1:_ZNK11TagFileInfo8iconNameEv
libdde-file-manager.so.1:_ZNK11TagFileInfo9canRenameEv
libdde-file-manager.so.1:_ZNK11TagFileInfo9parentUrlEv
libdde-file-manager.so.1:_ZNK12AVFSFileInfo10isWritableEv
libdde-file-manager.so.1:_ZNK12AVFSFileInfo11toLocalFileEv
libdde-file-manager.so.1:_ZNK12AVFSFileInfo14canIteratorDirEv
libdde-file-manager.so.1:_ZNK12AVFSFileInfo14menuActionListEN17DAbstractFileInfo8MenuTypeE
libdde-file-manager.so.1:_ZNK12AVFSFileInfo5isDirEv
libdde-file-manager.so.1:_ZNK12AVFSFileInfo8canShareEv
libdde-file-manager.so.1:_ZNK12AVFSFileInfo9canRenameEv
libdde-file-manager.so.1:_ZNK12AVFSIterator3urlEv
libdde-file-manager.so.1:_ZNK12AVFSIterator7fileUrlEv
libdde-file-manager.so.1:_ZNK12AVFSIterator7hasNextEv
libdde-file-manager.so.1:_ZNK12AVFSIterator8fileInfoEv
libdde-file-manager.so.1:_ZNK12AVFSIterator8fileNameEv
libdde-file-manager.so.1:_ZNK12ComputerView10metaObjectEv
libdde-file-manager.so.1:_ZNK12ComputerView6viewIdEv
libdde-file-manager.so.1:_ZNK12ComputerView6widgetEv
libdde-file-manager.so.1:_ZNK12ComputerView7rootUrlEv
libdde-file-manager.so.1:_ZNK12DFileService10fileCopiedERK4DUrlS2_
libdde-file-manager.so.1:_ZNK12DFileService10fileOpenedERK4DUrl
libdde-file-manager.so.1:_ZNK12DFileService10metaObjectEv
libdde-file-manager.so.1:_ZNK12DFileService10renameFileEPK7QObjectRK4DUrlS5_b
libdde-file-manager.so.1:_ZNK12DFileService11deleteFilesEPK7QObjectRK5QListI4DUrlEbbb
libdde-file-manager.so.1:_ZNK12DFileService11fileDeletedERK4DUrl
libdde-file-manager.so.1:_ZNK12DFileService11fileRenamedERK4DUrlS2_
libdde-file-manager.so.1:_ZNK12DFileService11getChildrenEPK7QObjectRK4DUrlRK11QStringList6QFlagsIN4QDir6FilterEES9_IN12QDirIterator12IteratorFlagEEb
libdde-file-manager.so.1:_ZNK12DFileService11moveToTrashEPK7QObjectRK5QListI4DUrlE
libdde-file-manager.so.1:_ZNK12DFileService11restoreFileEPK7QObjectRK5QListI4DUrlE
libdde-file-manager.so.1:_ZNK12DFileService11setFileTagsEPK7QObjectRK4DUrlRK5QListI7QStringE
libdde-file-manager.so.1:_ZNK12DFileService13addToBookmarkEPK7QObjectRK4DUrl
libdde-file-manager.so.1:_ZNK12DFileService13compressFilesEPK7QObjectRK5QListI4DUrlE
libdde-file-manager.so.1:_ZNK12DFileService13createSymlinkEPK7QObjectRK4DUrl
libdde-file-manager.so.1:_ZNK12DFileService13createSymlinkEPK7QObjectRK4DUrlS5_
libdde-file-manager.so.1:_ZNK12DFileService13openFileByAppEPK7QObjectRK7QStringRK4DUrl
libdde-file-manager.so.1:_ZNK12DFileService13sendToDesktopEPK7QObjectRK5QListI4DUrlE
libdde-file-manager.so.1:_ZNK12DFileService13unShareFolderEPK7QObjectRK4DUrl
libdde-file-manager.so.1:_ZNK12DFileService14createFileInfoEPK7QObjectRK4DUrl
libdde-file-manager.so.1:_ZNK12DFileService14decompressFileEPK7QObjectRK5QListI4DUrlE
libdde-file-manager.so.1:_ZNK12DFileService14getChildrenJobEPK7QObjectRK4DUrlRK11QStringList6QFlagsIN4QDir6FilterEES9_IN12QDirIterator12IteratorFlagEEb
libdde-file-manager.so.1:_ZNK12DFileService14openInTerminalEPK7QObjectRK4DUrl
libdde-file-manager.so.1:_ZNK12DFileService14removeBookmarkEPK7QObjectRK4DUrl
libdde-file-manager.so.1:_ZNK12DFileService14setPermissionsEPK7QObjectRK4DUrl6QFlagsIN11QFileDevice10PermissionEE
libdde-file-manager.so.1:_ZNK12DFileService15makeTagsOfFilesEPK7QObjectRK5QListI4DUrlERK11QStringList4QSetI7QStringE
libdde-file-manager.so.1:_ZNK12DFileService16fileMovedToTrashERK4DUrlS2_
libdde-file-manager.so.1:_ZNK12DFileService16openFileLocationEPK7QObjectRK4DUrl
libdde-file-manager.so.1:_ZNK12DFileService16removeTagsOfFileEPK7QObjectRK4DUrlRK5QListI7QStringE
libdde-file-manager.so.1:_ZNK12DFileService17createDirIteratorEPK7QObjectRK4DUrlRK11QStringList6QFlagsIN4QDir6FilterEES9_IN12QDirIterator12IteratorFlagEEb
libdde-file-manager.so.1:_ZNK12DFileService17createFileWatcherEPK7QObjectRK4DUrlPS0_
libdde-file-manager.so.1:_ZNK12DFileService18decompressFileHereEPK7QObjectRK5QListI4DUrlE
libdde-file-manager.so.1:_ZNK12DFileService19getTagsThroughFilesEPK7QObjectRK5QListI4DUrlE
libdde-file-manager.so.1:_ZNK12DFileService20multiFilesCustomNameERK5QListI4DUrlERK5QPairI7QStringS6_E
libdde-file-manager.so.1:_ZNK12DFileService20pasteFileByClipboardEPK7QObjectRK4DUrl
libdde-file-manager.so.1:_ZNK12DFileService21multiFilesReplaceNameERK5QListI4DUrlERK5QPairI7QStringS6_E
libdde-file-manager.so.1:_ZNK12DFileService21setExtensionPropertysEPK7QObjectRK4DUrlRK5QHashI7QString8QVariantE
libdde-file-manager.so.1:_ZNK12DFileService21writeFilesToClipboardEPK7QObjectN9DFMGlobal15ClipboardActionERK5QListI4DUrlE
libdde-file-manager.so.1:_ZNK12DFileService22multiFilesAddStrToNameERK5QListI4DUrlERK5QPairI7QStringNS_12AddTextFlagsEE
libdde-file-manager.so.1:_ZNK12DFileService23laterRequestSelectFilesERK19DFMUrlListBaseEvent
libdde-file-manager.so.1:_ZNK12DFileService5mkdirEPK7QObjectRK4DUrl
libdde-file-manager.so.1:_ZNK12DFileService8openFileEPK7QObjectRK4DUrl
libdde-file-manager.so.1:_ZNK12DFileService9pasteFileEPK7QObjectN9DFMGlobal15ClipboardActionERK4DUrlRK5QListIS5_E
libdde-file-manager.so.1:_ZNK12DFileService9touchFileEPK7QObjectRK4DUrl
libdde-file-manager.so.1:_ZNK12DFileWatcher10metaObjectEv
libdde-file-manager.so.1:_ZNK12DHoverButton10metaObjectEv
libdde-file-manager.so.1:_ZNK12DQuickSearch10metaObjectEv
libdde-file-manager.so.1:_ZNK12DRoundButton10metaObjectEv
libdde-file-manager.so.1:_ZNK12DRoundButton5colorEv
libdde-file-manager.so.1:_ZNK12DRoundButton9isCheckedEv
libdde-file-manager.so.1:_ZNK12DRoundButton9isHoveredEv
libdde-file-manager.so.1:_ZNK12DStateButton10metaObjectEv
libdde-file-manager.so.1:_ZNK12ExpandedItem10metaObjectEv
libdde-file-manager.so.1:_ZNK12FileIconItem10metaObjectEv
libdde-file-manager.so.1:_ZNK12FileIconItem11borderColorEv
libdde-file-manager.so.1:_ZNK12FileIconItem24editTextStackCurrentItemEv
libdde-file-manager.so.1:_ZNK12FileIconItem7opacityEv
libdde-file-manager.so.1:_ZNK12FileIconItem8sizeHintEv
libdde-file-manager.so.1:_ZNK12NameTextEdit10isCanceledEv
libdde-file-manager.so.1:_ZNK12NameTextEdit10metaObjectEv
libdde-file-manager.so.1:_ZNK12ProgressLine10metaObjectEv
libdde-file-manager.so.1:_ZNK12ProgressLine11roundRadiusEv
libdde-file-manager.so.1:_ZNK12ProgressLine3maxEv
libdde-file-manager.so.1:_ZNK12ProgressLine3minEv
libdde-file-manager.so.1:_ZNK12ProgressLine5valueEv
libdde-file-manager.so.1:_ZNK12TrashManager10cleanTrashEPK7QObject
libdde-file-manager.so.1:_ZNK12TrashManager10metaObjectEv
libdde-file-manager.so.1:_ZNK12TrashManager11deleteFilesERK14QSharedPointerI14DFMDeleteEventE
libdde-file-manager.so.1:_ZNK12TrashManager11moveToTrashERK14QSharedPointerI19DFMMoveToTrashEventE
libdde-file-manager.so.1:_ZNK12TrashManager11restoreFileERK14QSharedPointerI24DFMRestoreFromTrashEventE
libdde-file-manager.so.1:_ZNK12TrashManager14createFileInfoERK14QSharedPointerI22DFMCreateFileInfoEvnetE
libdde-file-manager.so.1:_ZNK12TrashManager17createDirIteratorERK14QSharedPointerI20DFMCreateDiriteratorE
libdde-file-manager.so.1:_ZNK12TrashManager17createFileWatcherERK14QSharedPointerI25DFMCreateFileWatcherEventE
libdde-file-manager.so.1:_ZNK12TrashManager21writeFilesToClipboardERK14QSharedPointerI28DFMWriteUrlsToClipboardEventE
libdde-file-manager.so.1:_ZNK12TrashManager8openFileERK14QSharedPointerI16DFMOpenFileEventE
libdde-file-manager.so.1:_ZNK12TrashManager9pasteFileERK14QSharedPointerI13DFMPasteEventE
libdde-file-manager.so.1:_ZNK13AppController10metaObjectEv
libdde-file-manager.so.1:_ZNK13AppController21hasLaunchAppInterfaceEv
libdde-file-manager.so.1:_ZNK13AppController21startManagerInterfaceEv
libdde-file-manager.so.1:_ZNK13DFMDeviceInfo10filesCountEv
libdde-file-manager.so.1:_ZNK13DFMDeviceInfo10isReadableEv
libdde-file-manager.so.1:_ZNK13DFMDeviceInfo10isWritableEv
libdde-file-manager.so.1:_ZNK13DFMDeviceInfo10totalBytesEv
libdde-file-manager.so.1:_ZNK13DFMDeviceInfo13isValidDeviceEv
libdde-file-manager.so.1:_ZNK13DFMDeviceInfo15fileDisplayNameEv
libdde-file-manager.so.1:_ZNK13DFMDeviceInfo17redirectedFileUrlEv
libdde-file-manager.so.1:_ZNK13DFMDeviceInfo19attachedDeviceConstEv
libdde-file-manager.so.1:_ZNK13DFMDeviceInfo21canRedirectionFileUrlEv
libdde-file-manager.so.1:_ZNK13DFMDeviceInfo4sizeEv
libdde-file-manager.so.1:_ZNK13DFMDeviceInfo5isDirEv
libdde-file-manager.so.1:_ZNK13DFMDeviceInfo6existsEv
libdde-file-manager.so.1:_ZNK13DFMDeviceInfo8fileIconEv
libdde-file-manager.so.1:_ZNK13DFMDeviceInfo8fileNameEv
libdde-file-manager.so.1:_ZNK13DFMDeviceInfo9canRenameEv
libdde-file-manager.so.1:_ZNK13DFMDeviceInfo9freeBytesEv
libdde-file-manager.so.1:_ZNK13DFMDeviceInfo9mediaTypeEv
libdde-file-manager.so.1:_ZNK13DFMDeviceInfo9parentUrlEv
libdde-file-manager.so.1:_ZNK13DFMHeaderView10metaObjectEv
libdde-file-manager.so.1:_ZNK13DFMHeaderView8sizeHintEv
libdde-file-manager.so.1:_ZNK13DFMPasteEvent13handleUrlListEv
libdde-file-manager.so.1:_ZNK13DFMPasteEvent6actionEv
libdde-file-manager.so.1:_ZNK13DFMPasteEvent9targetUrlEv
libdde-file-manager.so.1:_ZNK13DSqliteHandle10metaObjectEv
libdde-file-manager.so.1:_ZNK13DialogManager10metaObjectEv
libdde-file-manager.so.1:_ZNK13DialogManager10taskDialogEv
libdde-file-manager.so.1:_ZNK13JobController10metaObjectEv
libdde-file-manager.so.1:_ZNK13JobController11timeCeilingEv
libdde-file-manager.so.1:_ZNK13JobController12countCeilingEv
libdde-file-manager.so.1:_ZNK13JobController5stateEv
libdde-file-manager.so.1:_ZNK13MountFileInfo8canFetchEv
libdde-file-manager.so.1:_ZNK13PluginManager10metaObjectEv
libdde-file-manager.so.1:_ZNK13PreviewDialog10metaObjectEv
libdde-file-manager.so.1:_ZNK13SearchHistory10metaObjectEv
libdde-file-manager.so.1:_ZNK13SecretManager10metaObjectEv
libdde-file-manager.so.1:_ZNK13ShareFileInfo10isReadableEv
libdde-file-manager.so.1:_ZNK13ShareFileInfo10isWritableEv
libdde-file-manager.so.1:_ZNK13ShareFileInfo11mimeDataUrlEv
libdde-file-manager.so.1:_ZNK13ShareFileInfo14additionalIconEv
libdde-file-manager.so.1:_ZNK13ShareFileInfo14canIteratorDirEv
libdde-file-manager.so.1:_ZNK13ShareFileInfo14menuActionListEN17DAbstractFileInfo8MenuTypeE
libdde-file-manager.so.1:_ZNK13ShareFileInfo15fileDisplayNameEv
libdde-file-manager.so.1:_ZNK13ShareFileInfo17redirectedFileUrlEv
libdde-file-manager.so.1:_ZNK13ShareFileInfo20fileItemDisableFlagsEv
libdde-file-manager.so.1:_ZNK13ShareFileInfo21canRedirectionFileUrlEv
libdde-file-manager.so.1:_ZNK13ShareFileInfo21disableMenuActionListEv
libdde-file-manager.so.1:_ZNK13ShareFileInfo22menuActionByColumnRoleEi
libdde-file-manager.so.1:_ZNK13ShareFileInfo27columnDefaultVisibleForRoleEi
libdde-file-manager.so.1:_ZNK13ShareFileInfo5isDirEv
libdde-file-manager.so.1:_ZNK13ShareFileInfo6existsEv
libdde-file-manager.so.1:_ZNK13ShareFileInfo8isSharedEv
libdde-file-manager.so.1:_ZNK13ShareFileInfo9canRenameEv
libdde-file-manager.so.1:_ZNK13ShareFileInfo9parentUrlEv
libdde-file-manager.so.1:_ZNK13TagController10metaObjectEv
libdde-file-manager.so.1:_ZNK13TagController10renameFileERK14QSharedPointerI14DFMRenameEventE
libdde-file-manager.so.1:_ZNK13TagController11deleteFilesERK14QSharedPointerI14DFMDeleteEventE
libdde-file-manager.so.1:_ZNK13TagController11getChildrenERK14QSharedPointerI20DFMGetChildrensEventE
libdde-file-manager.so.1:_ZNK13TagController11moveToTrashERK14QSharedPointerI19DFMMoveToTrashEventE
libdde-file-manager.so.1:_ZNK13TagController11setFileTagsERK14QSharedPointerI19DFMSetFileTagsEventE
libdde-file-manager.so.1:_ZNK13TagController11shareFolderERK14QSharedPointerI17DFMFileShareEvnetE
libdde-file-manager.so.1:_ZNK13TagController13addToBookmarkERK14QSharedPointerI21DFMAddToBookmarkEventE
libdde-file-manager.so.1:_ZNK13TagController13compressFilesERK14QSharedPointerI16DFMCompressEvnetE
libdde-file-manager.so.1:_ZNK13TagController13createSymlinkERK14QSharedPointerI21DFMCreateSymlinkEventE
libdde-file-manager.so.1:_ZNK13TagController13openFileByAppERK14QSharedPointerI21DFMOpenFileByAppEventE
libdde-file-manager.so.1:_ZNK13TagController13unShareFolderERK14QSharedPointerI23DFMCancelFileShareEventE
libdde-file-manager.so.1:_ZNK13TagController14createFileInfoERK14QSharedPointerI22DFMCreateFileInfoEvnetE
libdde-file-manager.so.1:_ZNK13TagController14decompressFileERK14QSharedPointerI18DFMDecompressEvnetE
libdde-file-manager.so.1:_ZNK13TagController14openInTerminalERK14QSharedPointerI22DFMOpenInTerminalEventE
libdde-file-manager.so.1:_ZNK13TagController14removeBookmarkERK14QSharedPointerI22DFMRemoveBookmarkEventE
libdde-file-manager.so.1:_ZNK13TagController14setPermissionsERK14QSharedPointerI21DFMSetPermissionEventE
libdde-file-manager.so.1:_ZNK13TagController16openFileLocationERK14QSharedPointerI19DFMOpenFileLocationE
libdde-file-manager.so.1:_ZNK13TagController16removeTagsOfFileERK14QSharedPointerI24DFMRemoveTagsOfFileEventE
libdde-file-manager.so.1:_ZNK13TagController17createFileWatcherERK14QSharedPointerI25DFMCreateFileWatcherEventE
libdde-file-manager.so.1:_ZNK13TagController18decompressFileHereERK14QSharedPointerI18DFMDecompressEvnetE
libdde-file-manager.so.1:_ZNK13TagController19getTagsThroughFilesERK14QSharedPointerI27DFMGetTagsThroughFilesEventE
libdde-file-manager.so.1:_ZNK13TagController21writeFilesToClipboardERK14QSharedPointerI28DFMWriteUrlsToClipboardEventE
libdde-file-manager.so.1:_ZNK13TagController8openFileERK14QSharedPointerI16DFMOpenFileEventE
libdde-file-manager.so.1:_ZNK13TagController9pasteFileERK14QSharedPointerI13DFMPasteEventE
libdde-file-manager.so.1:_ZNK13TagTextFormat11borderColorEv
libdde-file-manager.so.1:_ZNK13TagTextFormat6colorsEv
libdde-file-manager.so.1:_ZNK13TagTextFormat8diameterEv
libdde-file-manager.so.1:_ZNK13TrashFileInfo10isReadableEv
libdde-file-manager.so.1:_ZNK13TrashFileInfo10isWritableEv
libdde-file-manager.so.1:_ZNK13TrashFileInfo11mimeDataUrlEv
libdde-file-manager.so.1:_ZNK13TrashFileInfo11permissionsEv
libdde-file-manager.so.1:_ZNK13TrashFileInfo12deletionDateEv
libdde-file-manager.so.1:_ZNK13TrashFileInfo14additionalIconEv
libdde-file-manager.so.1:_ZNK13TrashFileInfo14canIteratorDirEv
libdde-file-manager.so.1:_ZNK13TrashFileInfo14menuActionListEN17DAbstractFileInfo8MenuTypeE
libdde-file-manager.so.1:_ZNK13TrashFileInfo14sourceFilePathEv
libdde-file-manager.so.1:_ZNK13TrashFileInfo14userColumnDataEi
libdde-file-manager.so.1:_ZNK13TrashFileInfo15fileDisplayNameEv
libdde-file-manager.so.1:_ZNK13TrashFileInfo15userColumnRolesEv
libdde-file-manager.so.1:_ZNK13TrashFileInfo15userColumnWidthEiRK12QFontMetrics
libdde-file-manager.so.1:_ZNK13TrashFileInfo18compareFunByColumnEi
libdde-file-manager.so.1:_ZNK13TrashFileInfo18goToUrlWhenDeletedEv
libdde-file-manager.so.1:_ZNK13TrashFileInfo20supportedDragActionsEv
libdde-file-manager.so.1:_ZNK13TrashFileInfo20supportedDropActionsEv
libdde-file-manager.so.1:_ZNK13TrashFileInfo20userColumnChildRolesEi
libdde-file-manager.so.1:_ZNK13TrashFileInfo21disableMenuActionListEv
libdde-file-manager.so.1:_ZNK13TrashFileInfo21userColumnDisplayNameEi
libdde-file-manager.so.1:_ZNK13TrashFileInfo22menuActionByColumnRoleEi
libdde-file-manager.so.1:_ZNK13TrashFileInfo22subtitleForEmptyFloderEv
libdde-file-manager.so.1:_ZNK13TrashFileInfo27columnDefaultVisibleForRoleEi
libdde-file-manager.so.1:_ZNK13TrashFileInfo32sortSubMenuActionUserColumnRolesEv
libdde-file-manager.so.1:_ZNK13TrashFileInfo5isDirEv
libdde-file-manager.so.1:_ZNK13TrashFileInfo6existsEv
libdde-file-manager.so.1:_ZNK13TrashFileInfo7restoreEv
libdde-file-manager.so.1:_ZNK13TrashFileInfo8canShareEv
libdde-file-manager.so.1:_ZNK13TrashFileInfo9canRenameEv
libdde-file-manager.so.1:_ZNK13TrashFileInfo9originUrlEv
libdde-file-manager.so.1:_ZNK13UDiskListener10metaObjectEv
libdde-file-manager.so.1:_ZNK13UDiskListener10renameFileERK14QSharedPointerI14DFMRenameEventE
libdde-file-manager.so.1:_ZNK13UDiskListener11getChildrenERK14QSharedPointerI20DFMGetChildrensEventE
libdde-file-manager.so.1:_ZNK13UDiskListener14createFileInfoERK14QSharedPointerI22DFMCreateFileInfoEvnetE
libdde-file-manager.so.1:_ZNK13UDiskListener14isDeviceFolderERK7QString
libdde-file-manager.so.1:_ZNK13UDiskListener16isInDeviceFolderERK7QString
libdde-file-manager.so.1:_ZNK13UDiskListener17createFileWatcherERK14QSharedPointerI25DFMCreateFileWatcherEventE
libdde-file-manager.so.1:_ZNK13UDiskListener25isInRemovableDeviceFolderERK7QString
libdde-file-manager.so.1:_ZNK13WindowManager10metaObjectEv
libdde-file-manager.so.1:_ZNK13WindowManager14enableAutoQuitEv
libdde-file-manager.so.1:_ZNK14DFMDeleteEvent5forceEv
libdde-file-manager.so.1:_ZNK14DFMDeleteEvent6silentEv
libdde-file-manager.so.1:_ZNK14DFMRenameEvent13handleUrlListEv
libdde-file-manager.so.1:_ZNK14DFMRenameEvent6silentEv
libdde-file-manager.so.1:_ZNK14FileController10metaObjectEv
libdde-file-manager.so.1:_ZNK14FileController10renameFileERK14QSharedPointerI14DFMRenameEventE
libdde-file-manager.so.1:_ZNK14FileController11deleteFilesERK14QSharedPointerI14DFMDeleteEventE
libdde-file-manager.so.1:_ZNK14FileController11moveToTrashERK14QSharedPointerI19DFMMoveToTrashEventE
libdde-file-manager.so.1:_ZNK14FileController11setFileTagsERK14QSharedPointerI19DFMSetFileTagsEventE
libdde-file-manager.so.1:_ZNK14FileController11shareFolderERK14QSharedPointerI17DFMFileShareEvnetE
libdde-file-manager.so.1:_ZNK14FileController13addToBookmarkERK14QSharedPointerI21DFMAddToBookmarkEventE
libdde-file-manager.so.1:_ZNK14FileController13compressFilesERK14QSharedPointerI16DFMCompressEvnetE
libdde-file-manager.so.1:_ZNK14FileController13createSymlinkERK14QSharedPointerI21DFMCreateSymlinkEventE
libdde-file-manager.so.1:_ZNK14FileController13openFileByAppERK14QSharedPointerI21DFMOpenFileByAppEventE
libdde-file-manager.so.1:_ZNK14FileController13unShareFolderERK14QSharedPointerI23DFMCancelFileShareEventE
libdde-file-manager.so.1:_ZNK14FileController14createFileInfoERK14QSharedPointerI22DFMCreateFileInfoEvnetE
libdde-file-manager.so.1:_ZNK14FileController14decompressFileERK14QSharedPointerI18DFMDecompressEvnetE
libdde-file-manager.so.1:_ZNK14FileController14openInTerminalERK14QSharedPointerI22DFMOpenInTerminalEventE
libdde-file-manager.so.1:_ZNK14FileController14removeBookmarkERK14QSharedPointerI22DFMRemoveBookmarkEventE
libdde-file-manager.so.1:_ZNK14FileController14setPermissionsERK14QSharedPointerI21DFMSetPermissionEventE
libdde-file-manager.so.1:_ZNK14FileController16createFileDeviceERK14QSharedPointerI15DFMUrlBaseEventE
libdde-file-manager.so.1:_ZNK14FileController16removeTagsOfFileERK14QSharedPointerI24DFMRemoveTagsOfFileEventE
libdde-file-manager.so.1:_ZNK14FileController17createDirIteratorERK14QSharedPointerI20DFMCreateDiriteratorE
libdde-file-manager.so.1:_ZNK14FileController17createFileHandlerERK14QSharedPointerI15DFMUrlBaseEventE
libdde-file-manager.so.1:_ZNK14FileController17createFileWatcherERK14QSharedPointerI25DFMCreateFileWatcherEventE
libdde-file-manager.so.1:_ZNK14FileController17createStorageInfoERK14QSharedPointerI15DFMUrlBaseEventE
libdde-file-manager.so.1:_ZNK14FileController18checkDuplicateNameERK7QString
libdde-file-manager.so.1:_ZNK14FileController18decompressFileHereERK14QSharedPointerI18DFMDecompressEvnetE
libdde-file-manager.so.1:_ZNK14FileController19getTagsThroughFilesERK14QSharedPointerI27DFMGetTagsThroughFilesEventE
libdde-file-manager.so.1:_ZNK14FileController21writeFilesToClipboardERK14QSharedPointerI28DFMWriteUrlsToClipboardEventE
libdde-file-manager.so.1:_ZNK14FileController5mkdirERK14QSharedPointerI13DFMMkdirEventE
libdde-file-manager.so.1:_ZNK14FileController5touchERK14QSharedPointerI17DFMTouchFileEventE
libdde-file-manager.so.1:_ZNK14FileController8openFileERK14QSharedPointerI16DFMOpenFileEventE
libdde-file-manager.so.1:_ZNK14FileController9pasteFileERK14QSharedPointerI13DFMPasteEventE
libdde-file-manager.so.1:_ZNK14FileViewHelper10currentUrlEv
libdde-file-manager.so.1:_ZNK14FileViewHelper10indexOfRowERK11QModelIndex
libdde-file-manager.so.1:_ZNK14FileViewHelper10isSelectedERK11QModelIndex
libdde-file-manager.so.1:_ZNK14FileViewHelper10metaObjectEv
libdde-file-manager.so.1:_ZNK14FileViewHelper11columnWidthEi
libdde-file-manager.so.1:_ZNK14FileViewHelper12isDropTargetERK11QModelIndex
libdde-file-manager.so.1:_ZNK14FileViewHelper12itemDelegateEv
libdde-file-manager.so.1:_ZNK14FileViewHelper12selectedUrlsEv
libdde-file-manager.so.1:_ZNK14FileViewHelper14columnRoleListEv
libdde-file-manager.so.1:_ZNK14FileViewHelper19selectedIndexsCountEv
libdde-file-manager.so.1:_ZNK14FileViewHelper5modelEv
libdde-file-manager.so.1:_ZNK14FileViewHelper6parentEv
libdde-file-manager.so.1:_ZNK14FileViewHelper8fileInfoERK11QModelIndex
libdde-file-manager.so.1:_ZNK14FileViewHelper8rowCountEv
libdde-file-manager.so.1:_ZNK14FileViewHelper8windowIdEv
libdde-file-manager.so.1:_ZNK14MimeAppsWorker10metaObjectEv
libdde-file-manager.so.1:_ZNK14NetworkManager10metaObjectEv
libdde-file-manager.so.1:_ZNK14OpenWithDialog10metaObjectEv
libdde-file-manager.so.1:_ZNK14PropertyDialog10metaObjectEv
libdde-file-manager.so.1:_ZNK14PropertyDialog11expandGroupEv
libdde-file-manager.so.1:_ZNK14PropertyDialog13contentHeightEv
libdde-file-manager.so.1:_ZNK14RecentFileInfo10isReadableEv
libdde-file-manager.so.1:_ZNK14RecentFileInfo10isWritableEv
libdde-file-manager.so.1:_ZNK14RecentFileInfo11mimeDataUrlEv
libdde-file-manager.so.1:_ZNK14RecentFileInfo11permissionsEv
libdde-file-manager.so.1:_ZNK14RecentFileInfo11toLocalFileEv
libdde-file-manager.so.1:_ZNK14RecentFileInfo12readDateTimeEv
libdde-file-manager.so.1:_ZNK14RecentFileInfo14canIteratorDirEv
libdde-file-manager.so.1:_ZNK14RecentFileInfo14menuActionListEN17DAbstractFileInfo8MenuTypeE
libdde-file-manager.so.1:_ZNK14RecentFileInfo14userColumnDataEi
libdde-file-manager.so.1:_ZNK14RecentFileInfo15userColumnRolesEv
libdde-file-manager.so.1:_ZNK14RecentFileInfo15userColumnWidthEiRK12QFontMetrics
libdde-file-manager.so.1:_ZNK14RecentFileInfo18compareFunByColumnEi
libdde-file-manager.so.1:_ZNK14RecentFileInfo18goToUrlWhenDeletedEv
libdde-file-manager.so.1:_ZNK14RecentFileInfo21disableMenuActionListEv
libdde-file-manager.so.1:_ZNK14RecentFileInfo22subtitleForEmptyFloderEv
libdde-file-manager.so.1:_ZNK14RecentFileInfo5isDirEv
libdde-file-manager.so.1:_ZNK14RecentFileInfo6existsEv
libdde-file-manager.so.1:_ZNK14RecentFileInfo7canDropEv
libdde-file-manager.so.1:_ZNK14RecentFileInfo9parentUrlEv
libdde-file-manager.so.1:_ZNK14SearchFileInfo10filesCountEv
libdde-file-manager.so.1:_ZNK14SearchFileInfo10hasOrderlyEv
libdde-file-manager.so.1:_ZNK14SearchFileInfo10isReadableEv
libdde-file-manager.so.1:_ZNK14SearchFileInfo10loadingTipEv
libdde-file-manager.so.1:_ZNK14SearchFileInfo11mimeDataUrlEv
libdde-file-manager.so.1:_ZNK14SearchFileInfo11toLocalFileEv
libdde-file-manager.so.1:_ZNK14SearchFileInfo13isEmptyFloderERK6QFlagsIN4QDir6FilterEE
libdde-file-manager.so.1:_ZNK14SearchFileInfo14canIteratorDirEv
libdde-file-manager.so.1:_ZNK14SearchFileInfo14menuActionListEN17DAbstractFileInfo8MenuTypeE
libdde-file-manager.so.1:_ZNK14SearchFileInfo14userColumnDataEi
libdde-file-manager.so.1:_ZNK14SearchFileInfo15fileDisplayNameEv
libdde-file-manager.so.1:_ZNK14SearchFileInfo15userColumnRolesEv
libdde-file-manager.so.1:_ZNK14SearchFileInfo15userColumnWidthEiRK12QFontMetrics
libdde-file-manager.so.1:_ZNK14SearchFileInfo17redirectedFileUrlEv
libdde-file-manager.so.1:_ZNK14SearchFileInfo18compareFunByColumnEi
libdde-file-manager.so.1:_ZNK14SearchFileInfo19getUrlByNewFileNameERK7QString
libdde-file-manager.so.1:_ZNK14SearchFileInfo20userColumnChildRolesEi
libdde-file-manager.so.1:_ZNK14SearchFileInfo21canRedirectionFileUrlEv
libdde-file-manager.so.1:_ZNK14SearchFileInfo21disableMenuActionListEv
libdde-file-manager.so.1:_ZNK14SearchFileInfo21userColumnDisplayNameEi
libdde-file-manager.so.1:_ZNK14SearchFileInfo22menuActionByColumnRoleEi
libdde-file-manager.so.1:_ZNK14SearchFileInfo22subtitleForEmptyFloderEv
libdde-file-manager.so.1:_ZNK14SearchFileInfo27columnDefaultVisibleForRoleEi
libdde-file-manager.so.1:_ZNK14SearchFileInfo32sortSubMenuActionUserColumnRolesEv
libdde-file-manager.so.1:_ZNK14SearchFileInfo5isDirEv
libdde-file-manager.so.1:_ZNK14SearchFileInfo6existsEv
libdde-file-manager.so.1:_ZNK14SearchFileInfo9parentUrlEv
libdde-file-manager.so.1:_ZNK14SettingBackend4keysEv
libdde-file-manager.so.1:_ZNK14SettingBackend9getOptionERK7QString
libdde-file-manager.so.1:_ZNK14ShareControler10metaObjectEv
libdde-file-manager.so.1:_ZNK14ShareControler11getChildrenERK14QSharedPointerI20DFMGetChildrensEventE
libdde-file-manager.so.1:_ZNK14ShareControler11shareFolderERK14QSharedPointerI17DFMFileShareEvnetE
libdde-file-manager.so.1:_ZNK14ShareControler13addToBookmarkERK14QSharedPointerI21DFMAddToBookmarkEventE
libdde-file-manager.so.1:_ZNK14ShareControler13unShareFolderERK14QSharedPointerI23DFMCancelFileShareEventE
libdde-file-manager.so.1:_ZNK14ShareControler14createFileInfoERK14QSharedPointerI22DFMCreateFileInfoEvnetE
libdde-file-manager.so.1:_ZNK14ShareControler14removeBookmarkERK14QSharedPointerI22DFMRemoveBookmarkEventE
libdde-file-manager.so.1:_ZNK14ShareControler17createFileWatcherERK14QSharedPointerI25DFMCreateFileWatcherEventE
libdde-file-manager.so.1:_ZNK14ShareInfoFrame10metaObjectEv
libdde-file-manager.so.1:_ZNK14TabCloseButton10metaObjectEv
libdde-file-manager.so.1:_ZNK14TabCloseButton12boundingRectEv
libdde-file-manager.so.1:_ZNK15BookMarkManager10metaObjectEv
libdde-file-manager.so.1:_ZNK15BookMarkManager10renameFileERK14QSharedPointerI14DFMRenameEventE
libdde-file-manager.so.1:_ZNK15BookMarkManager11deleteFilesERK14QSharedPointerI14DFMDeleteEventE
libdde-file-manager.so.1:_ZNK15BookMarkManager11getChildrenERK14QSharedPointerI20DFMGetChildrensEventE
libdde-file-manager.so.1:_ZNK15BookMarkManager12findBookmarkERK4DUrl
libdde-file-manager.so.1:_ZNK15BookMarkManager14createFileInfoERK14QSharedPointerI22DFMCreateFileInfoEvnetE
libdde-file-manager.so.1:_ZNK15BookMarkManager14removeBookmarkERK14QSharedPointerI22DFMRemoveBookmarkEventE
libdde-file-manager.so.1:_ZNK15BookMarkManager14setPermissionsERK14QSharedPointerI21DFMSetPermissionEventE
libdde-file-manager.so.1:_ZNK15BookMarkManager17createFileWatcherERK14QSharedPointerI25DFMCreateFileWatcherEventE
libdde-file-manager.so.1:_ZNK15BookMarkManager5touchERK14QSharedPointerI17DFMTouchFileEventE
libdde-file-manager.so.1:_ZNK15DFMActionButton10metaObjectEv
libdde-file-manager.so.1:_ZNK15DFMActionButton6actionEv
libdde-file-manager.so.1:_ZNK15DFMOpenUrlEvent11dirOpenModeEv
libdde-file-manager.so.1:_ZNK15DFileViewHelper10currentUrlEv
libdde-file-manager.so.1:_ZNK15DFileViewHelper10indexOfRowERK11QModelIndex
libdde-file-manager.so.1:_ZNK15DFileViewHelper10isSelectedERK11QModelIndex
libdde-file-manager.so.1:_ZNK15DFileViewHelper10metaObjectEv
libdde-file-manager.so.1:_ZNK15DFileViewHelper11columnWidthEi
libdde-file-manager.so.1:_ZNK15DFileViewHelper11indexWidgetERK11QModelIndex
libdde-file-manager.so.1:_ZNK15DFileViewHelper11isEmptyAreaERK6QPoint
libdde-file-manager.so.1:_ZNK15DFileViewHelper12isDropTargetERK11QModelIndex
libdde-file-manager.so.1:_ZNK15DFileViewHelper14additionalIconERK11QModelIndex
libdde-file-manager.so.1:_ZNK15DFileViewHelper14columnRoleListEv
libdde-file-manager.so.1:_ZNK15DFileViewHelper15initStyleOptionEP20QStyleOptionViewItemRK11QModelIndex
libdde-file-manager.so.1:_ZNK15DFileViewHelper16handleCommitDataEP7QWidget
libdde-file-manager.so.1:_ZNK15DFileViewHelper19selectedIndexsCountEv
libdde-file-manager.so.1:_ZNK15DFileViewHelper20preproccessDropEventEP10QDropEvent
libdde-file-manager.so.1:_ZNK15DFileViewHelper23fileViewViewportMarginsEv
libdde-file-manager.so.1:_ZNK15DFileViewHelper5isCutERK11QModelIndex
libdde-file-manager.so.1:_ZNK15DFileViewHelper6parentEv
libdde-file-manager.so.1:_ZNK15DFileViewHelper8baseNameERK11QModelIndex
libdde-file-manager.so.1:_ZNK15DFileViewHelper8rowCountEv
libdde-file-manager.so.1:_ZNK15DFileViewHelper8windowIdEv
libdde-file-manager.so.1:_ZNK15DIconTextButton10metaObjectEv
libdde-file-manager.so.1:_ZNK15DMoveableWidget10metaObjectEv
libdde-file-manager.so.1:_ZNK15DesktopFileInfo11getIconNameEv
libdde-file-manager.so.1:_ZNK15DesktopFileInfo13getCategoriesEv
libdde-file-manager.so.1:_ZNK15DesktopFileInfo14additionalIconEv
libdde-file-manager.so.1:_ZNK15DesktopFileInfo14menuActionListEN17DAbstractFileInfo8MenuTypeE
libdde-file-manager.so.1:_ZNK15DesktopFileInfo14suffixOfRenameEv
libdde-file-manager.so.1:_ZNK15DesktopFileInfo15fileDisplayNameEv
libdde-file-manager.so.1:_ZNK15DesktopFileInfo15genericIconNameEv
libdde-file-manager.so.1:_ZNK15DesktopFileInfo16baseNameOfRenameEv
libdde-file-manager.so.1:_ZNK15DesktopFileInfo16fileNameOfRenameEv
libdde-file-manager.so.1:_ZNK15DesktopFileInfo20supportedDragActionsEv
libdde-file-manager.so.1:_ZNK15DesktopFileInfo21disableMenuActionListEv
libdde-file-manager.so.1:_ZNK15DesktopFileInfo7canDropEv
libdde-file-manager.so.1:_ZNK15DesktopFileInfo7getExecEv
libdde-file-manager.so.1:_ZNK15DesktopFileInfo7getNameEv
libdde-file-manager.so.1:_ZNK15DesktopFileInfo7getTypeEv
libdde-file-manager.so.1:_ZNK15DesktopFileInfo8fileIconEv
libdde-file-manager.so.1:_ZNK15DesktopFileInfo8iconNameEv
libdde-file-manager.so.1:_ZNK15FileDirIterator3urlEv
libdde-file-manager.so.1:_ZNK15FileDirIterator7fileUrlEv
libdde-file-manager.so.1:_ZNK15FileDirIterator7hasNextEv
libdde-file-manager.so.1:_ZNK15FileDirIterator8fileInfoEv
libdde-file-manager.so.1:_ZNK15FileDirIterator8fileNameEv
libdde-file-manager.so.1:_ZNK15GroupTitleLabel10metaObjectEv
libdde-file-manager.so.1:_ZNK15GvfsMountClient10metaObjectEv
libdde-file-manager.so.1:_ZNK15MountController10metaObjectEv
libdde-file-manager.so.1:_ZNK15MountController11getChildrenERK14QSharedPointerI20DFMGetChildrensEventE
libdde-file-manager.so.1:_ZNK15MountController14createFileInfoERK14QSharedPointerI22DFMCreateFileInfoEvnetE
libdde-file-manager.so.1:_ZNK15NetworkFileInfo10filesCountEv
libdde-file-manager.so.1:_ZNK15NetworkFileInfo10isReadableEv
libdde-file-manager.so.1:_ZNK15NetworkFileInfo10isWritableEv
libdde-file-manager.so.1:_ZNK15NetworkFileInfo11networkNodeEv
libdde-file-manager.so.1:_ZNK15NetworkFileInfo14canIteratorDirEv
libdde-file-manager.so.1:_ZNK15NetworkFileInfo14menuActionListEN17DAbstractFileInfo8MenuTypeE
libdde-file-manager.so.1:_ZNK15NetworkFileInfo15fileDisplayNameEv
libdde-file-manager.so.1:_ZNK15NetworkFileInfo15supportViewModeEv
libdde-file-manager.so.1:_ZNK15NetworkFileInfo16absoluteFilePathEv
libdde-file-manager.so.1:_ZNK15NetworkFileInfo17redirectedFileUrlEv
libdde-file-manager.so.1:_ZNK15NetworkFileInfo20fileItemDisableFlagsEv
libdde-file-manager.so.1:_ZNK15NetworkFileInfo21canRedirectionFileUrlEv
libdde-file-manager.so.1:_ZNK15NetworkFileInfo21supportSelectionModesEv
libdde-file-manager.so.1:_ZNK15NetworkFileInfo5isDirEv
libdde-file-manager.so.1:_ZNK15NetworkFileInfo6existsEv
libdde-file-manager.so.1:_ZNK15NetworkFileInfo8filePathEv
libdde-file-manager.so.1:_ZNK15NetworkFileInfo8iconNameEv
libdde-file-manager.so.1:_ZNK15NetworkFileInfo9canRenameEv
libdde-file-manager.so.1:_ZNK15NetworkFileInfo9parentUrlEv
libdde-file-manager.so.1:_ZNK15SectionKeyLabel10metaObjectEv
libdde-file-manager.so.1:_ZNK15UDiskDeviceInfo10canUnmountEv
libdde-file-manager.so.1:_ZNK15UDiskDeviceInfo10filesCountEv
libdde-file-manager.so.1:_ZNK15UDiskDeviceInfo10isReadableEv
libdde-file-manager.so.1:_ZNK15UDiskDeviceInfo10isWritableEv
libdde-file-manager.so.1:_ZNK15UDiskDeviceInfo11getDBusPathEv
libdde-file-manager.so.1:_ZNK15UDiskDeviceInfo11getDiskInfoEv
libdde-file-manager.so.1:_ZNK15UDiskDeviceInfo12getMediaTypeEv
libdde-file-manager.so.1:_ZNK15UDiskDeviceInfo13getMountPointEv
libdde-file-manager.so.1:_ZNK15UDiskDeviceInfo14menuActionListEN17DAbstractFileInfo8MenuTypeE
libdde-file-manager.so.1:_ZNK15UDiskDeviceInfo15fileDisplayNameEv
libdde-file-manager.so.1:_ZNK15UDiskDeviceInfo15sizeDisplayNameEv
libdde-file-manager.so.1:_ZNK15UDiskDeviceInfo16getMountPointUrlEv
libdde-file-manager.so.1:_ZNK15UDiskDeviceInfo17redirectedFileUrlEv
libdde-file-manager.so.1:_ZNK15UDiskDeviceInfo18extensionPropertysEv
libdde-file-manager.so.1:_ZNK15UDiskDeviceInfo19getUrlByNewFileNameERK7QString
libdde-file-manager.so.1:_ZNK15UDiskDeviceInfo21canRedirectionFileUrlEv
libdde-file-manager.so.1:_ZNK15UDiskDeviceInfo21deviceTypeDisplayNameEv
libdde-file-manager.so.1:_ZNK15UDiskDeviceInfo21disableMenuActionListEv
libdde-file-manager.so.1:_ZNK15UDiskDeviceInfo21getUrlByChildFileNameERK7QString
libdde-file-manager.so.1:_ZNK15UDiskDeviceInfo4sizeEv
libdde-file-manager.so.1:_ZNK15UDiskDeviceInfo5getIdEv
libdde-file-manager.so.1:_ZNK15UDiskDeviceInfo5isDirEv
libdde-file-manager.so.1:_ZNK15UDiskDeviceInfo6existsEv
libdde-file-manager.so.1:_ZNK15UDiskDeviceInfo7canStopEv
libdde-file-manager.so.1:_ZNK15UDiskDeviceInfo7getIconEv
libdde-file-manager.so.1:_ZNK15UDiskDeviceInfo7getNameEv
libdde-file-manager.so.1:_ZNK15UDiskDeviceInfo7getPathEv
libdde-file-manager.so.1:_ZNK15UDiskDeviceInfo7getTypeEv
libdde-file-manager.so.1:_ZNK15UDiskDeviceInfo8canEjectEv
libdde-file-manager.so.1:_ZNK15UDiskDeviceInfo8fileIconEii
libdde-file-manager.so.1:_ZNK15UDiskDeviceInfo8fileIconEv
libdde-file-manager.so.1:_ZNK15UDiskDeviceInfo8fileNameEv
libdde-file-manager.so.1:_ZNK15UDiskDeviceInfo9canRenameEv
libdde-file-manager.so.1:_ZNK15UDiskDeviceInfo9getIdTypeEv
libdde-file-manager.so.1:_ZNK15UDiskDeviceInfo9parentUrlEv
libdde-file-manager.so.1:_ZNK16ComputerViewItem10deviceInfoEv
libdde-file-manager.so.1:_ZNK16ComputerViewItem10metaObjectEv
libdde-file-manager.so.1:_ZNK16ComputerViewItem11displayNameEv
libdde-file-manager.so.1:_ZNK16ComputerViewItem13getPixelWidthEv
libdde-file-manager.so.1:_ZNK16ComputerViewItem16getHasMemoryInfoEv
libdde-file-manager.so.1:_ZNK16ComputerViewItem4infoEv
libdde-file-manager.so.1:_ZNK16ComputerViewItem4nameEv
libdde-file-manager.so.1:_ZNK16ComputerViewItem6getUrlEv
libdde-file-manager.so.1:_ZNK16ComputerViewItem7checkedEv
libdde-file-manager.so.1:_ZNK16ComputerViewItem8iconSizeEv
libdde-file-manager.so.1:_ZNK16DAnythingMonitor10metaObjectEv
libdde-file-manager.so.1:_ZNK16DFileInfoPrivate14isLowSpeedFileEv
libdde-file-manager.so.1:_ZNK16DFileMenuManager10metaObjectEv
libdde-file-manager.so.1:_ZNK16DFileSystemModel10headerDataEiN2Qt11OrientationEi
libdde-file-manager.so.1:_ZNK16DFileSystemModel10isReadOnlyEv
libdde-file-manager.so.1:_ZNK16DFileSystemModel10metaObjectEv
libdde-file-manager.so.1:_ZNK16DFileSystemModel10sortColumnEv
libdde-file-manager.so.1:_ZNK16DFileSystemModel11columnCountERK11QModelIndex
libdde-file-manager.so.1:_ZNK16DFileSystemModel11createIndexERK28QExplicitlySharedDataPointerI14FileSystemNodeEi
libdde-file-manager.so.1:_ZNK16DFileSystemModel11enabledSortEv
libdde-file-manager.so.1:_ZNK16DFileSystemModel11fileWatcherEv
libdde-file-manager.so.1:_ZNK16DFileSystemModel11hasChildrenERK11QModelIndex
libdde-file-manager.so.1:_ZNK16DFileSystemModel11nameFiltersEv
libdde-file-manager.so.1:_ZNK16DFileSystemModel12canFetchMoreERK11QModelIndex
libdde-file-manager.so.1:_ZNK16DFileSystemModel12columnToRoleEi
libdde-file-manager.so.1:_ZNK16DFileSystemModel12roleToColumnEi
libdde-file-manager.so.1:_ZNK16DFileSystemModel13getUrlByIndexERK11QModelIndex
libdde-file-manager.so.1:_ZNK16DFileSystemModel14parentFileInfoERK11QModelIndex
libdde-file-manager.so.1:_ZNK16DFileSystemModel14parentFileInfoERK4DUrl
libdde-file-manager.so.1:_ZNK16DFileSystemModel15columnIsCompactEv
libdde-file-manager.so.1:_ZNK16DFileSystemModel16columnActiveRoleEi
libdde-file-manager.so.1:_ZNK16DFileSystemModel16columnNameByRoleEiRK11QModelIndex
libdde-file-manager.so.1:_ZNK16DFileSystemModel17columnWidthByRoleEi
libdde-file-manager.so.1:_ZNK16DFileSystemModel20supportedDragActionsEv
libdde-file-manager.so.1:_ZNK16DFileSystemModel20supportedDropActionsEv
libdde-file-manager.so.1:_ZNK16DFileSystemModel27columnDefaultVisibleForRoleEiRK11QModelIndex
libdde-file-manager.so.1:_ZNK16DFileSystemModel4dataERK11QModelIndexi
libdde-file-manager.so.1:_ZNK16DFileSystemModel4sortERK28QExplicitlySharedDataPointerI17DAbstractFileInfoER5QListIP14FileSystemNodeE
libdde-file-manager.so.1:_ZNK16DFileSystemModel5flagsERK11QModelIndex
libdde-file-manager.so.1:_ZNK16DFileSystemModel5indexEiiRK11QModelIndex
libdde-file-manager.so.1:_ZNK16DFileSystemModel5isDirERK28QExplicitlySharedDataPointerI14FileSystemNodeE
libdde-file-manager.so.1:_ZNK16DFileSystemModel5stateEv
libdde-file-manager.so.1:_ZNK16DFileSystemModel6parentERK11QModelIndex
libdde-file-manager.so.1:_ZNK16DFileSystemModel6parentEv
libdde-file-manager.so.1:_ZNK16DFileSystemModel7filtersEv
libdde-file-manager.so.1:_ZNK16DFileSystemModel7rootUrlEv
libdde-file-manager.so.1:_ZNK16DFileSystemModel8fileInfoERK11QModelIndex
libdde-file-manager.so.1:_ZNK16DFileSystemModel8fileInfoERK4DUrl
libdde-file-manager.so.1:_ZNK16DFileSystemModel8mimeDataERK5QListI11QModelIndexE
libdde-file-manager.so.1:_ZNK16DFileSystemModel8rowCountERK11QModelIndex
libdde-file-manager.so.1:_ZNK16DFileSystemModel8sortRoleEv
libdde-file-manager.so.1:_ZNK16DFileSystemModel9mimeTypesEv
libdde-file-manager.so.1:_ZNK16DFileSystemModel9sortOrderEv
libdde-file-manager.so.1:_ZNK16DFileViewPrivate19iconModeColumnCountEi
libdde-file-manager.so.1:_ZNK16DTagActionWidget10metaObjectEv
libdde-file-manager.so.1:_ZNK16DTagActionWidget16checkedColorListEv
libdde-file-manager.so.1:_ZNK16DTagActionWidget9exclusiveEv
libdde-file-manager.so.1:_ZNK16FileBatchProcess10customTextERK5QListI4DUrlERK5QPairI7QStringS6_E
libdde-file-manager.so.1:_ZNK16FileBatchProcess11replaceTextERK5QListI4DUrlERK5QPairI7QStringS6_E
libdde-file-manager.so.1:_ZNK16FileBatchProcess7addTextERK5QListI4DUrlERK5QPairI7QStringN12DFileService12AddTextFlagsEE
libdde-file-manager.so.1:_ZNK16GvfsMountManager10metaObjectEv
libdde-file-manager.so.1:_ZNK16MimesAppsManager10metaObjectEv
libdde-file-manager.so.1:_ZNK16RecentController10metaObjectEv
libdde-file-manager.so.1:_ZNK16RecentController11deleteFilesERK14QSharedPointerI14DFMDeleteEventE
libdde-file-manager.so.1:_ZNK16RecentController11moveToTrashERK14QSharedPointerI19DFMMoveToTrashEventE
libdde-file-manager.so.1:_ZNK16RecentController11setFileTagsERK14QSharedPointerI19DFMSetFileTagsEventE
libdde-file-manager.so.1:_ZNK16RecentController13compressFilesERK14QSharedPointerI16DFMCompressEvnetE
libdde-file-manager.so.1:_ZNK16RecentController13createSymlinkERK14QSharedPointerI21DFMCreateSymlinkEventE
libdde-file-manager.so.1:_ZNK16RecentController13openFileByAppERK14QSharedPointerI21DFMOpenFileByAppEventE
libdde-file-manager.so.1:_ZNK16RecentController14createFileInfoERK14QSharedPointerI22DFMCreateFileInfoEvnetE
libdde-file-manager.so.1:_ZNK16RecentController14decompressFileERK14QSharedPointerI18DFMDecompressEvnetE
libdde-file-manager.so.1:_ZNK16RecentController16openFileLocationERK14QSharedPointerI19DFMOpenFileLocationE
libdde-file-manager.so.1:_ZNK16RecentController16removeTagsOfFileERK14QSharedPointerI24DFMRemoveTagsOfFileEventE
libdde-file-manager.so.1:_ZNK16RecentController17createDirIteratorERK14QSharedPointerI20DFMCreateDiriteratorE
libdde-file-manager.so.1:_ZNK16RecentController17createFileWatcherERK14QSharedPointerI25DFMCreateFileWatcherEventE
libdde-file-manager.so.1:_ZNK16RecentController19getTagsThroughFilesERK14QSharedPointerI27DFMGetTagsThroughFilesEventE
libdde-file-manager.so.1:_ZNK16RecentController21writeFilesToClipboardERK14QSharedPointerI28DFMWriteUrlsToClipboardEventE
libdde-file-manager.so.1:_ZNK16RecentController8openFileERK14QSharedPointerI16DFMOpenFileEventE
libdde-file-manager.so.1:_ZNK16SearchController10metaObjectEv
libdde-file-manager.so.1:_ZNK16SearchController10renameFileERK14QSharedPointerI14DFMRenameEventE
libdde-file-manager.so.1:_ZNK16SearchController11deleteFilesERK14QSharedPointerI14DFMDeleteEventE
libdde-file-manager.so.1:_ZNK16SearchController11moveToTrashERK14QSharedPointerI19DFMMoveToTrashEventE
libdde-file-manager.so.1:_ZNK16SearchController11restoreFileERK14QSharedPointerI24DFMRestoreFromTrashEventE
libdde-file-manager.so.1:_ZNK16SearchController11setFileTagsERK14QSharedPointerI19DFMSetFileTagsEventE
libdde-file-manager.so.1:_ZNK16SearchController11shareFolderERK14QSharedPointerI17DFMFileShareEvnetE
libdde-file-manager.so.1:_ZNK16SearchController13addToBookmarkERK14QSharedPointerI21DFMAddToBookmarkEventE
libdde-file-manager.so.1:_ZNK16SearchController13compressFilesERK14QSharedPointerI16DFMCompressEvnetE
libdde-file-manager.so.1:_ZNK16SearchController13createSymlinkERK14QSharedPointerI21DFMCreateSymlinkEventE
libdde-file-manager.so.1:_ZNK16SearchController13openFileByAppERK14QSharedPointerI21DFMOpenFileByAppEventE
libdde-file-manager.so.1:_ZNK16SearchController13unShareFolderERK14QSharedPointerI23DFMCancelFileShareEventE
libdde-file-manager.so.1:_ZNK16SearchController14createFileInfoERK14QSharedPointerI22DFMCreateFileInfoEvnetE
libdde-file-manager.so.1:_ZNK16SearchController14decompressFileERK14QSharedPointerI18DFMDecompressEvnetE
libdde-file-manager.so.1:_ZNK16SearchController14openInTerminalERK14QSharedPointerI22DFMOpenInTerminalEventE
libdde-file-manager.so.1:_ZNK16SearchController14removeBookmarkERK14QSharedPointerI22DFMRemoveBookmarkEventE
libdde-file-manager.so.1:_ZNK16SearchController14setPermissionsERK14QSharedPointerI21DFMSetPermissionEventE
libdde-file-manager.so.1:_ZNK16SearchController16openFileLocationERK14QSharedPointerI19DFMOpenFileLocationE
libdde-file-manager.so.1:_ZNK16SearchController16removeTagsOfFileERK14QSharedPointerI24DFMRemoveTagsOfFileEventE
libdde-file-manager.so.1:_ZNK16SearchController17createDirIteratorERK14QSharedPointerI20DFMCreateDiriteratorE
libdde-file-manager.so.1:_ZNK16SearchController17createFileWatcherERK14QSharedPointerI25DFMCreateFileWatcherEventE
libdde-file-manager.so.1:_ZNK16SearchController19getTagsThroughFilesERK14QSharedPointerI27DFMGetTagsThroughFilesEventE
libdde-file-manager.so.1:_ZNK16SearchController21writeFilesToClipboardERK14QSharedPointerI28DFMWriteUrlsToClipboardEventE
libdde-file-manager.so.1:_ZNK16SearchController8openFileERK14QSharedPointerI16DFMOpenFileEventE
libdde-file-manager.so.1:_ZNK16TrashDirIterator3urlEv
libdde-file-manager.so.1:_ZNK16TrashDirIterator7fileUrlEv
libdde-file-manager.so.1:_ZNK16TrashDirIterator7hasNextEv
libdde-file-manager.so.1:_ZNK16TrashDirIterator8fileInfoEv
libdde-file-manager.so.1:_ZNK16TrashDirIterator8fileNameEv
libdde-file-manager.so.1:_ZNK16UserShareManager10metaObjectEv
libdde-file-manager.so.1:_ZNK16UserShareManager11isShareFileERK7QString
libdde-file-manager.so.1:_ZNK16UserShareManager13shareInfoListEv
libdde-file-manager.so.1:_ZNK16UserShareManager18getShareInfoByPathERK7QString
libdde-file-manager.so.1:_ZNK16UserShareManager18getShareNameByPathERK7QString
libdde-file-manager.so.1:_ZNK16UserShareManager19validShareInfoCountEv
libdde-file-manager.so.1:_ZNK16UserShareManager20hasValidShareFoldersEv
libdde-file-manager.so.1:_ZNK16UserShareManager23updateFileAttributeInfoERK7QString
libdde-file-manager.so.1:_ZNK16UserShareManager24getOldShareInfoByNewInfoERK9ShareInfo
libdde-file-manager.so.1:_ZNK16UserShareManager24getsShareInfoByShareNameERK7QString
libdde-file-manager.so.1:_ZNK16dde_file_manager10DFMSideBar10metaObjectEv
libdde-file-manager.so.1:_ZNK16dde_file_manager10DFMSideBar13groupGeometryERK7QString
libdde-file-manager.so.1:_ZNK16dde_file_manager10DFMSideBar17disableUrlSchemesEv
libdde-file-manager.so.1:_ZNK16dde_file_manager10DFMSideBar18contextMenuEnabledEv
libdde-file-manager.so.1:_ZNK16dde_file_manager10DFMSideBar19appendListWithOrderE5QListIPNS_14DFMSideBarItemEERK7QString
libdde-file-manager.so.1:_ZNK16dde_file_manager10DFMSideBar5countEv
libdde-file-manager.so.1:_ZNK16dde_file_manager10DFMSideBar6itemAtERK4DUrl
libdde-file-manager.so.1:_ZNK16dde_file_manager10DFMSideBar6itemAtEiRK7QString
libdde-file-manager.so.1:_ZNK16dde_file_manager10DFMSideBar9groupListEv
libdde-file-manager.so.1:_ZNK16dde_file_manager10DFMSideBar9itemCountERK7QString
libdde-file-manager.so.1:_ZNK16dde_file_manager10DFMSideBar9itemIndexEPKNS_14DFMSideBarItemE
libdde-file-manager.so.1:_ZNK16dde_file_manager11DFMBaseView17toolBarActionListEv
libdde-file-manager.so.1:_ZNK16dde_file_manager11DFMBaseView9viewStateEv
libdde-file-manager.so.1:_ZNK16dde_file_manager11DFMCrumbBar10metaObjectEv
libdde-file-manager.so.1:_ZNK16dde_file_manager11DFMSettings10metaObjectEv
libdde-file-manager.so.1:_ZNK16dde_file_manager11DFMSettings11isRemovableERK7QStringRK4DUrl
libdde-file-manager.so.1:_ZNK16dde_file_manager11DFMSettings11isRemovableERK7QStringS3_
libdde-file-manager.so.1:_ZNK16dde_file_manager11DFMSettings12watchChangesEv
libdde-file-manager.so.1:_ZNK16dde_file_manager11DFMSettings4keysERK7QString
libdde-file-manager.so.1:_ZNK16dde_file_manager11DFMSettings5valueERK7QStringRK4DUrlRK8QVariant
libdde-file-manager.so.1:_ZNK16dde_file_manager11DFMSettings5valueERK7QStringS3_RK8QVariant
libdde-file-manager.so.1:_ZNK16dde_file_manager11DFMSettings6groupsEv
libdde-file-manager.so.1:_ZNK16dde_file_manager11DFMSettings7keyListERK7QString
libdde-file-manager.so.1:_ZNK16dde_file_manager11DFMSettings8autoSyncEv
libdde-file-manager.so.1:_ZNK16dde_file_manager11DFMSettings8containsERK7QStringS3_
libdde-file-manager.so.1:_ZNK16dde_file_manager11DFMSettings8urlValueERK7QStringRK4DUrlS6_
libdde-file-manager.so.1:_ZNK16dde_file_manager11DFMSettings8urlValueERK7QStringS3_RK4DUrl
libdde-file-manager.so.1:_ZNK16dde_file_manager11DFileDevice10metaObjectEv
libdde-file-manager.so.1:_ZNK16dde_file_manager11DFileDevice6handleEv
libdde-file-manager.so.1:_ZNK16dde_file_manager11DFileDevice7fileUrlEv
libdde-file-manager.so.1:_ZNK16dde_file_manager11ThemeConfig5colorERK7QStringS3_6QFlagsINS0_5StateEE
libdde-file-manager.so.1:_ZNK16dde_file_manager11ThemeConfig5valueERK7QStringS3_6QFlagsINS0_5StateEE
libdde-file-manager.so.1:_ZNK16dde_file_manager11ThemeConfig6pixmapERK7QStringS3_6QFlagsINS0_5StateEEd
libdde-file-manager.so.1:_ZNK16dde_file_manager11ThemeConfig6stringERK7QStringS3_6QFlagsINS0_5StateEE
libdde-file-manager.so.1:_ZNK16dde_file_manager11ThemeConfig7integerERK7QStringS3_6QFlagsINS0_5StateEE
libdde-file-manager.so.1:_ZNK16dde_file_manager11ThemeConfig8hasValueERK7QStringS3_6QFlagsINS0_5StateEE
libdde-file-manager.so.1:_ZNK16dde_file_manager12DFMCrumbItem10metaObjectEv
libdde-file-manager.so.1:_ZNK16dde_file_manager12DFMCrumbItem12dropMimeDataEPK9QMimeDataN2Qt10DropActionE
libdde-file-manager.so.1:_ZNK16dde_file_manager12DFMCrumbItem15canDropMimeDataEPK9QMimeData6QFlagsIN2Qt10DropActionEE
libdde-file-manager.so.1:_ZNK16dde_file_manager12DFMCrumbItem3urlEv
libdde-file-manager.so.1:_ZNK16dde_file_manager12DFMVfsDevice10defaultUriEv
libdde-file-manager.so.1:_ZNK16dde_file_manager12DFMVfsDevice10isReadOnlyEv
libdde-file-manager.so.1:_ZNK16dde_file_manager12DFMVfsDevice10metaObjectEv
libdde-file-manager.so.1:_ZNK16dde_file_manager12DFMVfsDevice10totalBytesEv
libdde-file-manager.so.1:_ZNK16dde_file_manager12DFMVfsDevice11defaultPathEv
libdde-file-manager.so.1:_ZNK16dde_file_manager12DFMVfsDevice12eventHandlerEv
libdde-file-manager.so.1:_ZNK16dde_file_manager12DFMVfsDevice16symbolicIconListEv
libdde-file-manager.so.1:_ZNK16dde_file_manager12DFMVfsDevice4nameEv
libdde-file-manager.so.1:_ZNK16dde_file_manager12DFMVfsDevice7rootUriEv
libdde-file-manager.so.1:_ZNK16dde_file_manager12DFMVfsDevice8iconListEv
libdde-file-manager.so.1:_ZNK16dde_file_manager12DFMVfsDevice8rootPathEv
libdde-file-manager.so.1:_ZNK16dde_file_manager12DFMVfsDevice9canDetachEv
libdde-file-manager.so.1:_ZNK16dde_file_manager12DFMVfsDevice9freeBytesEv
libdde-file-manager.so.1:_ZNK16dde_file_manager12DFMVfsDevice9usedBytesEv
libdde-file-manager.so.1:_ZNK16dde_file_manager12DFileHandler11errorStringEv
libdde-file-manager.so.1:_ZNK16dde_file_manager12DStorageInfo10bytesTotalEv
libdde-file-manager.so.1:_ZNK16dde_file_manager12DStorageInfo10isReadOnlyEv
libdde-file-manager.so.1:_ZNK16dde_file_manager12DStorageInfo13isLocalDeviceEv
libdde-file-manager.so.1:_ZNK16dde_file_manager12DStorageInfo14bytesAvailableEv
libdde-file-manager.so.1:_ZNK16dde_file_manager12DStorageInfo14fileSystemTypeEv
libdde-file-manager.so.1:_ZNK16dde_file_manager12DStorageInfo16isLowSpeedDeviceEv
libdde-file-manager.so.1:_ZNK16dde_file_manager12DStorageInfo6deviceEv
libdde-file-manager.so.1:_ZNK16dde_file_manager12DStorageInfo7isValidEv
libdde-file-manager.so.1:_ZNK16dde_file_manager12DStorageInfo8rootPathEv
libdde-file-manager.so.1:_ZNK16dde_file_manager12DStorageInfo9bytesFreeEv
libdde-file-manager.so.1:_ZNK16dde_file_manager13DFMAddressBar10metaObjectEv
libdde-file-manager.so.1:_ZNK16dde_file_manager13DFMAddressBar15placeholderTextEv
libdde-file-manager.so.1:_ZNK16dde_file_manager13DFMAddressBar9completerEv
libdde-file-manager.so.1:_ZNK16dde_file_manager13DFMDiskDevice10metaObjectEv
libdde-file-manager.so.1:_ZNK16dde_file_manager13DFMDiskDevice11canPowerOffEv
libdde-file-manager.so.1:_ZNK16dde_file_manager13DFMDiskDevice12opticalBlankEv
libdde-file-manager.so.1:_ZNK16dde_file_manager13DFMDiskDevice12rotationRateEv
libdde-file-manager.so.1:_ZNK16dde_file_manager13DFMDiskDevice12timeDetectedEv
libdde-file-manager.so.1:_ZNK16dde_file_manager13DFMDiskDevice13configurationEv
libdde-file-manager.so.1:_ZNK16dde_file_manager13DFMDiskDevice13connectionBusEv
libdde-file-manager.so.1:_ZNK16dde_file_manager13DFMDiskDevice14mediaAvailableEv
libdde-file-manager.so.1:_ZNK16dde_file_manager13DFMDiskDevice14mediaRemovableEv
libdde-file-manager.so.1:_ZNK16dde_file_manager13DFMDiskDevice16opticalNumTracksEv
libdde-file-manager.so.1:_ZNK16dde_file_manager13DFMDiskDevice17timeMediaDetectedEv
libdde-file-manager.so.1:_ZNK16dde_file_manager13DFMDiskDevice18mediaCompatibilityEv
libdde-file-manager.so.1:_ZNK16dde_file_manager13DFMDiskDevice18opticalNumSessionsEv
libdde-file-manager.so.1:_ZNK16dde_file_manager13DFMDiskDevice19mediaChangeDetectedEv
libdde-file-manager.so.1:_ZNK16dde_file_manager13DFMDiskDevice20opticalNumDataTracksEv
libdde-file-manager.so.1:_ZNK16dde_file_manager13DFMDiskDevice21opticalNumAudioTracksEv
libdde-file-manager.so.1:_ZNK16dde_file_manager13DFMDiskDevice2idEv
libdde-file-manager.so.1:_ZNK16dde_file_manager13DFMDiskDevice3WWNEv
libdde-file-manager.so.1:_ZNK16dde_file_manager13DFMDiskDevice4pathEv
libdde-file-manager.so.1:_ZNK16dde_file_manager13DFMDiskDevice4seatEv
libdde-file-manager.so.1:_ZNK16dde_file_manager13DFMDiskDevice4sizeEv
libdde-file-manager.so.1:_ZNK16dde_file_manager13DFMDiskDevice5mediaEv
libdde-file-manager.so.1:_ZNK16dde_file_manager13DFMDiskDevice5modelEv
libdde-file-manager.so.1:_ZNK16dde_file_manager13DFMDiskDevice6serialEv
libdde-file-manager.so.1:_ZNK16dde_file_manager13DFMDiskDevice6vendorEv
libdde-file-manager.so.1:_ZNK16dde_file_manager13DFMDiskDevice7opticalEv
libdde-file-manager.so.1:_ZNK16dde_file_manager13DFMDiskDevice7sortKeyEv
libdde-file-manager.so.1:_ZNK16dde_file_manager13DFMDiskDevice8revisionEv
libdde-file-manager.so.1:_ZNK16dde_file_manager13DFMDiskDevice9ejectableEv
libdde-file-manager.so.1:_ZNK16dde_file_manager13DFMDiskDevice9removableEv
libdde-file-manager.so.1:_ZNK16dde_file_manager13DFMDiskDevice9siblingIdEv
libdde-file-manager.so.1:_ZNK16dde_file_manager13DFMVfsManager10metaObjectEv
libdde-file-manager.so.1:_ZNK16dde_file_manager13DFMVfsManager12eventHandlerEv
libdde-file-manager.so.1:_ZNK16dde_file_manager13DFMViewPlugin10metaObjectEv
libdde-file-manager.so.1:_ZNK16dde_file_manager13DMimeDatabase14mimeTypeForUrlERK4QUrl
libdde-file-manager.so.1:_ZNK16dde_file_manager13DMimeDatabase15mimeTypeForFileERK7QStringN13QMimeDatabase9MatchModeE
libdde-file-manager.so.1:_ZNK16dde_file_manager13DMimeDatabase15mimeTypeForFileERK9QFileInfoN13QMimeDatabase9MatchModeE
libdde-file-manager.so.1:_ZNK16dde_file_manager14DFMApplication10metaObjectEv
libdde-file-manager.so.1:_ZNK16dde_file_manager14DFMBlockDevice10hintIgnoreEv
libdde-file-manager.so.1:_ZNK16dde_file_manager14DFMBlockDevice10hintSystemEv
libdde-file-manager.so.1:_ZNK16dde_file_manager14DFMBlockDevice10metaObjectEv
libdde-file-manager.so.1:_ZNK16dde_file_manager14DFMBlockDevice11canSetLabelEv
libdde-file-manager.so.1:_ZNK16dde_file_manager14DFMBlockDevice11isEncryptedEv
libdde-file-manager.so.1:_ZNK16dde_file_manager14DFMBlockDevice11mountPointsEv
libdde-file-manager.so.1:_ZNK16dde_file_manager14DFMBlockDevice12deviceNumberEv
libdde-file-manager.so.1:_ZNK16dde_file_manager14DFMBlockDevice12hasPartitionEv
libdde-file-manager.so.1:_ZNK16dde_file_manager14DFMBlockDevice12hintIconNameEv
libdde-file-manager.so.1:_ZNK16dde_file_manager14DFMBlockDevice12isLoopDeviceEv
libdde-file-manager.so.1:_ZNK16dde_file_manager14DFMBlockDevice12mDRaidMemberEv
libdde-file-manager.so.1:_ZNK16dde_file_manager14DFMBlockDevice12watchChangesEv
libdde-file-manager.so.1:_ZNK16dde_file_manager14DFMBlockDevice13configurationEv
libdde-file-manager.so.1:_ZNK16dde_file_manager14DFMBlockDevice13hasFileSystemEv
libdde-file-manager.so.1:_ZNK16dde_file_manager14DFMBlockDevice15preferredDeviceEv
libdde-file-manager.so.1:_ZNK16dde_file_manager14DFMBlockDevice17hintPartitionableEv
libdde-file-manager.so.1:_ZNK16dde_file_manager14DFMBlockDevice18childConfigurationEv
libdde-file-manager.so.1:_ZNK16dde_file_manager14DFMBlockDevice19cryptoBackingDeviceEv
libdde-file-manager.so.1:_ZNK16dde_file_manager14DFMBlockDevice20hintSymbolicIconNameEv
libdde-file-manager.so.1:_ZNK16dde_file_manager14DFMBlockDevice21userspaceMountOptionsEv
libdde-file-manager.so.1:_ZNK16dde_file_manager14DFMBlockDevice2idEv
libdde-file-manager.so.1:_ZNK16dde_file_manager14DFMBlockDevice4pathEv
libdde-file-manager.so.1:_ZNK16dde_file_manager14DFMBlockDevice4sizeEv
libdde-file-manager.so.1:_ZNK16dde_file_manager14DFMBlockDevice5driveEv
libdde-file-manager.so.1:_ZNK16dde_file_manager14DFMBlockDevice6deviceEv
libdde-file-manager.so.1:_ZNK16dde_file_manager14DFMBlockDevice6fsTypeEv
libdde-file-manager.so.1:_ZNK16dde_file_manager14DFMBlockDevice6idTypeEv
libdde-file-manager.so.1:_ZNK16dde_file_manager14DFMBlockDevice6idUUIDEv
libdde-file-manager.so.1:_ZNK16dde_file_manager14DFMBlockDevice6mDRaidEv
libdde-file-manager.so.1:_ZNK16dde_file_manager14DFMBlockDevice6ptTypeEv
libdde-file-manager.so.1:_ZNK16dde_file_manager14DFMBlockDevice7idLabelEv
libdde-file-manager.so.1:_ZNK16dde_file_manager14DFMBlockDevice7idUsageEv
libdde-file-manager.so.1:_ZNK16dde_file_manager14DFMBlockDevice7isValidEv
libdde-file-manager.so.1:_ZNK16dde_file_manager14DFMBlockDevice8hintAutoEv
libdde-file-manager.so.1:_ZNK16dde_file_manager14DFMBlockDevice8hintNameEv
libdde-file-manager.so.1:_ZNK16dde_file_manager14DFMBlockDevice8readOnlyEv
libdde-file-manager.so.1:_ZNK16dde_file_manager14DFMBlockDevice8symlinksEv
libdde-file-manager.so.1:_ZNK16dde_file_manager14DFMBlockDevice9idVersionEv
libdde-file-manager.so.1:_ZNK16dde_file_manager14DFMCrumbPlugin10metaObjectEv
libdde-file-manager.so.1:_ZNK16dde_file_manager14DFMDiskManager10metaObjectEv
libdde-file-manager.so.1:_ZNK16dde_file_manager14DFMDiskManager11diskDevicesEv
libdde-file-manager.so.1:_ZNK16dde_file_manager14DFMDiskManager12blockDevicesEv
libdde-file-manager.so.1:_ZNK16dde_file_manager14DFMDiskManager12watchChangesEv
libdde-file-manager.so.1:_ZNK16dde_file_manager14DFMEventFuture10isCanceledEv
libdde-file-manager.so.1:_ZNK16dde_file_manager14DFMEventFuture10isFinishedEv
libdde-file-manager.so.1:_ZNK16dde_file_manager14DFMEventFuture28waitForFinishedWithEventLoopE6QFlagsIN10QEventLoop17ProcessEventsFlagEE
libdde-file-manager.so.1:_ZNK16dde_file_manager14DFMEventFuture6resultEv
libdde-file-manager.so.1:_ZNK16dde_file_manager14DFMEventFuture9isRunningEv
libdde-file-manager.so.1:_ZNK16dde_file_manager14DFMEventFuture9isStartedEv
libdde-file-manager.so.1:_ZNK16dde_file_manager14DFMFilePreview10metaObjectEv
libdde-file-manager.so.1:_ZNK16dde_file_manager14DFMFilePreview15statusBarWidgetEv
libdde-file-manager.so.1:_ZNK16dde_file_manager14DFMFilePreview22showStatusBarSeparatorEv
libdde-file-manager.so.1:_ZNK16dde_file_manager14DFMFilePreview24statusBarWidgetAlignmentEv
libdde-file-manager.so.1:_ZNK16dde_file_manager14DFMFilePreview5titleEv
libdde-file-manager.so.1:_ZNK16dde_file_manager14DFMSideBarItem10metaObjectEv
libdde-file-manager.so.1:_ZNK16dde_file_manager14DFMSideBarItem11itemVisibleEv
libdde-file-manager.so.1:_ZNK16dde_file_manager14DFMSideBarItem11reorderableEv
libdde-file-manager.so.1:_ZNK16dde_file_manager14DFMSideBarItem12dropMimeDataEPK9QMimeDataN2Qt10DropActionE
libdde-file-manager.so.1:_ZNK16dde_file_manager14DFMSideBarItem13contentWidgetEv
libdde-file-manager.so.1:_ZNK16dde_file_manager14DFMSideBarItem15canDropMimeDataEPK9QMimeData6QFlagsIN2Qt10DropActionEE
libdde-file-manager.so.1:_ZNK16dde_file_manager14DFMSideBarItem16canDeleteViaDragEv
libdde-file-manager.so.1:_ZNK16dde_file_manager14DFMSideBarItem18autoOpenUrlOnClickEv
libdde-file-manager.so.1:_ZNK16dde_file_manager14DFMSideBarItem25createStandardContextMenuEv
libdde-file-manager.so.1:_ZNK16dde_file_manager14DFMSideBarItem3urlEv
libdde-file-manager.so.1:_ZNK16dde_file_manager14DFMSideBarItem4textEv
libdde-file-manager.so.1:_ZNK16dde_file_manager14DFMSideBarItem7checkedEv
libdde-file-manager.so.1:_ZNK16dde_file_manager14DFMSideBarItem8readOnlyEv
libdde-file-manager.so.1:_ZNK16dde_file_manager14DFMSideBarItem9groupNameEv
libdde-file-manager.so.1:_ZNK16dde_file_manager14DFMViewManager10isRegistedERK7QStringS3_RKSt9type_info
libdde-file-manager.so.1:_ZNK16dde_file_manager14DFMViewManager10metaObjectEv
libdde-file-manager.so.1:_ZNK16dde_file_manager14DFMViewManager15createViewByUrlERK4DUrl
libdde-file-manager.so.1:_ZNK16dde_file_manager14DFMViewManager23suitedViewTypeNameByUrlERK4DUrl
libdde-file-manager.so.1:_ZNK16dde_file_manager14DFMViewManager8isSuitedERK4DUrlPKNS_11DFMBaseViewE
libdde-file-manager.so.1:_ZNK16dde_file_manager14DGIOFileDevice10metaObjectEv
libdde-file-manager.so.1:_ZNK16dde_file_manager14DGIOFileDevice12isSequentialEv
libdde-file-manager.so.1:_ZNK16dde_file_manager14DGIOFileDevice3posEv
libdde-file-manager.so.1:_ZNK16dde_file_manager14DGIOFileDevice4sizeEv
libdde-file-manager.so.1:_ZNK16dde_file_manager14DGIOFileDevice6handleEv
libdde-file-manager.so.1:_ZNK16dde_file_manager15DFMCrumbManager10isRegistedERK7QStringRKSt9type_info
libdde-file-manager.so.1:_ZNK16dde_file_manager15DFMCrumbManager10metaObjectEv
libdde-file-manager.so.1:_ZNK16dde_file_manager15DFMCrumbManager21createControllerByUrlERK4DUrlPNS_11DFMCrumbBarE
libdde-file-manager.so.1:_ZNK16dde_file_manager16DFMFactoryLoader10metaObjectEv
libdde-file-manager.so.1:_ZNK16dde_file_manager16DFMFactoryLoader12pluginLoaderERK7QString
libdde-file-manager.so.1:_ZNK16dde_file_manager16DFMFactoryLoader16getAllIndexByKeyERK7QString
libdde-file-manager.so.1:_ZNK16dde_file_manager16DFMFactoryLoader16pluginLoaderListERK7QString
libdde-file-manager.so.1:_ZNK16dde_file_manager16DFMFactoryLoader6keyMapEv
libdde-file-manager.so.1:_ZNK16dde_file_manager16DFMFactoryLoader7indexOfERK7QString
libdde-file-manager.so.1:_ZNK16dde_file_manager16DFMFactoryLoader8instanceEi
libdde-file-manager.so.1:_ZNK16dde_file_manager16DFMFactoryLoader8metaDataEv
libdde-file-manager.so.1:_ZNK16dde_file_manager16DFMGenericPlugin10metaObjectEv
libdde-file-manager.so.1:_ZNK16dde_file_manager16DFMVfsDeviceInfo10isReadOnlyEv
libdde-file-manager.so.1:_ZNK16dde_file_manager16DFMVfsDeviceInfo10totalBytesEv
libdde-file-manager.so.1:_ZNK16dde_file_manager16DFMVfsDeviceInfo11displayNameEv
libdde-file-manager.so.1:_ZNK16dde_file_manager16DFMVfsDeviceInfo14availableBytesEv
libdde-file-manager.so.1:_ZNK16dde_file_manager16DFMVfsDeviceInfo14mountpointPathEv
libdde-file-manager.so.1:_ZNK16dde_file_manager16DFMVfsDeviceInfo14vfsDeviceConstEv
libdde-file-manager.so.1:_ZNK16dde_file_manager16DFMVfsDeviceInfo16deviceUsageValidEv
libdde-file-manager.so.1:_ZNK16dde_file_manager16DFMVfsDeviceInfo4nameEv
libdde-file-manager.so.1:_ZNK16dde_file_manager16DFMVfsDeviceInfo8iconNameEv
libdde-file-manager.so.1:_ZNK16dde_file_manager16DFMVfsDeviceInfo9canRenameEv
libdde-file-manager.so.1:_ZNK16dde_file_manager16DFMVfsDeviceInfo9freeBytesEv
libdde-file-manager.so.1:_ZNK16dde_file_manager16DFileCopyMoveJob10metaObjectEv
libdde-file-manager.so.1:_ZNK16dde_file_manager16DFileCopyMoveJob11errorHandleEv
libdde-file-manager.so.1:_ZNK16dde_file_manager16DFileCopyMoveJob11errorStringEv
libdde-file-manager.so.1:_ZNK16dde_file_manager16DFileCopyMoveJob13sourceUrlListEv
libdde-file-manager.so.1:_ZNK16dde_file_manager16DFileCopyMoveJob13targetUrlListEv
libdde-file-manager.so.1:_ZNK16dde_file_manager16DFileCopyMoveJob13totalDataSizeEv
libdde-file-manager.so.1:_ZNK16dde_file_manager16DFileCopyMoveJob14completedFilesEv
libdde-file-manager.so.1:_ZNK16dde_file_manager16DFileCopyMoveJob15totalFilesCountEv
libdde-file-manager.so.1:_ZNK16dde_file_manager16DFileCopyMoveJob19completedDirectorysEv
libdde-file-manager.so.1:_ZNK16dde_file_manager16DFileCopyMoveJob24fileStatisticsIsFinishedEv
libdde-file-manager.so.1:_ZNK16dde_file_manager16DFileCopyMoveJob4modeEv
libdde-file-manager.so.1:_ZNK16dde_file_manager16DFileCopyMoveJob5errorEv
libdde-file-manager.so.1:_ZNK16dde_file_manager16DFileCopyMoveJob5stateEv
libdde-file-manager.so.1:_ZNK16dde_file_manager16DFileCopyMoveJob9fileHintsEv
libdde-file-manager.so.1:_ZNK16dde_file_manager16DFileCopyMoveJob9targetUrlEv
libdde-file-manager.so.1:_ZNK16dde_file_manager16DLocalFileDevice6handleEv
libdde-file-manager.so.1:_ZNK16dde_file_manager17DFMBlockPartition10metaObjectEv
libdde-file-manager.so.1:_ZNK16dde_file_manager17DFMBlockPartition11isContainedEv
libdde-file-manager.so.1:_ZNK16dde_file_manager17DFMBlockPartition11isContainerEv
libdde-file-manager.so.1:_ZNK16dde_file_manager17DFMBlockPartition4UUIDEv
libdde-file-manager.so.1:_ZNK16dde_file_manager17DFMBlockPartition4nameEv
libdde-file-manager.so.1:_ZNK16dde_file_manager17DFMBlockPartition4sizeEv
libdde-file-manager.so.1:_ZNK16dde_file_manager17DFMBlockPartition4typeEv
libdde-file-manager.so.1:_ZNK16dde_file_manager17DFMBlockPartition5eTypeEv
libdde-file-manager.so.1:_ZNK16dde_file_manager17DFMBlockPartition5flagsEv
libdde-file-manager.so.1:_ZNK16dde_file_manager17DFMBlockPartition5tableEv
libdde-file-manager.so.1:_ZNK16dde_file_manager17DFMBlockPartition6numberEv
libdde-file-manager.so.1:_ZNK16dde_file_manager17DFMBlockPartition6offsetEv
libdde-file-manager.so.1:_ZNK16dde_file_manager17DFMBlockPartition8guidTypeEv
libdde-file-manager.so.1:_ZNK16dde_file_manager17DFMCrumbInterface10metaObjectEv
libdde-file-manager.so.1:_ZNK16dde_file_manager17DFMSideBarPrivate19appendListWithOrderE5QListIPNS_14DFMSideBarItemEEPNS_19DFMSideBarItemGroupE
libdde-file-manager.so.1:_ZNK16dde_file_manager17DFMSideBarTagItem10metaObjectEv
libdde-file-manager.so.1:_ZNK16dde_file_manager17DFMSideBarTagItem25createStandardContextMenuEv
libdde-file-manager.so.1:_ZNK16dde_file_manager17DFileIconProvider4iconERK9DFileInfoRK5QIcon
libdde-file-manager.so.1:_ZNK16dde_file_manager17DFileIconProvider4iconERK9QFileInfo
libdde-file-manager.so.1:_ZNK16dde_file_manager17DFileIconProvider4iconERK9QFileInfoRK5QIcon
libdde-file-manager.so.1:_ZNK16dde_file_manager17FilePreviewDialog10metaObjectEv
libdde-file-manager.so.1:_ZNK16dde_file_manager17UnknowFilePreview10metaObjectEv
libdde-file-manager.so.1:_ZNK16dde_file_manager17UnknowFilePreview13contentWidgetEv
libdde-file-manager.so.1:_ZNK16dde_file_manager18DCompleterListView10metaObjectEv
libdde-file-manager.so.1:_ZNK16dde_file_manager18DFMEventDispatcher10metaObjectEv
libdde-file-manager.so.1:_ZNK16dde_file_manager18DFMEventDispatcher5stateEv
libdde-file-manager.so.1:_ZNK16dde_file_manager18DFMSideBarHomeItem25createStandardContextMenuEv
libdde-file-manager.so.1:_ZNK16dde_file_manager18DFMSideBarRootItem25createStandardContextMenuEv
libdde-file-manager.so.1:_ZNK16dde_file_manager18DFileIODeviceProxy12bytesToWriteEv
libdde-file-manager.so.1:_ZNK16dde_file_manager18DFileIODeviceProxy12isSequentialEv
libdde-file-manager.so.1:_ZNK16dde_file_manager18DFileIODeviceProxy14bytesAvailableEv
libdde-file-manager.so.1:_ZNK16dde_file_manager18DFileIODeviceProxy3posEv
libdde-file-manager.so.1:_ZNK16dde_file_manager18DFileIODeviceProxy4sizeEv
libdde-file-manager.so.1:_ZNK16dde_file_manager18DFileIODeviceProxy5atEndEv
libdde-file-manager.so.1:_ZNK16dde_file_manager18DFileIODeviceProxy6deviceEv
libdde-file-manager.so.1:_ZNK16dde_file_manager18DFileStatisticsJob10filesCountEv
libdde-file-manager.so.1:_ZNK16dde_file_manager18DFileStatisticsJob10metaObjectEv
libdde-file-manager.so.1:_ZNK16dde_file_manager18DFileStatisticsJob15directorysCountEv
libdde-file-manager.so.1:_ZNK16dde_file_manager18DFileStatisticsJob5stateEv
libdde-file-manager.so.1:_ZNK16dde_file_manager18DFileStatisticsJob9fileHintsEv
libdde-file-manager.so.1:_ZNK16dde_file_manager18DFileStatisticsJob9totalSizeEv
libdde-file-manager.so.1:_ZNK16dde_file_manager18DThumbnailProvider10metaObjectEv
libdde-file-manager.so.1:_ZNK16dde_file_manager18DThumbnailProvider11errorStringEv
libdde-file-manager.so.1:_ZNK16dde_file_manager18DThumbnailProvider12hasThumbnailERK9QFileInfo
libdde-file-manager.so.1:_ZNK16dde_file_manager18DThumbnailProvider12hasThumbnailERK9QMimeType
libdde-file-manager.so.1:_ZNK16dde_file_manager18DThumbnailProvider16defaultSizeLimitEv
libdde-file-manager.so.1:_ZNK16dde_file_manager18DThumbnailProvider16thumbnailChangedERK7QStringS3_
libdde-file-manager.so.1:_ZNK16dde_file_manager18DThumbnailProvider17thumbnailFilePathERK9QFileInfoNS0_4SizeE
libdde-file-manager.so.1:_ZNK16dde_file_manager18DThumbnailProvider21createThumbnailFailedERK7QString
libdde-file-manager.so.1:_ZNK16dde_file_manager18DThumbnailProvider23createThumbnailFinishedERK7QStringS3_
libdde-file-manager.so.1:_ZNK16dde_file_manager18DThumbnailProvider9sizeLimitERK9QMimeType
libdde-file-manager.so.1:_ZNK16dde_file_manager19DFMAdvanceSearchBar10metaObjectEv
libdde-file-manager.so.1:_ZNK16dde_file_manager19DFMCrumbItemPrivate25createStandardContextMenuEv
libdde-file-manager.so.1:_ZNK16dde_file_manager19DFMCrumbItemPrivate4iconEv
libdde-file-manager.so.1:_ZNK16dde_file_manager19DFMCrumbItemPrivate8getStateEv
libdde-file-manager.so.1:_ZNK16dde_file_manager19DFMSideBarItemGroup10metaObjectEv
libdde-file-manager.so.1:_ZNK16dde_file_manager19DFMSideBarItemGroup16visibleItemCountEv
libdde-file-manager.so.1:_ZNK16dde_file_manager19DFMSideBarItemGroup9itemCountEv
libdde-file-manager.so.1:_ZNK16dde_file_manager19DFMSideBarItemGroup9itemIndexEPKNS_14DFMSideBarItemE
libdde-file-manager.so.1:_ZNK16dde_file_manager19DFMSideBarTrashItem25createStandardContextMenuEv
libdde-file-manager.so.1:_ZNK16dde_file_manager19DFMVfsDevicePrivate12createGMountEv
libdde-file-manager.so.1:_ZNK16dde_file_manager19DFMVfsDevicePrivate12getGFileInfoEv
libdde-file-manager.so.1:_ZNK16dde_file_manager19DFMVfsDevicePrivate14createRootFileEv
libdde-file-manager.so.1:_ZNK16dde_file_manager19DFMVfsDevicePrivate18createRootFileInfoEv
libdde-file-manager.so.1:_ZNK16dde_file_manager19DFMVfsDevicePrivate8getGFileEv
libdde-file-manager.so.1:_ZNK16dde_file_manager19DFMVfsDevicePrivate9getGMountEv
libdde-file-manager.so.1:_ZNK16dde_file_manager19DFileWatcherManager10metaObjectEv
libdde-file-manager.so.1:_ZNK16dde_file_manager20DFMFilePreviewPlugin10metaObjectEv
libdde-file-manager.so.1:_ZNK16dde_file_manager20DFMInvalidDeviceInfo10isReadOnlyEv
libdde-file-manager.so.1:_ZNK16dde_file_manager20DFMInvalidDeviceInfo10totalBytesEv
libdde-file-manager.so.1:_ZNK16dde_file_manager20DFMInvalidDeviceInfo11displayNameEv
libdde-file-manager.so.1:_ZNK16dde_file_manager20DFMInvalidDeviceInfo14availableBytesEv
libdde-file-manager.so.1:_ZNK16dde_file_manager20DFMInvalidDeviceInfo14mountpointPathEv
libdde-file-manager.so.1:_ZNK16dde_file_manager20DFMInvalidDeviceInfo16deviceUsageValidEv
libdde-file-manager.so.1:_ZNK16dde_file_manager20DFMInvalidDeviceInfo4nameEv
libdde-file-manager.so.1:_ZNK16dde_file_manager20DFMInvalidDeviceInfo8iconNameEv
libdde-file-manager.so.1:_ZNK16dde_file_manager20DFMInvalidDeviceInfo9canRenameEv
libdde-file-manager.so.1:_ZNK16dde_file_manager20DFMInvalidDeviceInfo9freeBytesEv
libdde-file-manager.so.1:_ZNK16dde_file_manager20DFMSideBarDeviceItem10metaObjectEv
libdde-file-manager.so.1:_ZNK16dde_file_manager20DFMSideBarDeviceItem21getExtensionPropertysEv
libdde-file-manager.so.1:_ZNK16dde_file_manager20DFMSideBarDeviceItem25createStandardContextMenuEv
libdde-file-manager.so.1:_ZNK16dde_file_manager20DFMSideBarRecentItem10metaObjectEv
libdde-file-manager.so.1:_ZNK16dde_file_manager20DFMSideBarRecentItem25createStandardContextMenuEv
libdde-file-manager.so.1:_ZNK16dde_file_manager20DFMUdisks2DeviceInfo10isReadOnlyEv
libdde-file-manager.so.1:_ZNK16dde_file_manager20DFMUdisks2DeviceInfo10totalBytesEv
libdde-file-manager.so.1:_ZNK16dde_file_manager20DFMUdisks2DeviceInfo11displayNameEv
libdde-file-manager.so.1:_ZNK16dde_file_manager20DFMUdisks2DeviceInfo14availableBytesEv
libdde-file-manager.so.1:_ZNK16dde_file_manager20DFMUdisks2DeviceInfo14mountpointPathEv
libdde-file-manager.so.1:_ZNK16dde_file_manager20DFMUdisks2DeviceInfo16blockDeviceConstEv
libdde-file-manager.so.1:_ZNK16dde_file_manager20DFMUdisks2DeviceInfo16deviceUsageValidEv
libdde-file-manager.so.1:_ZNK16dde_file_manager20DFMUdisks2DeviceInfo4nameEv
libdde-file-manager.so.1:_ZNK16dde_file_manager20DFMUdisks2DeviceInfo8iconNameEv
libdde-file-manager.so.1:_ZNK16dde_file_manager20DFMUdisks2DeviceInfo9canRenameEv
libdde-file-manager.so.1:_ZNK16dde_file_manager20DFMUdisks2DeviceInfo9freeBytesEv
libdde-file-manager.so.1:_ZNK16dde_file_manager21DFMSideBarDefaultItem10metaObjectEv
libdde-file-manager.so.1:_ZNK16dde_file_manager21DFMSideBarItemPrivate11reorderLineEv
libdde-file-manager.so.1:_ZNK16dde_file_manager21DFMSideBarItemPrivate4iconENS_11ThemeConfig5StateE
libdde-file-manager.so.1:_ZNK16dde_file_manager21DFMSideBarItemPrivate4iconEv
libdde-file-manager.so.1:_ZNK16dde_file_manager21DFMSideBarItemPrivate8getStateEv
libdde-file-manager.so.1:_ZNK16dde_file_manager21DFMSideBarNetworkItem10metaObjectEv
libdde-file-manager.so.1:_ZNK16dde_file_manager21DFMSideBarNetworkItem25createStandardContextMenuEv
libdde-file-manager.so.1:_ZNK16dde_file_manager22DFMFileCrumbController14getDisplayNameERK7QString
libdde-file-manager.so.1:_ZNK16dde_file_manager22DFMSideBarBookmarkItem10metaObjectEv
libdde-file-manager.so.1:_ZNK16dde_file_manager22DFMSideBarBookmarkItem25createStandardContextMenuEv
libdde-file-manager.so.1:_ZNK16dde_file_manager23DFMAbstractEventHandler6objectEv
libdde-file-manager.so.1:_ZNK16dde_file_manager23DFMFileControllerPlugin10metaObjectEv
libdde-file-manager.so.1:_ZNK16dde_file_manager23DFMSideBarItemSeparator10metaObjectEv
libdde-file-manager.so.1:_ZNK16dde_file_manager23DFileCopyMoveJobPrivate13checkFileSizeEx
libdde-file-manager.so.1:_ZNK16dde_file_manager23DFileCopyMoveJobPrivate13getWriteBytesEv
libdde-file-manager.so.1:_ZNK16dde_file_manager23DFileCopyMoveJobPrivate14formatFileNameERK7QString
libdde-file-manager.so.1:_ZNK16dde_file_manager23DFileCopyMoveJobPrivate17getSectorsWrittenEv
libdde-file-manager.so.1:_ZNK16dde_file_manager23DFileCopyMoveJobPrivate20getCompletedDataSizeEv
libdde-file-manager.so.1:_ZNK16dde_file_manager24DFMRecentCrumbController10metaObjectEv
libdde-file-manager.so.1:_ZNK16dde_file_manager24DFileIconProviderPrivate17getFilesystemIconERK9QFileInfo
libdde-file-manager.so.1:_ZNK16dde_file_manager24DFileIconProviderPrivate9fromThemeE7QString
libdde-file-manager.so.1:_ZNK16dde_file_manager25DThumbnailProviderPrivate14sizeToFilePathENS_18DThumbnailProvider4SizeE
libdde-file-manager.so.1:_ZNK16dde_file_manager26FilePreviewDialogStatusBar10metaObjectEv
libdde-file-manager.so.1:_ZNK16dde_file_manager26FilePreviewDialogStatusBar10nextButtonEv
libdde-file-manager.so.1:_ZNK16dde_file_manager26FilePreviewDialogStatusBar10openButtonEv
libdde-file-manager.so.1:_ZNK16dde_file_manager26FilePreviewDialogStatusBar5titleEv
libdde-file-manager.so.1:_ZNK16dde_file_manager26FilePreviewDialogStatusBar9preButtonEv
libdde-file-manager.so.1:_ZNK16dde_file_manager28DCompleterStyledItemDelegate10metaObjectEv
libdde-file-manager.so.1:_ZNK16dde_file_manager28DCompleterStyledItemDelegate5paintEP8QPainterRK20QStyleOptionViewItemRK11QModelIndex
libdde-file-manager.so.1:_ZNK16dde_file_manager28DCompleterStyledItemDelegate8sizeHintERK20QStyleOptionViewItemRK11QModelIndex
libdde-file-manager.so.1:_ZNK16dde_file_manager9CrumbDatacv7QStringEv
libdde-file-manager.so.1:_ZNK17DAbstractFileInfo10filesCountEv
libdde-file-manager.so.1:_ZNK17DAbstractFileInfo10hasOrderlyEv
libdde-file-manager.so.1:_ZNK17DAbstractFileInfo10isAbsoluteEv
libdde-file-manager.so.1:_ZNK17DAbstractFileInfo10isReadableEv
libdde-file-manager.so.1:_ZNK17DAbstractFileInfo10isRelativeEv
libdde-file-manager.so.1:_ZNK17DAbstractFileInfo10isWritableEv
libdde-file-manager.so.1:_ZNK17DAbstractFileInfo10loadingTipEv
libdde-file-manager.so.1:_ZNK17DAbstractFileInfo10permissionE6QFlagsIN11QFileDevice10PermissionEE
libdde-file-manager.so.1:_ZNK17DAbstractFileInfo11mimeDataUrlEv
libdde-file-manager.so.1:_ZNK17DAbstractFileInfo11permissionsEv
libdde-file-manager.so.1:_ZNK17DAbstractFileInfo11toLocalFileEv
libdde-file-manager.so.1:_ZNK17DAbstractFileInfo11toQFileInfoEv
libdde-file-manager.so.1:_ZNK17DAbstractFileInfo12absolutePathEv
libdde-file-manager.so.1:_ZNK17DAbstractFileInfo12isExecutableEv
libdde-file-manager.so.1:_ZNK17DAbstractFileInfo12lastModifiedEv
libdde-file-manager.so.1:_ZNK17DAbstractFileInfo13isDesktopFileEv
libdde-file-manager.so.1:_ZNK17DAbstractFileInfo13isEmptyFloderERK6QFlagsIN4QDir6FilterEE
libdde-file-manager.so.1:_ZNK17DAbstractFileInfo13parentUrlListEv
libdde-file-manager.so.1:_ZNK17DAbstractFileInfo13symLinkTargetEv
libdde-file-manager.so.1:_ZNK17DAbstractFileInfo13userRowHeightERK12QFontMetrics
libdde-file-manager.so.1:_ZNK17DAbstractFileInfo13userRowHeightEv
libdde-file-manager.so.1:_ZNK17DAbstractFileInfo14additionalIconEv
libdde-file-manager.so.1:_ZNK17DAbstractFileInfo14canIteratorDirEv
libdde-file-manager.so.1:_ZNK17DAbstractFileInfo14completeSuffixEv
libdde-file-manager.so.1:_ZNK17DAbstractFileInfo14createIODeviceEv
libdde-file-manager.so.1:_ZNK17DAbstractFileInfo14fileSharedNameEv
libdde-file-manager.so.1:_ZNK17DAbstractFileInfo14isAncestorsUrlERK4DUrlP5QListIS0_E
libdde-file-manager.so.1:_ZNK17DAbstractFileInfo14menuActionListENS_8MenuTypeE
libdde-file-manager.so.1:_ZNK17DAbstractFileInfo14suffixOfRenameEv
libdde-file-manager.so.1:_ZNK17DAbstractFileInfo14userColumnDataEi
libdde-file-manager.so.1:_ZNK17DAbstractFileInfo15columnIsCompactEv
libdde-file-manager.so.1:_ZNK17DAbstractFileInfo15fileDisplayNameEv
libdde-file-manager.so.1:_ZNK17DAbstractFileInfo15genericIconNameEv
libdde-file-manager.so.1:_ZNK17DAbstractFileInfo15sizeDisplayNameEv
libdde-file-manager.so.1:_ZNK17DAbstractFileInfo15supportViewModeEv
libdde-file-manager.so.1:_ZNK17DAbstractFileInfo15userColumnRolesEv
libdde-file-manager.so.1:_ZNK17DAbstractFileInfo15userColumnWidthEi
libdde-file-manager.so.1:_ZNK17DAbstractFileInfo15userColumnWidthEiRK12QFontMetrics
libdde-file-manager.so.1:_ZNK17DAbstractFileInfo16absoluteFilePathEv
libdde-file-manager.so.1:_ZNK17DAbstractFileInfo16baseNameOfRenameEv
libdde-file-manager.so.1:_ZNK17DAbstractFileInfo16fileNameOfRenameEv
libdde-file-manager.so.1:_ZNK17DAbstractFileInfo16isWritableSharedEv
libdde-file-manager.so.1:_ZNK17DAbstractFileInfo17redirectedFileUrlEv
libdde-file-manager.so.1:_ZNK17DAbstractFileInfo17rootSymLinkTargetEv
libdde-file-manager.so.1:_ZNK17DAbstractFileInfo17subMenuActionListEv
libdde-file-manager.so.1:_ZNK17DAbstractFileInfo17symlinkTargetPathEv
libdde-file-manager.so.1:_ZNK17DAbstractFileInfo18compareFunByColumnEi
libdde-file-manager.so.1:_ZNK17DAbstractFileInfo18createdDisplayNameEv
libdde-file-manager.so.1:_ZNK17DAbstractFileInfo18extensionPropertysEv
libdde-file-manager.so.1:_ZNK17DAbstractFileInfo18goToUrlWhenDeletedEv
libdde-file-manager.so.1:_ZNK17DAbstractFileInfo18isAllowGuestSharedEv
libdde-file-manager.so.1:_ZNK17DAbstractFileInfo19fileTypeDisplayNameEv
libdde-file-manager.so.1:_ZNK17DAbstractFileInfo19getUrlByNewFileNameERK7QString
libdde-file-manager.so.1:_ZNK17DAbstractFileInfo19lastReadDisplayNameEv
libdde-file-manager.so.1:_ZNK17DAbstractFileInfo19mimeTypeDisplayNameEv
libdde-file-manager.so.1:_ZNK17DAbstractFileInfo20fileItemDisableFlagsEv
libdde-file-manager.so.1:_ZNK17DAbstractFileInfo20supportedDragActionsEv
libdde-file-manager.so.1:_ZNK17DAbstractFileInfo20supportedDropActionsEv
libdde-file-manager.so.1:_ZNK17DAbstractFileInfo20userColumnChildRolesEi
libdde-file-manager.so.1:_ZNK17DAbstractFileInfo21canRedirectionFileUrlEv
libdde-file-manager.so.1:_ZNK17DAbstractFileInfo21disableMenuActionListEv
libdde-file-manager.so.1:_ZNK17DAbstractFileInfo21fileDisplayPinyinNameEv
libdde-file-manager.so.1:_ZNK17DAbstractFileInfo21getUrlByChildFileNameERK7QString
libdde-file-manager.so.1:_ZNK17DAbstractFileInfo21supportSelectionModesEv
libdde-file-manager.so.1:_ZNK17DAbstractFileInfo21userColumnDisplayNameEi
libdde-file-manager.so.1:_ZNK17DAbstractFileInfo22menuActionByColumnRoleEi
libdde-file-manager.so.1:_ZNK17DAbstractFileInfo22subtitleForEmptyFloderEv
libdde-file-manager.so.1:_ZNK17DAbstractFileInfo23lastModifiedDisplayNameEv
libdde-file-manager.so.1:_ZNK17DAbstractFileInfo27columnDefaultVisibleForRoleEi
libdde-file-manager.so.1:_ZNK17DAbstractFileInfo32sortSubMenuActionUserColumnRolesEv
libdde-file-manager.so.1:_ZNK17DAbstractFileInfo4pathEv
libdde-file-manager.so.1:_ZNK17DAbstractFileInfo4sizeEv
libdde-file-manager.so.1:_ZNK17DAbstractFileInfo5groupEv
libdde-file-manager.so.1:_ZNK17DAbstractFileInfo5isDirEv
libdde-file-manager.so.1:_ZNK17DAbstractFileInfo5ownerEv
libdde-file-manager.so.1:_ZNK17DAbstractFileInfo6existsEv
libdde-file-manager.so.1:_ZNK17DAbstractFileInfo6isFileEv
libdde-file-manager.so.1:_ZNK17DAbstractFileInfo6suffixEv
libdde-file-manager.so.1:_ZNK17DAbstractFileInfo7canDropEv
libdde-file-manager.so.1:_ZNK17DAbstractFileInfo7createdEv
libdde-file-manager.so.1:_ZNK17DAbstractFileInfo7fileUrlEv
libdde-file-manager.so.1:_ZNK17DAbstractFileInfo7groupIdEv
libdde-file-manager.so.1:_ZNK17DAbstractFileInfo7isTagedEv
libdde-file-manager.so.1:_ZNK17DAbstractFileInfo7ownerIdEv
libdde-file-manager.so.1:_ZNK17DAbstractFileInfo8baseNameEv
libdde-file-manager.so.1:_ZNK17DAbstractFileInfo8canFetchEv
libdde-file-manager.so.1:_ZNK17DAbstractFileInfo8canShareEv
libdde-file-manager.so.1:_ZNK17DAbstractFileInfo8fileIconEv
libdde-file-manager.so.1:_ZNK17DAbstractFileInfo8fileNameEv
libdde-file-manager.so.1:_ZNK17DAbstractFileInfo8filePathEv
libdde-file-manager.so.1:_ZNK17DAbstractFileInfo8fileSizeEv
libdde-file-manager.so.1:_ZNK17DAbstractFileInfo8fileTypeEv
libdde-file-manager.so.1:_ZNK17DAbstractFileInfo8iconNameEv
libdde-file-manager.so.1:_ZNK17DAbstractFileInfo8isActiveEv
libdde-file-manager.so.1:_ZNK17DAbstractFileInfo8isHiddenEv
libdde-file-manager.so.1:_ZNK17DAbstractFileInfo8isSharedEv
libdde-file-manager.so.1:_ZNK17DAbstractFileInfo8lastReadEv
libdde-file-manager.so.1:_ZNK17DAbstractFileInfo8mimeTypeEN13QMimeDatabase9MatchModeE
libdde-file-manager.so.1:_ZNK17DAbstractFileInfo9canRenameEv
libdde-file-manager.so.1:_ZNK17DAbstractFileInfo9isPrivateEv
libdde-file-manager.so.1:_ZNK17DAbstractFileInfo9isSymLinkEv
libdde-file-manager.so.1:_ZNK17DAbstractFileInfo9parentUrlEv
libdde-file-manager.so.1:_ZNK17DFMFileShareEvnet10allowGuestEv
libdde-file-manager.so.1:_ZNK17DFMFileShareEvnet10isWritableEv
libdde-file-manager.so.1:_ZNK17DFMFileShareEvnet4nameEv
libdde-file-manager.so.1:_ZNK17DFMSplitterHandle10metaObjectEv
libdde-file-manager.so.1:_ZNK17DFileDialogHandle10acceptModeEv
libdde-file-manager.so.1:_ZNK17DFileDialogHandle10metaObjectEv
libdde-file-manager.so.1:_ZNK17DFileDialogHandle10testOptionEN11QFileDialog6OptionE
libdde-file-manager.so.1:_ZNK17DFileDialogHandle11nameFiltersEv
libdde-file-manager.so.1:_ZNK17DFileDialogHandle12directoryUrlEv
libdde-file-manager.so.1:_ZNK17DFileDialogHandle12hideOnAcceptEv
libdde-file-manager.so.1:_ZNK17DFileDialogHandle12selectedUrlsEv
libdde-file-manager.so.1:_ZNK17DFileDialogHandle13selectedFilesEv
libdde-file-manager.so.1:_ZNK17DFileDialogHandle18selectedNameFilterEv
libdde-file-manager.so.1:_ZNK17DFileDialogHandle20getCustomWidgetValueEiRK7QString
libdde-file-manager.so.1:_ZNK17DFileDialogHandle21allCustomWidgetsValueEi
libdde-file-manager.so.1:_ZNK17DFileDialogHandle23selectedNameFilterIndexEv
libdde-file-manager.so.1:_ZNK17DFileDialogHandle6filterEv
libdde-file-manager.so.1:_ZNK17DFileDialogHandle6widgetEv
libdde-file-manager.so.1:_ZNK17DFileDialogHandle7optionsEv
libdde-file-manager.so.1:_ZNK17DFileDialogHandle8viewModeEv
libdde-file-manager.so.1:_ZNK17DFileDialogHandle9directoryEv
libdde-file-manager.so.1:_ZNK17DFileDialogHandle9labelTextEN11QFileDialog11DialogLabelE
libdde-file-manager.so.1:_ZNK17DIconItemDelegate10metaObjectEv
libdde-file-manager.so.1:_ZNK17DIconItemDelegate12createEditorEP7QWidgetRK20QStyleOptionViewItemRK11QModelIndex
libdde-file-manager.so.1:_ZNK17DIconItemDelegate13expandedIndexEv
libdde-file-manager.so.1:_ZNK17DIconItemDelegate13iconSizeLevelEv
libdde-file-manager.so.1:_ZNK17DIconItemDelegate13setEditorDataEP7QWidgetRK11QModelIndex
libdde-file-manager.so.1:_ZNK17DIconItemDelegate14initTextLayoutERK11QModelIndexP11QTextLayout
libdde-file-manager.so.1:_ZNK17DIconItemDelegate14paintGeomertysERK20QStyleOptionViewItemRK11QModelIndexb
libdde-file-manager.so.1:_ZNK17DIconItemDelegate15hasWidgetIndexsEv
libdde-file-manager.so.1:_ZNK17DIconItemDelegate17enabledTextShadowEv
libdde-file-manager.so.1:_ZNK17DIconItemDelegate19expandedIndexWidgetEv
libdde-file-manager.so.1:_ZNK17DIconItemDelegate20maximumIconSizeLevelEv
libdde-file-manager.so.1:_ZNK17DIconItemDelegate20minimumIconSizeLevelEv
libdde-file-manager.so.1:_ZNK17DIconItemDelegate20updateEditorGeometryEP7QWidgetRK20QStyleOptionViewItemRK11QModelIndex
libdde-file-manager.so.1:_ZNK17DIconItemDelegate23iconSizeByIconSizeLevelEv
libdde-file-manager.so.1:_ZNK17DIconItemDelegate30focusTextBackgroundBorderColorEv
libdde-file-manager.so.1:_ZNK17DIconItemDelegate5paintEP8QPainterRK20QStyleOptionViewItemRK11QModelIndex
libdde-file-manager.so.1:_ZNK17DIconItemDelegate8drawTextERK11QModelIndexP8QPainterP11QTextLayoutRK6QRectFdRK6QBrushN11QTextOption8WrapModeEN2Qt13TextElideModeEiRK6QColor
libdde-file-manager.so.1:_ZNK17DIconItemDelegate8sizeHintERK20QStyleOptionViewItemRK11QModelIndex
libdde-file-manager.so.1:_ZNK17DListItemDelegate12createEditorEP7QWidgetRK20QStyleOptionViewItemRK11QModelIndex
libdde-file-manager.so.1:_ZNK17DListItemDelegate13setEditorDataEP7QWidgetRK11QModelIndex
libdde-file-manager.so.1:_ZNK17DListItemDelegate14paintGeomertysERK20QStyleOptionViewItemRK11QModelIndexb
libdde-file-manager.so.1:_ZNK17DListItemDelegate17drawNotStringDataERK20QStyleOptionViewItemiRK5QRectRK8QVariantbP8QPainterRKi
libdde-file-manager.so.1:_ZNK17DListItemDelegate20updateEditorGeometryEP7QWidgetRK20QStyleOptionViewItemRK11QModelIndex
libdde-file-manager.so.1:_ZNK17DListItemDelegate5paintEP8QPainterRK20QStyleOptionViewItemRK11QModelIndex
libdde-file-manager.so.1:_ZNK17DListItemDelegate8sizeHintERK20QStyleOptionViewItemRK11QModelIndex
libdde-file-manager.so.1:_ZNK17FileSignalManager10metaObjectEv
libdde-file-manager.so.1:_ZNK17FileSignalManager11iconChangedERK4DUrlRK5QIcon
libdde-file-manager.so.1:_ZNK17FileSignalManager11requestIconERK4DUrl
libdde-file-manager.so.1:_ZNK17NetworkController10metaObjectEv
libdde-file-manager.so.1:_ZNK17NetworkController11getChildrenERK14QSharedPointerI20DFMGetChildrensEventE
libdde-file-manager.so.1:_ZNK17NetworkController14createFileInfoERK14QSharedPointerI22DFMCreateFileInfoEvnetE
libdde-file-manager.so.1:_ZNK17NetworkController17createDirIteratorERK14QSharedPointerI20DFMCreateDiriteratorE
libdde-file-manager.so.1:_ZNK17RecentDirIterator3urlEv
libdde-file-manager.so.1:_ZNK17RecentDirIterator7fileUrlEv
libdde-file-manager.so.1:_ZNK17RecentDirIterator7hasNextEv
libdde-file-manager.so.1:_ZNK17RecentDirIterator8fileInfoEv
libdde-file-manager.so.1:_ZNK17RecentDirIterator8fileNameEv
libdde-file-manager.so.1:_ZNK17SearchDiriterator3urlEv
libdde-file-manager.so.1:_ZNK17SearchDiriterator7fileUrlEv
libdde-file-manager.so.1:_ZNK17SearchDiriterator7hasNextEv
libdde-file-manager.so.1:_ZNK17SearchDiriterator8fileInfoEv
libdde-file-manager.so.1:_ZNK17SearchDiriterator8fileNameEv
libdde-file-manager.so.1:_ZNK17SectionValueLabel10metaObjectEv
libdde-file-manager.so.1:_ZNK18AVFSFileController10metaObjectEv
libdde-file-manager.so.1:_ZNK18AVFSFileController13openFileByAppERK14QSharedPointerI21DFMOpenFileByAppEventE
libdde-file-manager.so.1:_ZNK18AVFSFileController14createFileInfoERK14QSharedPointerI22DFMCreateFileInfoEvnetE
libdde-file-manager.so.1:_ZNK18AVFSFileController14openInTerminalERK14QSharedPointerI22DFMOpenInTerminalEventE
libdde-file-manager.so.1:_ZNK18AVFSFileController16openFileLocationERK14QSharedPointerI19DFMOpenFileLocationE
libdde-file-manager.so.1:_ZNK18AVFSFileController17createDirIteratorERK14QSharedPointerI20DFMCreateDiriteratorE
libdde-file-manager.so.1:_ZNK18AVFSFileController17createFileWatcherERK14QSharedPointerI25DFMCreateFileWatcherEventE
libdde-file-manager.so.1:_ZNK18AVFSFileController21writeFilesToClipboardERK14QSharedPointerI28DFMWriteUrlsToClipboardEventE
libdde-file-manager.so.1:_ZNK18AVFSFileController8openFileERK14QSharedPointerI16DFMOpenFileEventE
libdde-file-manager.so.1:_ZNK18DFMMenuActionEvent10currentUrlEv
libdde-file-manager.so.1:_ZNK18DFMMenuActionEvent12selectedUrlsEv
libdde-file-manager.so.1:_ZNK18DFMMenuActionEvent4menuEv
libdde-file-manager.so.1:_ZNK18DFMMenuActionEvent6actionEv
libdde-file-manager.so.1:_ZNK18DFileManagerWindow10currentUrlEv
libdde-file-manager.so.1:_ZNK18DFileManagerWindow10getToolBarEv
libdde-file-manager.so.1:_ZNK18DFileManagerWindow10metaObjectEv
libdde-file-manager.so.1:_ZNK18DFileManagerWindow10tabAddableEv
libdde-file-manager.so.1:_ZNK18DFileManagerWindow11getFileViewEv
libdde-file-manager.so.1:_ZNK18DFileManagerWindow14getLeftSideBarEv
libdde-file-manager.so.1:_ZNK18DFileManagerWindow16currentViewStateEv
libdde-file-manager.so.1:_ZNK18DFileManagerWindow19getSplitterPositionEv
libdde-file-manager.so.1:_ZNK18DFileManagerWindow28onReuqestCacheRenameBarStateEv
libdde-file-manager.so.1:_ZNK18DFileManagerWindow6objectEv
libdde-file-manager.so.1:_ZNK18DFileSystemWatcher10metaObjectEv
libdde-file-manager.so.1:_ZNK18DFileSystemWatcher11directoriesEv
libdde-file-manager.so.1:_ZNK18DFileSystemWatcher5filesEv
libdde-file-manager.so.1:_ZNK18DQuickSearchFilter10metaObjectEv
libdde-file-manager.so.1:_ZNK18DQuickSearchFilter24whetherFilterCurrentFileERK10QByteArray
libdde-file-manager.so.1:_ZNK18DefaultDiriterator3urlEv
libdde-file-manager.so.1:_ZNK18DefaultDiriterator7fileUrlEv
libdde-file-manager.so.1:_ZNK18DefaultDiriterator7hasNextEv
libdde-file-manager.so.1:_ZNK18DefaultDiriterator8fileInfoEv
libdde-file-manager.so.1:_ZNK18DefaultDiriterator8fileNameEv
libdde-file-manager.so.1:_ZNK18DiskMountInterface10metaObjectEv
libdde-file-manager.so.1:_ZNK18MoveCopyTaskWidget10metaObjectEv
libdde-file-manager.so.1:_ZNK18MoveCopyTaskWidget11errorHandleEv
libdde-file-manager.so.1:_ZNK18UserShareInterface10metaObjectEv
libdde-file-manager.so.1:_ZNK19DFMDeviceController10metaObjectEv
libdde-file-manager.so.1:_ZNK19DFMDeviceController11getChildrenERK14QSharedPointerI20DFMGetChildrensEventE
libdde-file-manager.so.1:_ZNK19DFMDeviceController14createFileInfoERK14QSharedPointerI22DFMCreateFileInfoEvnetE
libdde-file-manager.so.1:_ZNK19DFMDeviceController17createFileWatcherERK14QSharedPointerI25DFMCreateFileWatcherEventE
libdde-file-manager.so.1:_ZNK19DFMSetFileTagsEvent4tagsEv
libdde-file-manager.so.1:_ZNK19DFileSelectionModel10isSelectedERK11QModelIndex
libdde-file-manager.so.1:_ZNK19DFileSelectionModel13selectedCountEv
libdde-file-manager.so.1:_ZNK19DFileSelectionModel15selectedIndexesEv
libdde-file-manager.so.1:_ZNK19DStyledItemDelegate10metaObjectEv
libdde-file-manager.so.1:_ZNK19DStyledItemDelegate11displayTextERK8QVariantRK7QLocale
libdde-file-manager.so.1:_ZNK19DStyledItemDelegate12editingIndexEv
libdde-file-manager.so.1:_ZNK19DStyledItemDelegate12fileNameRectERK20QStyleOptionViewItemRK11QModelIndex
libdde-file-manager.so.1:_ZNK19DStyledItemDelegate13destroyEditorEP7QWidgetRK11QModelIndex
libdde-file-manager.so.1:_ZNK19DStyledItemDelegate13iconSizeLevelEv
libdde-file-manager.so.1:_ZNK19DStyledItemDelegate14initTextLayoutERK11QModelIndexP11QTextLayout
libdde-file-manager.so.1:_ZNK19DStyledItemDelegate15hasWidgetIndexsEv
libdde-file-manager.so.1:_ZNK19DStyledItemDelegate15initStyleOptionEP20QStyleOptionViewItemRK11QModelIndex
libdde-file-manager.so.1:_ZNK19DStyledItemDelegate18editingIndexWidgetEv
libdde-file-manager.so.1:_ZNK19DStyledItemDelegate20maximumIconSizeLevelEv
libdde-file-manager.so.1:_ZNK19DStyledItemDelegate20minimumIconSizeLevelEv
libdde-file-manager.so.1:_ZNK19DStyledItemDelegate21getCornerGeometryListERK6QRectFRK6QSizeF
libdde-file-manager.so.1:_ZNK19DStyledItemDelegate6parentEv
libdde-file-manager.so.1:_ZNK19DStyledItemDelegate8drawTextERK11QModelIndexP8QPainterP11QTextLayoutRK6QRectFdRK6QBrushN11QTextOption8WrapModeEN2Qt13TextElideModeEiRK6QColor
libdde-file-manager.so.1:_ZNK19DStyledItemDelegate8drawTextERK11QModelIndexP8QPainterRK7QStringRK6QRectFdRK6QBrushN11QTextOption8WrapModeEN2Qt13TextElideModeEiRK6QColor
libdde-file-manager.so.1:_ZNK19DStyledItemDelegate8sizeHintERK20QStyleOptionViewItemRK11QModelIndex
libdde-file-manager.so.1:_ZNK19FileDialogStatusBar10metaObjectEv
libdde-file-manager.so.1:_ZNK19FileDialogStatusBar12acceptButtonEv
libdde-file-manager.so.1:_ZNK19FileDialogStatusBar12rejectButtonEv
libdde-file-manager.so.1:_ZNK19FileDialogStatusBar16getComboBoxValueERK7QString
libdde-file-manager.so.1:_ZNK19FileDialogStatusBar16getLineEditValueERK7QString
libdde-file-manager.so.1:_ZNK19FileDialogStatusBar17allComboBoxsValueEv
libdde-file-manager.so.1:_ZNK19FileDialogStatusBar17allLineEditsValueEv
libdde-file-manager.so.1:_ZNK19FileDialogStatusBar8comboBoxEv
libdde-file-manager.so.1:_ZNK19FileDialogStatusBar8lineEditEv
libdde-file-manager.so.1:_ZNK19TrashPropertyDialog10metaObjectEv
libdde-file-manager.so.1:_ZNK20DAbstractFileWatcher10metaObjectEv
libdde-file-manager.so.1:_ZNK20DAbstractFileWatcher7fileUrlEv
libdde-file-manager.so.1:_ZNK20DDesktopRenameDialog10getAddModeEv
libdde-file-manager.so.1:_ZNK20DDesktopRenameDialog10metaObjectEv
libdde-file-manager.so.1:_ZNK20DDesktopRenameDialog17getModeOneContentEv
libdde-file-manager.so.1:_ZNK20DDesktopRenameDialog17getModeTwoContentEv
libdde-file-manager.so.1:_ZNK20DDesktopRenameDialog19getCurrentModeIndexEv
libdde-file-manager.so.1:_ZNK20DDesktopRenameDialog19getModeThreeContentEv
libdde-file-manager.so.1:_ZNK20DFMGetChildrensEvent11nameFiltersEv
libdde-file-manager.so.1:_ZNK20DFMGetChildrensEvent5flagsEv
libdde-file-manager.so.1:_ZNK20DFMGetChildrensEvent6silentEv
libdde-file-manager.so.1:_ZNK20DFMGetChildrensEvent7filtersEv
libdde-file-manager.so.1:_ZNK20DFMSaveOperatorEvent5asyncEv
libdde-file-manager.so.1:_ZNK20DFMSaveOperatorEvent5eventEv
libdde-file-manager.so.1:_ZNK20DFMSaveOperatorEvent5splitEv
libdde-file-manager.so.1:_ZNK20DFMSaveOperatorEvent9iniaiatorEv
libdde-file-manager.so.1:_ZNK20UnknownPreviewWidget10metaObjectEv
libdde-file-manager.so.1:_ZNK21DFMCreateSymlinkEvent13handleUrlListEv
libdde-file-manager.so.1:_ZNK21DFMOpenFileByAppEvent7appNameEv
libdde-file-manager.so.1:_ZNK21DFMOpenNewWindowEvent5forceEv
libdde-file-manager.so.1:_ZNK21DFMSetPermissionEvent11permissionsEv
libdde-file-manager.so.1:_ZNK21LinkSectionValueLabel10metaObjectEv
libdde-file-manager.so.1:_ZNK21LinkSectionValueLabel13linkTargetUrlEv
libdde-file-manager.so.1:_ZNK21StartManagerInterface10metaObjectEv
libdde-file-manager.so.1:_ZNK22ComputerPropertyDialog10metaObjectEv
libdde-file-manager.so.1:_ZNK22DAnythingMonitorFilter10metaObjectEv
libdde-file-manager.so.1:_ZNK22FileTagObjectInterface10metaObjectEv
libdde-file-manager.so.1:_ZNK22MimeTypeDisplayManager10metaObjectEv
libdde-file-manager.so.1:_ZNK22MountAskPasswordDialog10metaObjectEv
libdde-file-manager.so.1:_ZNK22MountAskPasswordDialog20getDomainLineVisibleEv
libdde-file-manager.so.1:_ZNK22OpenWithDialogListItem10metaObjectEv
libdde-file-manager.so.1:_ZNK22OpenWithDialogListItem4textEv
libdde-file-manager.so.1:_ZNK23CloseAllDialogIndicator10metaObjectEv
libdde-file-manager.so.1:_ZNK23CommandManagerInterface10metaObjectEv
libdde-file-manager.so.1:_ZNK23DAbstractFileController10metaObjectEv
libdde-file-manager.so.1:_ZNK23DAbstractFileController10renameFileERK14QSharedPointerI14DFMRenameEventE
libdde-file-manager.so.1:_ZNK23DAbstractFileController11deleteFilesERK14QSharedPointerI14DFMDeleteEventE
libdde-file-manager.so.1:_ZNK23DAbstractFileController11getChildrenERK14QSharedPointerI20DFMGetChildrensEventE
libdde-file-manager.so.1:_ZNK23DAbstractFileController11moveToTrashERK14QSharedPointerI19DFMMoveToTrashEventE
libdde-file-manager.so.1:_ZNK23DAbstractFileController11restoreFileERK14QSharedPointerI24DFMRestoreFromTrashEventE
libdde-file-manager.so.1:_ZNK23DAbstractFileController11setFileTagsERK14QSharedPointerI19DFMSetFileTagsEventE
libdde-file-manager.so.1:_ZNK23DAbstractFileController11shareFolderERK14QSharedPointerI17DFMFileShareEvnetE
libdde-file-manager.so.1:_ZNK23DAbstractFileController13addToBookmarkERK14QSharedPointerI21DFMAddToBookmarkEventE
libdde-file-manager.so.1:_ZNK23DAbstractFileController13compressFilesERK14QSharedPointerI16DFMCompressEvnetE
libdde-file-manager.so.1:_ZNK23DAbstractFileController13createSymlinkERK14QSharedPointerI21DFMCreateSymlinkEventE
libdde-file-manager.so.1:_ZNK23DAbstractFileController13openFileByAppERK14QSharedPointerI21DFMOpenFileByAppEventE
libdde-file-manager.so.1:_ZNK23DAbstractFileController13unShareFolderERK14QSharedPointerI23DFMCancelFileShareEventE
libdde-file-manager.so.1:_ZNK23DAbstractFileController14createFileInfoERK14QSharedPointerI22DFMCreateFileInfoEvnetE
libdde-file-manager.so.1:_ZNK23DAbstractFileController14decompressFileERK14QSharedPointerI18DFMDecompressEvnetE
libdde-file-manager.so.1:_ZNK23DAbstractFileController14openInTerminalERK14QSharedPointerI22DFMOpenInTerminalEventE
libdde-file-manager.so.1:_ZNK23DAbstractFileController14removeBookmarkERK14QSharedPointerI22DFMRemoveBookmarkEventE
libdde-file-manager.so.1:_ZNK23DAbstractFileController14setPermissionsERK14QSharedPointerI21DFMSetPermissionEventE
libdde-file-manager.so.1:_ZNK23DAbstractFileController16createFileDeviceERK14QSharedPointerI15DFMUrlBaseEventE
libdde-file-manager.so.1:_ZNK23DAbstractFileController16openFileLocationERK14QSharedPointerI19DFMOpenFileLocationE
libdde-file-manager.so.1:_ZNK23DAbstractFileController16removeTagsOfFileERK14QSharedPointerI24DFMRemoveTagsOfFileEventE
libdde-file-manager.so.1:_ZNK23DAbstractFileController17createDirIteratorERK14QSharedPointerI20DFMCreateDiriteratorE
libdde-file-manager.so.1:_ZNK23DAbstractFileController17createFileHandlerERK14QSharedPointerI15DFMUrlBaseEventE
libdde-file-manager.so.1:_ZNK23DAbstractFileController17createFileWatcherERK14QSharedPointerI25DFMCreateFileWatcherEventE
libdde-file-manager.so.1:_ZNK23DAbstractFileController17createStorageInfoERK14QSharedPointerI15DFMUrlBaseEventE
libdde-file-manager.so.1:_ZNK23DAbstractFileController18decompressFileHereERK14QSharedPointerI18DFMDecompressEvnetE
libdde-file-manager.so.1:_ZNK23DAbstractFileController19getTagsThroughFilesERK14QSharedPointerI27DFMGetTagsThroughFilesEventE
libdde-file-manager.so.1:_ZNK23DAbstractFileController21setExtensionPropertysERK14QSharedPointerI28DFMSetFileExtensionPropertysE
libdde-file-manager.so.1:_ZNK23DAbstractFileController21writeFilesToClipboardERK14QSharedPointerI28DFMWriteUrlsToClipboardEventE
libdde-file-manager.so.1:_ZNK23DAbstractFileController5mkdirERK14QSharedPointerI13DFMMkdirEventE
libdde-file-manager.so.1:_ZNK23DAbstractFileController5touchERK14QSharedPointerI17DFMTouchFileEventE
libdde-file-manager.so.1:_ZNK23DAbstractFileController8openFileERK14QSharedPointerI16DFMOpenFileEventE
libdde-file-manager.so.1:_ZNK23DAbstractFileController9pasteFileERK14QSharedPointerI13DFMPasteEventE
libdde-file-manager.so.1:_ZNK23DFileSystemModelPrivate15passFileFiltersERK28QExplicitlySharedDataPointerI17DAbstractFileInfoE
libdde-file-manager.so.1:_ZNK23DFileSystemModelPrivate15passNameFiltersERK28QExplicitlySharedDataPointerI14FileSystemNodeE
libdde-file-manager.so.1:_ZNK23IntrospectableInterface10metaObjectEv
libdde-file-manager.so.1:_ZNK24CircleProgressAnimatePad10chunkColorEv
libdde-file-manager.so.1:_ZNK24CircleProgressAnimatePad10metaObjectEv
libdde-file-manager.so.1:_ZNK24CircleProgressAnimatePad11minmumValueEv
libdde-file-manager.so.1:_ZNK24CircleProgressAnimatePad12currentValueEv
libdde-file-manager.so.1:_ZNK24CircleProgressAnimatePad12maximumValueEv
libdde-file-manager.so.1:_ZNK24CircleProgressAnimatePad15backgroundColorEv
libdde-file-manager.so.1:_ZNK24CircleProgressAnimatePad16animationRunningEv
libdde-file-manager.so.1:_ZNK24CircleProgressAnimatePad5angleEv
libdde-file-manager.so.1:_ZNK24CircleProgressAnimatePad8fontSizeEv
libdde-file-manager.so.1:_ZNK24CircleProgressAnimatePad9lineWidthEv
libdde-file-manager.so.1:_ZNK24DFMChangeCurrentUrlEvent6windowEv
libdde-file-manager.so.1:_ZNK24DFMRemoveTagsOfFileEvent4tagsEv
libdde-file-manager.so.1:_ZNK24DIconItemDelegatePrivate17getFileIconPixmapERK11QModelIndexRK5QIconRK5QSizeNS3_4ModeEd
libdde-file-manager.so.1:_ZNK24DIconItemDelegatePrivate8drawTextEP8QPainterRK5QRectRK7QStringiPS2_
libdde-file-manager.so.1:_ZNK24DIconItemDelegatePrivate8textSizeERK7QStringRK12QFontMetricsi
libdde-file-manager.so.1:_ZNK24DMultiFilePropertyDialog10metaObjectEv
libdde-file-manager.so.1:_ZNK25DFileSystemWatcherPrivate13getPathFromIDEi
libdde-file-manager.so.1:_ZNK25DQuickSearchFilterPrivate24whetherFilterCurrentFileERK10QByteArray
libdde-file-manager.so.1:_ZNK25MoveToTrashConflictDialog10metaObjectEv
libdde-file-manager.so.1:_ZNK25TagManagerDaemonInterface10metaObjectEv
libdde-file-manager.so.1:_ZNK26DeviceInfoManagerInterface10metaObjectEv
libdde-file-manager.so.1:_ZNK26QuickSearchDaemonInterface10metaObjectEv
libdde-file-manager.so.1:_ZNK26TagManagerDaemonController10metaObjectEv
libdde-file-manager.so.1:_ZNK27QuickSearchDaemonController10metaObjectEv
libdde-file-manager.so.1:_ZNK27QuickSearchDaemonController11createCacheEv
libdde-file-manager.so.1:_ZNK27QuickSearchDaemonController22whetherCacheCompletelyEv
libdde-file-manager.so.1:_ZNK28DFMSetFileExtensionPropertys18extensionPropertysEv
libdde-file-manager.so.1:_ZNK28DFMWriteUrlsToClipboardEvent6actionEv
libdde-file-manager.so.1:_ZNK30UserSharePasswordSettingDialog10metaObjectEv
libdde-file-manager.so.1:_ZNK32MountSecretDiskAskPasswordDialog10metaObjectEv
libdde-file-manager.so.1:_ZNK32MountSecretDiskAskPasswordDialog16passwordSaveModeEv
libdde-file-manager.so.1:_ZNK32MountSecretDiskAskPasswordDialog8passwordEv
libdde-file-manager.so.1:_ZNK33OrgFreedesktopUDisks2JobInterface10metaObjectEv
libdde-file-manager.so.1:_ZNK34OrgFreedesktopUDisks2LoopInterface10metaObjectEv
libdde-file-manager.so.1:_ZNK35OrgFreedesktopUDisks2BlockInterface10metaObjectEv
libdde-file-manager.so.1:_ZNK35OrgFreedesktopUDisks2DriveInterface10metaObjectEv
libdde-file-manager.so.1:_ZNK36OrgFreedesktopUDisks2MDRaidInterface10metaObjectEv
libdde-file-manager.so.1:_ZNK37OrgFreedesktopUDisks2ManagerInterface10metaObjectEv
libdde-file-manager.so.1:_ZNK38OrgFreedesktopUDisks2DriveAtaInterface10metaObjectEv
libdde-file-manager.so.1:_ZNK39OrgFreedesktopUDisks2EncryptedInterface10metaObjectEv
libdde-file-manager.so.1:_ZNK39OrgFreedesktopUDisks2PartitionInterface10metaObjectEv
libdde-file-manager.so.1:_ZNK39OrgFreedesktopUDisks2SwapspaceInterface10metaObjectEv
libdde-file-manager.so.1:_ZNK3Tab10borderLeftEv
libdde-file-manager.so.1:_ZNK3Tab10currentUrlEv
libdde-file-manager.so.1:_ZNK3Tab10metaObjectEv
libdde-file-manager.so.1:_ZNK3Tab12boundingRectEv
libdde-file-manager.so.1:_ZNK3Tab19getDisplayNameByUrlERK4DUrl
libdde-file-manager.so.1:_ZNK3Tab5shapeEv
libdde-file-manager.so.1:_ZNK3Tab9isCheckedEv
libdde-file-manager.so.1:_ZNK40OrgFreedesktopDBusObjectManagerInterface10metaObjectEv
libdde-file-manager.so.1:_ZNK40OrgFreedesktopUDisks2FilesystemInterface10metaObjectEv
libdde-file-manager.so.1:_ZNK44OrgFreedesktopUDisks2PartitionTableInterface10metaObjectEv
libdde-file-manager.so.1:_ZNK4DUrl10isAVFSFileEv
libdde-file-manager.so.1:_ZNK4DUrl10isSFTPFileEv
libdde-file-manager.so.1:_ZNK4DUrl11isTrashFileEv
libdde-file-manager.so.1:_ZNK4DUrl11toLocalFileEv
libdde-file-manager.so.1:_ZNK4DUrl12bookmarkNameEv
libdde-file-manager.so.1:_ZNK4DUrl12isRecentFileEv
libdde-file-manager.so.1:_ZNK4DUrl12isSearchFileEv
libdde-file-manager.so.1:_ZNK4DUrl12isTaggedFileEv
libdde-file-manager.so.1:_ZNK4DUrl13isNetWorkFileEv
libdde-file-manager.so.1:_ZNK4DUrl13searchKeywordEv
libdde-file-manager.so.1:_ZNK4DUrl14isBookMarkFileEv
libdde-file-manager.so.1:_ZNK4DUrl14isComputerFileEv
libdde-file-manager.so.1:_ZNK4DUrl15isUserShareFileEv
libdde-file-manager.so.1:_ZNK4DUrl15searchTargetUrlEv
libdde-file-manager.so.1:_ZNK4DUrl15searchedFileUrlEv
libdde-file-manager.so.1:_ZNK4DUrl17bookmarkTargetUrlEv
libdde-file-manager.so.1:_ZNK4DUrl17toAbsolutePathUrlEv
libdde-file-manager.so.1:_ZNK4DUrl19taggedLocalFilePathEv
libdde-file-manager.so.1:_ZNK4DUrl7tagNameEv
libdde-file-manager.so.1:_ZNK4DUrl8deviceIdEv
libdde-file-manager.so.1:_ZNK4DUrl8toStringE12QUrlTwoFlagsIN4QUrl19UrlFormattingOptionENS1_25ComponentFormattingOptionEE
libdde-file-manager.so.1:_ZNK4DUrl9isAFCFileEv
libdde-file-manager.so.1:_ZNK4DUrl9isFTPFileEv
libdde-file-manager.so.1:_ZNK4DUrl9isMTPFileEv
libdde-file-manager.so.1:_ZNK4DUrl9isSMBFileEv
libdde-file-manager.so.1:_ZNK4DUrl9parentUrlEv
libdde-file-manager.so.1:_ZNK4DUrleqERKS_
libdde-file-manager.so.1:_ZNK6QDrive11has_volumesEv
libdde-file-manager.so.1:_ZNK6QDrive11unix_deviceEv
libdde-file-manager.so.1:_ZNK6QDrive12is_removableEv
libdde-file-manager.so.1:_ZNK6QDrive14symbolic_iconsEv
libdde-file-manager.so.1:_ZNK6QDrive15start_stop_typeEv
libdde-file-manager.so.1:_ZNK6QDrive18can_poll_for_mediaEv
libdde-file-manager.so.1:_ZNK6QDrive18can_start_degradedEv
libdde-file-manager.so.1:_ZNK6QDrive18is_media_removableEv
libdde-file-manager.so.1:_ZNK6QDrive24is_media_check_automaticEv
libdde-file-manager.so.1:_ZNK6QDrive4nameEv
libdde-file-manager.so.1:_ZNK6QDrive5iconsEv
libdde-file-manager.so.1:_ZNK6QDrive8can_stopEv
libdde-file-manager.so.1:_ZNK6QDrive8sort_keyEv
libdde-file-manager.so.1:_ZNK6QDrive9can_ejectEv
libdde-file-manager.so.1:_ZNK6QDrive9can_startEv
libdde-file-manager.so.1:_ZNK6QDrive9has_mediaEv
libdde-file-manager.so.1:_ZNK6QMount11can_unmountEv
libdde-file-manager.so.1:_ZNK6QMount11is_shadowedEv
libdde-file-manager.so.1:_ZNK6QMount14symbolic_iconsEv
libdde-file-manager.so.1:_ZNK6QMount16default_locationEv
libdde-file-manager.so.1:_ZNK6QMount16mounted_root_uriEv
libdde-file-manager.so.1:_ZNK6QMount4nameEv
libdde-file-manager.so.1:_ZNK6QMount4uuidEv
libdde-file-manager.so.1:_ZNK6QMount5iconsEv
libdde-file-manager.so.1:_ZNK6QMount8sort_keyEv
libdde-file-manager.so.1:_ZNK6QMount9can_ejectEv
libdde-file-manager.so.1:_ZNK6TabBar10metaObjectEv
libdde-file-manager.so.1:_ZNK6TabBar10tabAddableEv
libdde-file-manager.so.1:_ZNK6TabBar12currentIndexEv
libdde-file-manager.so.1:_ZNK6TabBar5countEv
libdde-file-manager.so.1:_ZNK7FileJob10metaObjectEv
libdde-file-manager.so.1:_ZNK7FileJob13getIsFinishedEv
libdde-file-manager.so.1:_ZNK7FileJob14getIsCoExistedEv
libdde-file-manager.so.1:_ZNK7FileJob26getIsGvfsFileOperationUsedEv
libdde-file-manager.so.1:_ZNK7FileJob9getIsSkipEv
libdde-file-manager.so.1:_ZNK7FileJob9isAbortedEv
libdde-file-manager.so.1:_ZNK7PartMan16PartitionManager10metaObjectEv
libdde-file-manager.so.1:_ZNK7PartMan16ReadUsageManager10metaObjectEv
libdde-file-manager.so.1:_ZNK7PartMan9Partition10mountPointEv
libdde-file-manager.so.1:_ZNK7PartMan9Partition14getIsRemovableEv
libdde-file-manager.so.1:_ZNK7PartMan9Partition2fsEv
libdde-file-manager.so.1:_ZNK7PartMan9Partition4nameEv
libdde-file-manager.so.1:_ZNK7PartMan9Partition4pathEv
libdde-file-manager.so.1:_ZNK7PartMan9Partition4uuidEv
libdde-file-manager.so.1:_ZNK7PartMan9Partition5labelEv
libdde-file-manager.so.1:_ZNK7PartMan9Partition5totalEv
libdde-file-manager.so.1:_ZNK7PartMan9Partition9freespaceEv
libdde-file-manager.so.1:_ZNK7QVolume11unix_deviceEv
libdde-file-manager.so.1:_ZNK7QVolume12is_removableEv
libdde-file-manager.so.1:_ZNK7QVolume14symbolic_iconsEv
libdde-file-manager.so.1:_ZNK7QVolume16mounted_root_uriEv
libdde-file-manager.so.1:_ZNK7QVolume16should_automountEv
libdde-file-manager.so.1:_ZNK7QVolume17drive_unix_deviceEv
libdde-file-manager.so.1:_ZNK7QVolume19activation_root_uriEv
libdde-file-manager.so.1:_ZNK7QVolume4nameEv
libdde-file-manager.so.1:_ZNK7QVolume4uuidEv
libdde-file-manager.so.1:_ZNK7QVolume5driveEv
libdde-file-manager.so.1:_ZNK7QVolume5iconsEv
libdde-file-manager.so.1:_ZNK7QVolume5lableEv
libdde-file-manager.so.1:_ZNK7QVolume8sort_keyEv
libdde-file-manager.so.1:_ZNK7QVolume9can_ejectEv
libdde-file-manager.so.1:_ZNK7QVolume9can_mountEv
libdde-file-manager.so.1:_ZNK7QVolume9isMountedEv
libdde-file-manager.so.1:_ZNK7QVolume9nfs_mountEv
libdde-file-manager.so.1:_ZNK8BookMark12lastModifiedEv
libdde-file-manager.so.1:_ZNK8BookMark15fileDisplayNameEv
libdde-file-manager.so.1:_ZNK8BookMark17redirectedFileUrlEv
libdde-file-manager.so.1:_ZNK8BookMark19getUrlByNewFileNameERK7QString
libdde-file-manager.so.1:_ZNK8BookMark21canRedirectionFileUrlEv
libdde-file-manager.so.1:_ZNK8BookMark6existsEv
libdde-file-manager.so.1:_ZNK8BookMark7createdEv
libdde-file-manager.so.1:_ZNK8BookMark7getNameEv
libdde-file-manager.so.1:_ZNK8BookMark9parentUrlEv
libdde-file-manager.so.1:_ZNK8BookMark9sourceUrlEv
libdde-file-manager.so.1:_ZNK8DFMEvent13handleUrlListEv
libdde-file-manager.so.1:_ZNK8DFMEvent8windowIdEv
libdde-file-manager.so.1:_ZNK8DTagEdit10metaObjectEv
libdde-file-manager.so.1:_ZNK8DToolBar10metaObjectEv
libdde-file-manager.so.1:_ZNK8DToolBar13navStackCountEv
libdde-file-manager.so.1:_ZNK8Shortcut10metaObjectEv
libdde-file-manager.so.1:_ZNK9DFMGlobal10metaObjectEv
libdde-file-manager.so.1:_ZNK9DFMGlobal12standardIconENS_4IconE
libdde-file-manager.so.1:_ZNK9DFMGlobal15clipboardActionEv
libdde-file-manager.so.1:_ZNK9DFMGlobal20clipboardFileUrlListEv
libdde-file-manager.so.1:_ZNK9DFileInfo10filesCountEv
libdde-file-manager.so.1:_ZNK9DFileInfo10isAbsoluteEv
libdde-file-manager.so.1:_ZNK9DFileInfo10isReadableEv
libdde-file-manager.so.1:_ZNK9DFileInfo10isRelativeEv
libdde-file-manager.so.1:_ZNK9DFileInfo10isWritableEv
libdde-file-manager.so.1:_ZNK9DFileInfo10permissionE6QFlagsIN11QFileDevice10PermissionEE
libdde-file-manager.so.1:_ZNK9DFileInfo11permissionsEv
libdde-file-manager.so.1:_ZNK9DFileInfo11toQFileInfoEv
libdde-file-manager.so.1:_ZNK9DFileInfo12absolutePathEv
libdde-file-manager.so.1:_ZNK9DFileInfo12isExecutableEv
libdde-file-manager.so.1:_ZNK9DFileInfo12lastModifiedEv
libdde-file-manager.so.1:_ZNK9DFileInfo13symLinkTargetEv
libdde-file-manager.so.1:_ZNK9DFileInfo14canIteratorDirEv
libdde-file-manager.so.1:_ZNK9DFileInfo14createIODeviceEv
libdde-file-manager.so.1:_ZNK9DFileInfo14fileSharedNameEv
libdde-file-manager.so.1:_ZNK9DFileInfo15fileDisplayNameEv
libdde-file-manager.so.1:_ZNK9DFileInfo15sizeDisplayNameEv
libdde-file-manager.so.1:_ZNK9DFileInfo16absoluteFilePathEv
libdde-file-manager.so.1:_ZNK9DFileInfo16isWritableSharedEv
libdde-file-manager.so.1:_ZNK9DFileInfo17symlinkTargetPathEv
libdde-file-manager.so.1:_ZNK9DFileInfo18extensionPropertysEv
libdde-file-manager.so.1:_ZNK9DFileInfo18goToUrlWhenDeletedEv
libdde-file-manager.so.1:_ZNK9DFileInfo18isAllowGuestSharedEv
libdde-file-manager.so.1:_ZNK9DFileInfo22subtitleForEmptyFloderEv
libdde-file-manager.so.1:_ZNK9DFileInfo4pathEv
libdde-file-manager.so.1:_ZNK9DFileInfo4sizeEv
libdde-file-manager.so.1:_ZNK9DFileInfo5groupEv
libdde-file-manager.so.1:_ZNK9DFileInfo5isDirEv
libdde-file-manager.so.1:_ZNK9DFileInfo5ownerEv
libdde-file-manager.so.1:_ZNK9DFileInfo6existsEv
libdde-file-manager.so.1:_ZNK9DFileInfo6isFileEv
libdde-file-manager.so.1:_ZNK9DFileInfo7createdEv
libdde-file-manager.so.1:_ZNK9DFileInfo7groupIdEv
libdde-file-manager.so.1:_ZNK9DFileInfo7ownerIdEv
libdde-file-manager.so.1:_ZNK9DFileInfo8canFetchEv
libdde-file-manager.so.1:_ZNK9DFileInfo8canShareEv
libdde-file-manager.so.1:_ZNK9DFileInfo8fileIconEv
libdde-file-manager.so.1:_ZNK9DFileInfo8fileNameEv
libdde-file-manager.so.1:_ZNK9DFileInfo8filePathEv
libdde-file-manager.so.1:_ZNK9DFileInfo8fileTypeEv
libdde-file-manager.so.1:_ZNK9DFileInfo8iconNameEv
libdde-file-manager.so.1:_ZNK9DFileInfo8isHiddenEv
libdde-file-manager.so.1:_ZNK9DFileInfo8isSharedEv
libdde-file-manager.so.1:_ZNK9DFileInfo8lastReadEv
libdde-file-manager.so.1:_ZNK9DFileInfo8mimeTypeEN13QMimeDatabase9MatchModeE
libdde-file-manager.so.1:_ZNK9DFileInfo9canRenameEv
libdde-file-manager.so.1:_ZNK9DFileInfo9isPrivateEv
libdde-file-manager.so.1:_ZNK9DFileInfo9isSymLinkEv
libdde-file-manager.so.1:_ZNK9DFileMenu10metaObjectEv
libdde-file-manager.so.1:_ZNK9DFileMenu12selectedUrlsEv
libdde-file-manager.so.1:_ZNK9DFileMenu17ignoreMenuActionsEv
libdde-file-manager.so.1:_ZNK9DFileMenu7eventIdEv
libdde-file-manager.so.1:_ZNK9DFileMenu8actionAtERK7QString
libdde-file-manager.so.1:_ZNK9DFileMenu8actionAtEi
libdde-file-manager.so.1:_ZNK9DFileMenu9makeEventEN9DFMGlobal10MenuActionE
libdde-file-manager.so.1:_ZNK9DFileView10isSelectedERK11QModelIndex
libdde-file-manager.so.1:_ZNK9DFileView10metaObjectEv
libdde-file-manager.so.1:_ZNK9DFileView10visualRectERK11QModelIndex
libdde-file-manager.so.1:_ZNK9DFileView11columnCountEv
libdde-file-manager.so.1:_ZNK9DFileView11columnWidthEi
libdde-file-manager.so.1:_ZNK9DFileView11nameFiltersEv
libdde-file-manager.so.1:_ZNK9DFileView12isDropTargetERK11QModelIndex
libdde-file-manager.so.1:_ZNK9DFileView12itemDelegateEv
libdde-file-manager.so.1:_ZNK9DFileView12itemSizeHintEv
libdde-file-manager.so.1:_ZNK9DFileView12selectedUrlsEv
libdde-file-manager.so.1:_ZNK9DFileView12testViewModeE6QFlagsINS_8ViewModeEES1_
libdde-file-manager.so.1:_ZNK9DFileView14columnRoleListEv
libdde-file-manager.so.1:_ZNK9DFileView14fileViewHelperEv
libdde-file-manager.so.1:_ZNK9DFileView14isIconViewModeEv
libdde-file-manager.so.1:_ZNK9DFileView14visibleIndexesE5QRect
libdde-file-manager.so.1:_ZNK9DFileView15itemCountForRowEv
libdde-file-manager.so.1:_ZNK9DFileView15selectedIndexesEv
libdde-file-manager.so.1:_ZNK9DFileView16horizontalOffsetEv
libdde-file-manager.so.1:_ZNK9DFileView17toolBarActionListEv
libdde-file-manager.so.1:_ZNK9DFileView18getDefaultViewModeEv
libdde-file-manager.so.1:_ZNK9DFileView18selectedIndexCountEv
libdde-file-manager.so.1:_ZNK9DFileView21enabledSelectionModesEv
libdde-file-manager.so.1:_ZNK9DFileView5modelEv
libdde-file-manager.so.1:_ZNK9DFileView6widgetEv
libdde-file-manager.so.1:_ZNK9DFileView7filtersEv
libdde-file-manager.so.1:_ZNK9DFileView7indexAtERK6QPoint
libdde-file-manager.so.1:_ZNK9DFileView7rootUrlEv
libdde-file-manager.so.1:_ZNK9DFileView8rowCountEv
libdde-file-manager.so.1:_ZNK9DFileView8viewModeEv
libdde-file-manager.so.1:_ZNK9DFileView8windowIdEv
libdde-file-manager.so.1:_ZNK9DFileView9statusBarEv
libdde-file-manager.so.1:_ZNK9DFileView9viewStateEv
libdde-file-manager.so.1:_ZNK9QDiskInfo10has_volumeEv
libdde-file-manager.so.1:_ZNK9QDiskInfo11can_unmountEv
libdde-file-manager.so.1:_ZNK9QDiskInfo11unix_deviceEv
libdde-file-manager.so.1:_ZNK9QDiskInfo12is_removableEv
libdde-file-manager.so.1:_ZNK9QDiskInfo13id_filesystemEv
libdde-file-manager.so.1:_ZNK9QDiskInfo14isNativeCustomEv
libdde-file-manager.so.1:_ZNK9QDiskInfo16default_locationEv
libdde-file-manager.so.1:_ZNK9QDiskInfo16mounted_root_uriEv
libdde-file-manager.so.1:_ZNK9QDiskInfo17drive_unix_deviceEv
libdde-file-manager.so.1:_ZNK9QDiskInfo19activation_root_uriEv
libdde-file-manager.so.1:_ZNK9QDiskInfo2idEv
libdde-file-manager.so.1:_ZNK9QDiskInfo4freeEv
libdde-file-manager.so.1:_ZNK9QDiskInfo4nameEv
libdde-file-manager.so.1:_ZNK9QDiskInfo4typeEv
libdde-file-manager.so.1:_ZNK9QDiskInfo4usedEv
libdde-file-manager.so.1:_ZNK9QDiskInfo4uuidEv
libdde-file-manager.so.1:_ZNK9QDiskInfo5totalEv
libdde-file-manager.so.1:_ZNK9QDiskInfo8iconNameEv
libdde-file-manager.so.1:_ZNK9QDiskInfo9can_ejectEv
libdde-file-manager.so.1:_ZNK9QDiskInfo9can_mountEv
libdde-file-manager.so.1:_ZNK9QDiskInfo9read_onlyEv
libdde-file-manager.so.1:_ZNK9RequestEP10metaObjectEv
libdde-file-manager.so.1:_ZNK9ShareInfo10isWritableEv
libdde-file-manager.so.1:_ZNK9ShareInfo13usershare_aclEv
libdde-file-manager.so.1:_ZNK9ShareInfo4pathEv
libdde-file-manager.so.1:_ZNK9ShareInfo7commentEv
libdde-file-manager.so.1:_ZNK9ShareInfo8guest_okEv
libdde-file-manager.so.1:_ZNK9ShareInfo9isGuestOkEv
libdde-file-manager.so.1:_ZNK9ShareInfo9shareNameEv
libdde-file-manager.so.1:_ZNK9TitleLine10metaObjectEv
libdde-file-manager.so.1:_ZThn16_N10BaseDialogD0Ev
libdde-file-manager.so.1:_ZThn16_N10BaseDialogD1Ev
libdde-file-manager.so.1:_ZThn16_N10ExtendViewD0Ev
libdde-file-manager.so.1:_ZThn16_N10ExtendViewD1Ev
libdde-file-manager.so.1:_ZThn16_N11DDetailViewD0Ev
libdde-file-manager.so.1:_ZThn16_N11DDetailViewD1Ev
libdde-file-manager.so.1:_ZThn16_N11DFileDialogD0Ev
libdde-file-manager.so.1:_ZThn16_N11DFileDialogD1Ev
libdde-file-manager.so.1:_ZThn16_N12ComputerViewD0Ev
libdde-file-manager.so.1:_ZThn16_N12ComputerViewD1Ev
libdde-file-manager.so.1:_ZThn16_N12DFileService7fmEventERK14QSharedPointerI8DFMEventEP8QVariant
libdde-file-manager.so.1:_ZThn16_N12DFileServiceD0Ev
libdde-file-manager.so.1:_ZThn16_N12DFileServiceD1Ev
libdde-file-manager.so.1:_ZThn16_N12DStateButtonD0Ev
libdde-file-manager.so.1:_ZThn16_N12DStateButtonD1Ev
libdde-file-manager.so.1:_ZThn16_N13AppController18doSubscriberActionERK7QString
libdde-file-manager.so.1:_ZThn16_N14OpenWithDialogD0Ev
libdde-file-manager.so.1:_ZThn16_N14OpenWithDialogD1Ev
libdde-file-manager.so.1:_ZThn16_N14ShareInfoFrameD0Ev
libdde-file-manager.so.1:_ZThn16_N14ShareInfoFrameD1Ev
libdde-file-manager.so.1:_ZThn16_N14TabCloseButton14hoverMoveEventEP24QGraphicsSceneHoverEvent
libdde-file-manager.so.1:_ZThn16_N14TabCloseButton15hoverEnterEventEP24QGraphicsSceneHoverEvent
libdde-file-manager.so.1:_ZThn16_N14TabCloseButton15hoverLeaveEventEP24QGraphicsSceneHoverEvent
libdde-file-manager.so.1:_ZThn16_N14TabCloseButton15mousePressEventEP24QGraphicsSceneMouseEvent
libdde-file-manager.so.1:_ZThn16_N14TabCloseButton17mouseReleaseEventEP24QGraphicsSceneMouseEvent
libdde-file-manager.so.1:_ZThn16_N14TabCloseButton5paintEP8QPainterPK24QStyleOptionGraphicsItemP7QWidget
libdde-file-manager.so.1:_ZThn16_N15DIconTextButtonD0Ev
libdde-file-manager.so.1:_ZThn16_N15DIconTextButtonD1Ev
libdde-file-manager.so.1:_ZThn16_N15DMoveableWidgetD0Ev
libdde-file-manager.so.1:_ZThn16_N15DMoveableWidgetD1Ev
libdde-file-manager.so.1:_ZThn16_N16dde_file_manager10DFMSideBarD0Ev
libdde-file-manager.so.1:_ZThn16_N16dde_file_manager10DFMSideBarD1Ev
libdde-file-manager.so.1:_ZThn16_N16dde_file_manager11DFMCrumbBarD0Ev
libdde-file-manager.so.1:_ZThn16_N16dde_file_manager11DFMCrumbBarD1Ev
libdde-file-manager.so.1:_ZThn16_N16dde_file_manager12DFMCrumbItemD0Ev
libdde-file-manager.so.1:_ZThn16_N16dde_file_manager12DFMCrumbItemD1Ev
libdde-file-manager.so.1:_ZThn16_N16dde_file_manager14DFMSideBarItemD0Ev
libdde-file-manager.so.1:_ZThn16_N16dde_file_manager14DFMSideBarItemD1Ev
libdde-file-manager.so.1:_ZThn16_N16dde_file_manager17FilePreviewDialogD0Ev
libdde-file-manager.so.1:_ZThn16_N16dde_file_manager17FilePreviewDialogD1Ev
libdde-file-manager.so.1:_ZThn16_N18DFileManagerWindowD0Ev
libdde-file-manager.so.1:_ZThn16_N18DFileManagerWindowD1Ev
libdde-file-manager.so.1:_ZThn16_N18MoveCopyTaskWidgetD0Ev
libdde-file-manager.so.1:_ZThn16_N18MoveCopyTaskWidgetD1Ev
libdde-file-manager.so.1:_ZThn16_N19TrashPropertyDialogD0Ev
libdde-file-manager.so.1:_ZThn16_N19TrashPropertyDialogD1Ev
libdde-file-manager.so.1:_ZThn16_N22FileTagObjectInterface10drawObjectEP8QPainterRK6QRectFP13QTextDocumentiRK11QTextFormat
libdde-file-manager.so.1:_ZThn16_N22FileTagObjectInterface13intrinsicSizeEP13QTextDocumentiRK11QTextFormat
libdde-file-manager.so.1:_ZThn16_N22MountAskPasswordDialogD0Ev
libdde-file-manager.so.1:_ZThn16_N22MountAskPasswordDialogD1Ev
libdde-file-manager.so.1:_ZThn16_N23CloseAllDialogIndicatorD0Ev
libdde-file-manager.so.1:_ZThn16_N23CloseAllDialogIndicatorD1Ev
libdde-file-manager.so.1:_ZThn16_N24DMultiFilePropertyDialogD0Ev
libdde-file-manager.so.1:_ZThn16_N24DMultiFilePropertyDialogD1Ev
libdde-file-manager.so.1:_ZThn16_N32MountSecretDiskAskPasswordDialogD0Ev
libdde-file-manager.so.1:_ZThn16_N32MountSecretDiskAskPasswordDialogD1Ev
libdde-file-manager.so.1:_ZThn16_N3Tab14mouseMoveEventEP24QGraphicsSceneMouseEvent
libdde-file-manager.so.1:_ZThn16_N3Tab15hoverEnterEventEP24QGraphicsSceneHoverEvent
libdde-file-manager.so.1:_ZThn16_N3Tab15hoverLeaveEventEP24QGraphicsSceneHoverEvent
libdde-file-manager.so.1:_ZThn16_N3Tab15mousePressEventEP24QGraphicsSceneMouseEvent
libdde-file-manager.so.1:_ZThn16_N3Tab17mouseReleaseEventEP24QGraphicsSceneMouseEvent
libdde-file-manager.so.1:_ZThn16_N3Tab5paintEP8QPainterPK24QStyleOptionGraphicsItemP7QWidget
libdde-file-manager.so.1:_ZThn16_N3TabD0Ev
libdde-file-manager.so.1:_ZThn16_N3TabD1Ev
libdde-file-manager.so.1:_ZThn16_N8DToolBarD0Ev
libdde-file-manager.so.1:_ZThn16_N8DToolBarD1Ev
libdde-file-manager.so.1:_ZThn16_N9DFileViewD0Ev
libdde-file-manager.so.1:_ZThn16_N9DFileViewD1Ev
libdde-file-manager.so.1:_ZThn16_NK14TabCloseButton12boundingRectEv
libdde-file-manager.so.1:_ZThn16_NK3Tab12boundingRectEv
libdde-file-manager.so.1:_ZThn16_NK3Tab5shapeEv
libdde-file-manager.so.1:_ZThn48_N10BaseDialogD0Ev
libdde-file-manager.so.1:_ZThn48_N10BaseDialogD1Ev
libdde-file-manager.so.1:_ZThn48_N11DFileDialogD0Ev
libdde-file-manager.so.1:_ZThn48_N11DFileDialogD1Ev
libdde-file-manager.so.1:_ZThn48_N12ComputerView10setRootUrlERK4DUrl
libdde-file-manager.so.1:_ZThn48_N12ComputerViewD0Ev
libdde-file-manager.so.1:_ZThn48_N12ComputerViewD1Ev
libdde-file-manager.so.1:_ZThn48_N14OpenWithDialogD0Ev
libdde-file-manager.so.1:_ZThn48_N14OpenWithDialogD1Ev
libdde-file-manager.so.1:_ZThn48_N16dde_file_manager17FilePreviewDialogD0Ev
libdde-file-manager.so.1:_ZThn48_N16dde_file_manager17FilePreviewDialogD1Ev
libdde-file-manager.so.1:_ZThn48_N18DFileManagerWindowD0Ev
libdde-file-manager.so.1:_ZThn48_N18DFileManagerWindowD1Ev
libdde-file-manager.so.1:_ZThn48_N19TrashPropertyDialogD0Ev
libdde-file-manager.so.1:_ZThn48_N19TrashPropertyDialogD1Ev
libdde-file-manager.so.1:_ZThn48_N22MountAskPasswordDialogD0Ev
libdde-file-manager.so.1:_ZThn48_N22MountAskPasswordDialogD1Ev
libdde-file-manager.so.1:_ZThn48_N23CloseAllDialogIndicatorD0Ev
libdde-file-manager.so.1:_ZThn48_N23CloseAllDialogIndicatorD1Ev
libdde-file-manager.so.1:_ZThn48_N24DMultiFilePropertyDialogD0Ev
libdde-file-manager.so.1:_ZThn48_N24DMultiFilePropertyDialogD1Ev
libdde-file-manager.so.1:_ZThn48_N32MountSecretDiskAskPasswordDialogD0Ev
libdde-file-manager.so.1:_ZThn48_N32MountSecretDiskAskPasswordDialogD1Ev
libdde-file-manager.so.1:_ZThn48_N9DFileViewD0Ev
libdde-file-manager.so.1:_ZThn48_N9DFileViewD1Ev
libdde-file-manager.so.1:_ZThn48_NK12ComputerView6widgetEv
libdde-file-manager.so.1:_ZThn48_NK12ComputerView7rootUrlEv
libdde-file-manager.so.1:_ZThn64_N11DFileDialog13fmEventFilterERK14QSharedPointerI8DFMEventEPN16dde_file_manager23DFMAbstractEventHandlerEP8QVariant
libdde-file-manager.so.1:_ZThn64_N11DFileDialogD0Ev
libdde-file-manager.so.1:_ZThn64_N11DFileDialogD1Ev
libdde-file-manager.so.1:_ZThn64_N18DFileManagerWindow7fmEventERK14QSharedPointerI8DFMEventEP8QVariant
libdde-file-manager.so.1:_ZThn64_N18DFileManagerWindowD0Ev
libdde-file-manager.so.1:_ZThn64_N18DFileManagerWindowD1Ev
libdde-file-manager.so.1:_ZThn64_N9DFileView10setRootUrlERK4DUrl
libdde-file-manager.so.1:_ZThn64_N9DFileView7refreshEv
libdde-file-manager.so.1:_ZThn64_N9DFileViewD0Ev
libdde-file-manager.so.1:_ZThn64_N9DFileViewD1Ev
libdde-file-manager.so.1:_ZThn64_NK18DFileManagerWindow6objectEv
libdde-file-manager.so.1:_ZThn64_NK9DFileView17toolBarActionListEv
libdde-file-manager.so.1:_ZThn64_NK9DFileView6widgetEv
libdde-file-manager.so.1:_ZThn64_NK9DFileView7rootUrlEv
libdde-file-manager.so.1:_ZThn64_NK9DFileView9viewStateEv
libdde-file-manager.so.1:_Zls6QDebugRK11NetworkNode
libdde-file-manager.so.1:_Zls6QDebugRK12HistoryStack
libdde-file-manager.so.1:_Zls6QDebugRK17DAbstractFileInfo
libdde-file-manager.so.1:_Zls6QDebugRK4DUrl
libdde-file-manager.so.1:_Zls6QDebugRK6QDrive
libdde-file-manager.so.1:_Zls6QDebugRK6QMount
libdde-file-manager.so.1:_Zls6QDebugRK7QObject
libdde-file-manager.so.1:_Zls6QDebugRK7QVolume
libdde-file-manager.so.1:_Zls6QDebugRK8DFMEvent
libdde-file-manager.so.1:_Zls6QDebugRK8DiskInfo
libdde-file-manager.so.1:_Zls6QDebugRK9QDiskInfo
libdde-file-manager.so.1:_Zls6QDebugRK9ShareInfo
libdde-file-manager.so.1:_Zls6QDebugRKN16dde_file_manager12DStorageInfoE
libdde-file-manager.so.1:_ZlsR13QDBusArgumentRK8DiskInfo
libdde-file-manager.so.1:_ZlsR13QDBusArgumentRKN16dde_file_manager7UDisks214SmartAttributeE
libdde-file-manager.so.1:_ZlsR13QDBusArgumentRKN16dde_file_manager7UDisks216ActiveDeviceInfoE
libdde-file-manager.so.1:_ZrsRK13QDBusArgumentR8DiskInfo
libdde-file-manager.so.1:_ZrsRK13QDBusArgumentRN16dde_file_manager7UDisks214SmartAttributeE
libdde-file-manager.so.1:_ZrsRK13QDBusArgumentRN16dde_file_manager7UDisks216ActiveDeviceInfoE
libdde-file-manager.so.1:match_regex
