libdmr.so.0.1:_ZN3dmr11MpvGLWidget10onNewFrameEv
libdmr.so.0.1:_ZN3dmr11MpvGLWidget10setPlayingEb
libdmr.so.0.1:_ZN3dmr11MpvGLWidget11qt_metacallEN11QMetaObject4CallEiPPv
libdmr.so.0.1:_ZN3dmr11MpvGLWidget11qt_metacastEPKc
libdmr.so.0.1:_ZN3dmr11MpvGLWidget11setMiniModeEb
libdmr.so.0.1:_ZN3dmr11MpvGLWidget12initializeGLEv
libdmr.so.0.1:_ZN3dmr11MpvGLWidget13setupIdlePipeEv
libdmr.so.0.1:_ZN3dmr11MpvGLWidget14onFrameSwappedEv
libdmr.so.0.1:_ZN3dmr11MpvGLWidget14setupBlendPipeEv
libdmr.so.0.1:_ZN3dmr11MpvGLWidget14updateMovieFboEv
libdmr.so.0.1:_ZN3dmr11MpvGLWidget14updateVboBlendEv
libdmr.so.0.1:_ZN3dmr11MpvGLWidget16updateVboCornersEv
libdmr.so.0.1:_ZN3dmr11MpvGLWidget17toggleRoundedClipEb
libdmr.so.0.1:_ZN3dmr11MpvGLWidget17updateCornerMasksEv
libdmr.so.0.1:_ZN3dmr11MpvGLWidget19prepareSplashImagesEv
libdmr.so.0.1:_ZN3dmr11MpvGLWidget7paintGLEv
libdmr.so.0.1:_ZN3dmr11MpvGLWidget8resizeGLEii
libdmr.so.0.1:_ZN3dmr11MpvGLWidget9updateVboEv
libdmr.so.0.1:_ZN3dmr11MpvGLWidgetC1EP7QWidgetN3mpv2qt6HandleE
libdmr.so.0.1:_ZN3dmr11MpvGLWidgetC2EP7QWidgetN3mpv2qt6HandleE
libdmr.so.0.1:_ZN3dmr11MpvGLWidgetD0Ev
libdmr.so.0.1:_ZN3dmr11MpvGLWidgetD1Ev
libdmr.so.0.1:_ZN3dmr11MpvGLWidgetD2Ev
libdmr.so.0.1:_ZN3dmr12PlayItemInfo7refreshEv
libdmr.so.0.1:_ZN3dmr12PlayerEngine10addPlayDirERK4QDir
libdmr.so.0.1:_ZN3dmr12PlayerEngine10aidChangedEv
libdmr.so.0.1:_ZN3dmr12PlayerEngine10fileLoadedEv
libdmr.so.0.1:_ZN3dmr12PlayerEngine10playByNameERK4QUrl
libdmr.so.0.1:_ZN3dmr12PlayerEngine10sidChangedEv
libdmr.so.0.1:_ZN3dmr12PlayerEngine10toggleMuteEv
libdmr.so.0.1:_ZN3dmr12PlayerEngine10volumeDownEv
libdmr.so.0.1:_ZN3dmr12PlayerEngine11addPlayFileERK4QUrl
libdmr.so.0.1:_ZN3dmr12PlayerEngine11muteChangedEv
libdmr.so.0.1:_ZN3dmr12PlayerEngine11pauseResumeEv
libdmr.so.0.1:_ZN3dmr12PlayerEngine11qt_metacallEN11QMetaObject4CallEiPPv
libdmr.so.0.1:_ZN3dmr12PlayerEngine11qt_metacastEPKc
libdmr.so.0.1:_ZN3dmr12PlayerEngine11requestPlayEi
libdmr.so.0.1:_ZN3dmr12PlayerEngine11resizeEventEP12QResizeEvent
libdmr.so.0.1:_ZN3dmr12PlayerEngine11seekForwardEi
libdmr.so.0.1:_ZN3dmr12PlayerEngine11selectTrackEi
libdmr.so.0.1:_ZN3dmr12PlayerEngine11setSubDelayEd
libdmr.so.0.1:_ZN3dmr12PlayerEngine11subCodepageEv
libdmr.so.0.1:_ZN3dmr12PlayerEngine11waitLastEndEv
libdmr.so.0.1:_ZN3dmr12PlayerEngine12addPlayFilesERK5QListI4QUrlE
libdmr.so.0.1:_ZN3dmr12PlayerEngine12changeVolumeEi
libdmr.so.0.1:_ZN3dmr12PlayerEngine12isSubVisibleEv
libdmr.so.0.1:_ZN3dmr12PlayerEngine12loadSubtitleERK9QFileInfo
libdmr.so.0.1:_ZN3dmr12PlayerEngine12playSelectedEi
libdmr.so.0.1:_ZN3dmr12PlayerEngine12seekAbsoluteEi
libdmr.so.0.1:_ZN3dmr12PlayerEngine12seekBackwardEi
libdmr.so.0.1:_ZN3dmr12PlayerEngine12setDVDDeviceERK7QString
libdmr.so.0.1:_ZN3dmr12PlayerEngine12setPlaySpeedEd
libdmr.so.0.1:_ZN3dmr12PlayerEngine12stateChangedEv
libdmr.so.0.1:_ZN3dmr12PlayerEngine13clearPlaylistEv
libdmr.so.0.1:_ZN3dmr12PlayerEngine13previousFrameEv
libdmr.so.0.1:_ZN3dmr12PlayerEngine13tracksChangedEv
libdmr.so.0.1:_ZN3dmr12PlayerEngine13volumeChangedEv
libdmr.so.0.1:_ZN3dmr12PlayerEngine14collectPlayDirERK4QDir
libdmr.so.0.1:_ZN3dmr12PlayerEngine14elapsedChangedEv
libdmr.so.0.1:_ZN3dmr12PlayerEngine14isPlayableFileERK4QUrl
libdmr.so.0.1:_ZN3dmr12PlayerEngine14isPlayableFileERK7QString
libdmr.so.0.1:_ZN3dmr12PlayerEngine14selectSubtitleEi
libdmr.so.0.1:_ZN3dmr12PlayerEngine14setSubCodepageERK7QString
libdmr.so.0.1:_ZN3dmr12PlayerEngine14setVideoAspectEd
libdmr.so.0.1:_ZN3dmr12PlayerEngine14takeScreenshotEv
libdmr.so.0.1:_ZN3dmr12PlayerEngine14toggleSubtitleEv
libdmr.so.0.1:_ZN3dmr12PlayerEngine14updateSubStyleERK7QStringi
libdmr.so.0.1:_ZN3dmr12PlayerEngine15burstScreenshotEv
libdmr.so.0.1:_ZN3dmr12PlayerEngine15changeSoundModeENS_7Backend9SoundModeE
libdmr.so.0.1:_ZN3dmr12PlayerEngine15playlistChangedEv
libdmr.so.0.1:_ZN3dmr12PlayerEngine15updateSubStylesEv
libdmr.so.0.1:_ZN3dmr12PlayerEngine16addSubSearchPathERK7QString
libdmr.so.0.1:_ZN3dmr12PlayerEngine16collectPlayFilesERK5QListI4QUrlE
libdmr.so.0.1:_ZN3dmr12PlayerEngine16notifyScreenshotERK6QImagex
libdmr.so.0.1:_ZN3dmr12PlayerEngine16playingMovieInfoEv
libdmr.so.0.1:_ZN3dmr12PlayerEngine16setVideoRotationEi
libdmr.so.0.1:_ZN3dmr12PlayerEngine16videoSizeChangedEv
libdmr.so.0.1:_ZN3dmr12PlayerEngine18getBackendPropertyERK7QString
libdmr.so.0.1:_ZN3dmr12PlayerEngine18loadOnlineSubtitleERK4QUrl
libdmr.so.0.1:_ZN3dmr12PlayerEngine18setBackendPropertyERK7QStringRK8QVariant
libdmr.so.0.1:_ZN3dmr12PlayerEngine18subCodepageChangedEv
libdmr.so.0.1:_ZN3dmr12PlayerEngine19stopBurstScreenshotEv
libdmr.so.0.1:_ZN3dmr12PlayerEngine20savePlaybackPositionEv
libdmr.so.0.1:_ZN3dmr12PlayerEngine21onBackendStateChangedEv
libdmr.so.0.1:_ZN3dmr12PlayerEngine21onSubtitlesDownloadedERK4QUrlRK5QListI7QStringENS_14OnlineSubtitle10FailReasonE
libdmr.so.0.1:_ZN3dmr12PlayerEngine22savePreviousMovieStateEv
libdmr.so.0.1:_ZN3dmr12PlayerEngine27loadOnlineSubtitlesFinishedERK4QUrlb
libdmr.so.0.1:_ZN3dmr12PlayerEngine29onPlaylistAsyncAppendFinishedERK5QListINS_12PlayItemInfoEE
libdmr.so.0.1:_ZN3dmr12PlayerEngine3aidEv
libdmr.so.0.1:_ZN3dmr12PlayerEngine3sidEv
libdmr.so.0.1:_ZN3dmr12PlayerEngine4nextEv
libdmr.so.0.1:_ZN3dmr12PlayerEngine4playEv
libdmr.so.0.1:_ZN3dmr12PlayerEngine4prevEv
libdmr.so.0.1:_ZN3dmr12PlayerEngine4stopEv
libdmr.so.0.1:_ZN3dmr12PlayerEngine5stateEv
libdmr.so.0.1:_ZN3dmr12PlayerEngine6pausedEv
libdmr.so.0.1:_ZN3dmr12PlayerEngine8volumeUpEv
libdmr.so.0.1:_ZN3dmr12PlayerEngine9nextFrameEv
libdmr.so.0.1:_ZN3dmr12PlayerEngineC1EP7QWidget
libdmr.so.0.1:_ZN3dmr12PlayerEngineC2EP7QWidget
libdmr.so.0.1:_ZN3dmr12PlayerEngineD0Ev
libdmr.so.0.1:_ZN3dmr12PlayerEngineD1Ev
libdmr.so.0.1:_ZN3dmr12PlayerEngineD2Ev
libdmr.so.0.1:_ZN3dmr12PlayerWidget11qt_metacallEN11QMetaObject4CallEiPPv
libdmr.so.0.1:_ZN3dmr12PlayerWidget11qt_metacastEPKc
libdmr.so.0.1:_ZN3dmr12PlayerWidget4playERK4QUrl
libdmr.so.0.1:_ZN3dmr12PlayerWidget6engineEv
libdmr.so.0.1:_ZN3dmr12PlayerWidgetC1EP7QWidget
libdmr.so.0.1:_ZN3dmr12PlayerWidgetC2EP7QWidget
libdmr.so.0.1:_ZN3dmr12PlayerWidgetD0Ev
libdmr.so.0.1:_ZN3dmr12PlayerWidgetD1Ev
libdmr.so.0.1:_ZN3dmr12PlayerWidgetD2Ev
libdmr.so.0.1:_ZN3dmr13PlaylistModel11appendAsyncERK5QListI4QUrlE
libdmr.so.0.1:_ZN3dmr13PlaylistModel11currentInfoEv
libdmr.so.0.1:_ZN3dmr13PlaylistModel11itemRemovedEi
libdmr.so.0.1:_ZN3dmr13PlaylistModel11qt_metacallEN11QMetaObject4CallEiPPv
libdmr.so.0.1:_ZN3dmr13PlaylistModel11qt_metacastEPKc
libdmr.so.0.1:_ZN3dmr13PlaylistModel11setPlayModeENS0_8PlayModeE
libdmr.so.0.1:_ZN3dmr13PlaylistModel12appendSingleERK4QUrl
libdmr.so.0.1:_ZN3dmr13PlaylistModel12countChangedEv
libdmr.so.0.1:_ZN3dmr13PlaylistModel12loadPlaylistEv
libdmr.so.0.1:_ZN3dmr13PlaylistModel12savePlaylistEv
libdmr.so.0.1:_ZN3dmr13PlaylistModel13changeCurrentEi
libdmr.so.0.1:_ZN3dmr13PlaylistModel13clearPlaylistEv
libdmr.so.0.1:_ZN3dmr13PlaylistModel13collectionJobERK5QListI4QUrlE
libdmr.so.0.1:_ZN3dmr13PlaylistModel13itemsAppendedEv
libdmr.so.0.1:_ZN3dmr13PlaylistModel14currentChangedEv
libdmr.so.0.1:_ZN3dmr13PlaylistModel14switchPositionEii
libdmr.so.0.1:_ZN3dmr13PlaylistModel14tryPlayCurrentEb
libdmr.so.0.1:_ZN3dmr13PlaylistModel15itemInfoUpdatedEi
libdmr.so.0.1:_ZN3dmr13PlaylistModel15playModeChangedENS0_8PlayModeE
libdmr.so.0.1:_ZN3dmr13PlaylistModel17calculatePlayInfoERK4QUrlRK9QFileInfo
libdmr.so.0.1:_ZN3dmr13PlaylistModel17hasPendingAppendsEv
libdmr.so.0.1:_ZN3dmr13PlaylistModel18delayedAppendAsyncERK5QListI4QUrlE
libdmr.so.0.1:_ZN3dmr13PlaylistModel19asyncAppendFinishedERK5QListINS_12PlayItemInfoEE
libdmr.so.0.1:_ZN3dmr13PlaylistModel21onAsyncAppendFinishedEv
libdmr.so.0.1:_ZN3dmr13PlaylistModel24handleAsyncAppendResultsER5QListINS_12PlayItemInfoEE
libdmr.so.0.1:_ZN3dmr13PlaylistModel4stopEv
libdmr.so.0.1:_ZN3dmr13PlaylistModel5clearEv
libdmr.so.0.1:_ZN3dmr13PlaylistModel6appendERK4QUrl
libdmr.so.0.1:_ZN3dmr13PlaylistModel6removeEi
libdmr.so.0.1:_ZN3dmr13PlaylistModel7emptiedEv
libdmr.so.0.1:_ZN3dmr13PlaylistModel7indexOfERK4QUrl
libdmr.so.0.1:_ZN3dmr13PlaylistModel8playNextEb
libdmr.so.0.1:_ZN3dmr13PlaylistModel8playPrevEb
libdmr.so.0.1:_ZN3dmr13PlaylistModel9reshuffleEv
libdmr.so.0.1:_ZN3dmr13PlaylistModelC1EPNS_12PlayerEngineE
libdmr.so.0.1:_ZN3dmr13PlaylistModelC2EPNS_12PlayerEngineE
libdmr.so.0.1:_ZN3dmr13PlaylistModelD0Ev
libdmr.so.0.1:_ZN3dmr13PlaylistModelD1Ev
libdmr.so.0.1:_ZN3dmr13PlaylistModelD2Ev
libdmr.so.0.1:_ZN3dmr14OnlineSubtitle11qt_metacallEN11QMetaObject4CallEiPPv
libdmr.so.0.1:_ZN3dmr14OnlineSubtitle11qt_metacastEPKc
libdmr.so.0.1:_ZN3dmr14OnlineSubtitle13replyReceivedEP13QNetworkReply
libdmr.so.0.1:_ZN3dmr14OnlineSubtitle13storeLocationEv
libdmr.so.0.1:_ZN3dmr14OnlineSubtitle15hasHashConflictERK7QStringS3_
libdmr.so.0.1:_ZN3dmr14OnlineSubtitle15requestSubtitleERK4QUrl
libdmr.so.0.1:_ZN3dmr14OnlineSubtitle17downloadSubtitlesEv
libdmr.so.0.1:_ZN3dmr14OnlineSubtitle17findAvailableNameERK7QStringi
libdmr.so.0.1:_ZN3dmr14OnlineSubtitle22subtitlesDownloadedForERK4QUrlRK5QListI7QStringENS0_10FailReasonE
libdmr.so.0.1:_ZN3dmr14OnlineSubtitle25subtitlesDownloadCompleteEv
libdmr.so.0.1:_ZN3dmr14OnlineSubtitle3getEv
libdmr.so.0.1:_ZN3dmr14OnlineSubtitleC1Ev
libdmr.so.0.1:_ZN3dmr14OnlineSubtitleC2Ev
libdmr.so.0.1:_ZN3dmr17PersistentManager11qt_metacallEN11QMetaObject4CallEiPPv
libdmr.so.0.1:_ZN3dmr17PersistentManager11qt_metacastEPKc
libdmr.so.0.1:_ZN3dmr18CompositingManager10getProfileERK7QString
libdmr.so.0.1:_ZN3dmr18CompositingManager11interopKindEv
libdmr.so.0.1:_ZN3dmr18CompositingManager14getBestProfileEv
libdmr.so.0.1:_ZN3dmr18CompositingManager14is_card_existsERKSt6vectorINSt7__cxx1112basic_stringIcSt11char_traitsIcESaIcEEESaIS7_EE
libdmr.so.0.1:_ZN3dmr18CompositingManager16isDirectRenderedEv
libdmr.so.0.1:_ZN3dmr18CompositingManager16is_device_viableEi
libdmr.so.0.1:_ZN3dmr18CompositingManager17detectOpenGLEarlyEv
libdmr.so.0.1:_ZN3dmr18CompositingManager19isProprietaryDriverEv
libdmr.so.0.1:_ZN3dmr18CompositingManager21overrideCompositeModeEb
libdmr.so.0.1:_ZN3dmr18CompositingManager23isDriverLoadedCorrectlyEv
libdmr.so.0.1:_ZN3dmr18CompositingManager3getEv
libdmr.so.0.1:_ZN3dmr18CompositingManagerC1Ev
libdmr.so.0.1:_ZN3dmr18CompositingManagerC2Ev
libdmr.so.0.1:_ZN3dmr18CompositingManagerD0Ev
libdmr.so.0.1:_ZN3dmr18CompositingManagerD1Ev
libdmr.so.0.1:_ZN3dmr18CompositingManagerD2Ev
libdmr.so.0.1:_ZN3dmr18MovieConfiguration10decodeListERK8QVariant
libdmr.so.0.1:_ZN3dmr18MovieConfiguration10queryByUrlERK4QUrl
libdmr.so.0.1:_ZN3dmr18MovieConfiguration11qt_metacallEN11QMetaObject4CallEiPPv
libdmr.so.0.1:_ZN3dmr18MovieConfiguration11qt_metacastEPKc
libdmr.so.0.1:_ZN3dmr18MovieConfiguration12getListByUrlERK4QUrlNS0_8KnownKeyE
libdmr.so.0.1:_ZN3dmr18MovieConfiguration14append2ListUrlERK4QUrlNS0_8KnownKeyERK7QString
libdmr.so.0.1:_ZN3dmr18MovieConfiguration15knownKey2StringENS0_8KnownKeyE
libdmr.so.0.1:_ZN3dmr18MovieConfiguration17removeFromListUrlERK4QUrlNS0_8KnownKeyERK7QString
libdmr.so.0.1:_ZN3dmr18MovieConfiguration3getEv
libdmr.so.0.1:_ZN3dmr18MovieConfiguration4initEv
libdmr.so.0.1:_ZN3dmr18MovieConfiguration5clearEv
libdmr.so.0.1:_ZN3dmr18MovieConfiguration8getByUrlERK4QUrlNS0_8KnownKeyE
libdmr.so.0.1:_ZN3dmr18MovieConfiguration8getByUrlERK4QUrlRK7QString
libdmr.so.0.1:_ZN3dmr18MovieConfiguration9removeUrlERK4QUrl
libdmr.so.0.1:_ZN3dmr18MovieConfiguration9updateUrlERK4QUrlNS0_8KnownKeyERK8QVariant
libdmr.so.0.1:_ZN3dmr18MovieConfiguration9updateUrlERK4QUrlRK7QStringRK8QVariant
libdmr.so.0.1:_ZN3dmr18MovieConfiguration9urlExistsERK4QUrl
libdmr.so.0.1:_ZN3dmr18MovieConfigurationC1Ev
libdmr.so.0.1:_ZN3dmr18MovieConfigurationC2Ev
libdmr.so.0.1:_ZN3dmr18MovieConfigurationD0Ev
libdmr.so.0.1:_ZN3dmr18MovieConfigurationD1Ev
libdmr.so.0.1:_ZN3dmr18MovieConfigurationD2Ev
libdmr.so.0.1:_ZN3dmr3dvd16RetrieveDVDTitleERK7QString
libdmr.so.0.1:_ZN3dmr5utils12CompareNamesERK7QStringS3_
libdmr.so.0.1:_ZN3dmr5utils12FastFileHashERK9QFileInfo
libdmr.so.0.1:_ZN3dmr5utils12FullFileHashERK9QFileInfo
libdmr.so.0.1:_ZN3dmr5utils12MoveToCenterEP7QWidget
libdmr.so.0.1:_ZN3dmr5utils14InhibitStandbyEv
libdmr.so.0.1:_ZN3dmr5utils14IsNamesSimilarERK7QStringS3_
libdmr.so.0.1:_ZN3dmr5utils14LoadHiDPIImageERK7QString
libdmr.so.0.1:_ZN3dmr5utils15LoadHiDPIPixmapERK7QString
libdmr.so.0.1:_ZN3dmr5utils16FindSimilarFilesERK9QFileInfo
libdmr.so.0.1:_ZN3dmr5utils16UnInhibitStandbyEj
libdmr.so.0.1:_ZN3dmr5utils17MakeRoundedPixmapE5QSize7QPixmapddx
libdmr.so.0.1:_ZN3dmr5utils17MakeRoundedPixmapE7QPixmapddi
libdmr.so.0.1:_ZN3dmr5utils17ShowInFileManagerERK7QString
libdmr.so.0.1:_ZN3dmr5utils22ValidateScreenshotPathERK7QString
libdmr.so.0.1:_ZN3dmr5utils8Time2strEx
libdmr.so.0.1:_ZN3dmr5utils9ElideTextERK7QStringRK5QSizeN11QTextOption8WrapModeERK5QFontN2Qt13TextElideModeEii
libdmr.so.0.1:_ZN3dmr7Backend10aidChangedEv
libdmr.so.0.1:_ZN3dmr7Backend10fileLoadedEv
libdmr.so.0.1:_ZN3dmr7Backend10sidChangedEv
libdmr.so.0.1:_ZN3dmr7Backend11muteChangedEv
libdmr.so.0.1:_ZN3dmr7Backend11qt_metacallEN11QMetaObject4CallEiPPv
libdmr.so.0.1:_ZN3dmr7Backend11qt_metacastEPKc
libdmr.so.0.1:_ZN3dmr7Backend12stateChangedEv
libdmr.so.0.1:_ZN3dmr7Backend13tracksChangedEv
libdmr.so.0.1:_ZN3dmr7Backend13volumeChangedEv
libdmr.so.0.1:_ZN3dmr7Backend14elapsedChangedEv
libdmr.so.0.1:_ZN3dmr7Backend16notifyScreenshotERK6QImagex
libdmr.so.0.1:_ZN3dmr7Backend16videoSizeChangedEv
libdmr.so.0.1:_ZN3dmr8MpvProxy10toggleMuteEv
libdmr.so.0.1:_ZN3dmr8MpvProxy10volumeDownEv
libdmr.so.0.1:_ZN3dmr8MpvProxy11getPropertyERK7QString
libdmr.so.0.1:_ZN3dmr8MpvProxy11pauseResumeEv
libdmr.so.0.1:_ZN3dmr8MpvProxy11qt_metacallEN11QMetaObject4CallEiPPv
libdmr.so.0.1:_ZN3dmr8MpvProxy11qt_metacastEPKc
libdmr.so.0.1:_ZN3dmr8MpvProxy11resizeEventEP12QResizeEvent
libdmr.so.0.1:_ZN3dmr8MpvProxy11seekForwardEi
libdmr.so.0.1:_ZN3dmr8MpvProxy11selectTrackEi
libdmr.so.0.1:_ZN3dmr8MpvProxy11setPropertyERK7QStringRK8QVariant
libdmr.so.0.1:_ZN3dmr8MpvProxy11setSubDelayEd
libdmr.so.0.1:_ZN3dmr8MpvProxy11subCodepageEv
libdmr.so.0.1:_ZN3dmr8MpvProxy12changeVolumeEi
libdmr.so.0.1:_ZN3dmr8MpvProxy12isSubVisibleEv
libdmr.so.0.1:_ZN3dmr8MpvProxy12loadSubtitleERK9QFileInfo
libdmr.so.0.1:_ZN3dmr8MpvProxy12seekAbsoluteEi
libdmr.so.0.1:_ZN3dmr8MpvProxy12seekBackwardEi
libdmr.so.0.1:_ZN3dmr8MpvProxy12setPlaySpeedEd
libdmr.so.0.1:_ZN3dmr8MpvProxy13previousFrameEv
libdmr.so.0.1:_ZN3dmr8MpvProxy14changePropertyERK7QStringRK8QVariant
libdmr.so.0.1:_ZN3dmr8MpvProxy14has_mpv_eventsEv
libdmr.so.0.1:_ZN3dmr8MpvProxy14selectSubtitleEi
libdmr.so.0.1:_ZN3dmr8MpvProxy14setSubCodepageERK7QString
libdmr.so.0.1:_ZN3dmr8MpvProxy14setVideoAspectEd
libdmr.so.0.1:_ZN3dmr8MpvProxy14takeScreenshotEv
libdmr.so.0.1:_ZN3dmr8MpvProxy14toggleSubtitleEv
libdmr.so.0.1:_ZN3dmr8MpvProxy14updateSubStyleERK7QStringi
libdmr.so.0.1:_ZN3dmr8MpvProxy15burstScreenshotEv
libdmr.so.0.1:_ZN3dmr8MpvProxy15changeSoundModeENS_7Backend9SoundModeE
libdmr.so.0.1:_ZN3dmr8MpvProxy16addSubSearchPathERK7QString
libdmr.so.0.1:_ZN3dmr8MpvProxy16playingMovieInfoEv
libdmr.so.0.1:_ZN3dmr8MpvProxy16setVideoRotationEi
libdmr.so.0.1:_ZN3dmr8MpvProxy17handle_mpv_eventsEv
libdmr.so.0.1:_ZN3dmr8MpvProxy17processLogMessageEP21mpv_event_log_message
libdmr.so.0.1:_ZN3dmr8MpvProxy17takeOneScreenshotEv
libdmr.so.0.1:_ZN3dmr8MpvProxy19nextBurstShootPointEv
libdmr.so.0.1:_ZN3dmr8MpvProxy19stepBurstScreenshotEv
libdmr.so.0.1:_ZN3dmr8MpvProxy19stopBurstScreenshotEv
libdmr.so.0.1:_ZN3dmr8MpvProxy20pollingEndOfPlaybackEv
libdmr.so.0.1:_ZN3dmr8MpvProxy20savePlaybackPositionEv
libdmr.so.0.1:_ZN3dmr8MpvProxy21processPropertyChangeEP18mpv_event_property
libdmr.so.0.1:_ZN3dmr8MpvProxy22pollingStartOfPlaybackEv
libdmr.so.0.1:_ZN3dmr8MpvProxy22updatePlayingMovieInfoEv
libdmr.so.0.1:_ZN3dmr8MpvProxy4playEv
libdmr.so.0.1:_ZN3dmr8MpvProxy4stopEv
libdmr.so.0.1:_ZN3dmr8MpvProxy8mpv_initEv
libdmr.so.0.1:_ZN3dmr8MpvProxy8setStateENS_7Backend9PlayStateE
libdmr.so.0.1:_ZN3dmr8MpvProxy8volumeUpEv
libdmr.so.0.1:_ZN3dmr8MpvProxy9nextFrameEv
libdmr.so.0.1:_ZN3dmr8MpvProxy9showEventEP10QShowEvent
libdmr.so.0.1:_ZN3dmr8MpvProxyC1EP7QWidget
libdmr.so.0.1:_ZN3dmr8MpvProxyC2EP7QWidget
libdmr.so.0.1:_ZN3dmr8MpvProxyD0Ev
libdmr.so.0.1:_ZN3dmr8MpvProxyD1Ev
libdmr.so.0.1:_ZN3dmr8MpvProxyD2Ev
libdmr.so.0.1:_ZN3dmr9MovieInfo13parseFromFileERK9QFileInfoPb
libdmr.so.0.1:_ZN3dmrlsE6QDebugRKNS_9MovieInfoE
libdmr.so.0.1:_ZN3dmrlsER11QDataStreamRKNS_9MovieInfoE
libdmr.so.0.1:_ZN3dmrrsER11QDataStreamRNS_9MovieInfoE
libdmr.so.0.1:_ZNK3dmr11MpvGLWidget10metaObjectEv
libdmr.so.0.1:_ZNK3dmr12PlayerEngine10metaObjectEv
libdmr.so.0.1:_ZNK3dmr12PlayerEngine11videoAspectEv
libdmr.so.0.1:_ZNK3dmr12PlayerEngine13videoRotationEv
libdmr.so.0.1:_ZNK3dmr12PlayerEngine5mutedEv
libdmr.so.0.1:_ZNK3dmr12PlayerEngine6volumeEv
libdmr.so.0.1:_ZNK3dmr12PlayerEngine7elapsedEv
libdmr.so.0.1:_ZNK3dmr12PlayerEngine8durationEv
libdmr.so.0.1:_ZNK3dmr12PlayerEngine8subDelayEv
libdmr.so.0.1:_ZNK3dmr12PlayerEngine9videoSizeEv
libdmr.so.0.1:_ZNK3dmr12PlayerWidget10metaObjectEv
libdmr.so.0.1:_ZNK3dmr13PlaylistModel10metaObjectEv
libdmr.so.0.1:_ZNK3dmr13PlaylistModel11currentInfoEv
libdmr.so.0.1:_ZNK3dmr13PlaylistModel5countEv
libdmr.so.0.1:_ZNK3dmr13PlaylistModel7currentEv
libdmr.so.0.1:_ZNK3dmr13PlaylistModel8playModeEv
libdmr.so.0.1:_ZNK3dmr14OnlineSubtitle10metaObjectEv
libdmr.so.0.1:_ZNK3dmr17PersistentManager10metaObjectEv
libdmr.so.0.1:_ZNK3dmr18MovieConfiguration10metaObjectEv
libdmr.so.0.1:_ZNK3dmr7Backend10metaObjectEv
libdmr.so.0.1:_ZNK3dmr8MpvProxy10metaObjectEv
libdmr.so.0.1:_ZNK3dmr8MpvProxy11videoAspectEv
libdmr.so.0.1:_ZNK3dmr8MpvProxy13videoRotationEv
libdmr.so.0.1:_ZNK3dmr8MpvProxy3aidEv
libdmr.so.0.1:_ZNK3dmr8MpvProxy3sidEv
libdmr.so.0.1:_ZNK3dmr8MpvProxy5mutedEv
libdmr.so.0.1:_ZNK3dmr8MpvProxy6volumeEv
libdmr.so.0.1:_ZNK3dmr8MpvProxy7elapsedEv
libdmr.so.0.1:_ZNK3dmr8MpvProxy8durationEv
libdmr.so.0.1:_ZNK3dmr8MpvProxy8subDelayEv
libdmr.so.0.1:_ZNK3dmr8MpvProxy9videoSizeEv
libdmr.so.0.1:_ZThn16_N3dmr11MpvGLWidgetD0Ev
libdmr.so.0.1:_ZThn16_N3dmr11MpvGLWidgetD1Ev
libdmr.so.0.1:_ZThn16_N3dmr12PlayerEngineD0Ev
libdmr.so.0.1:_ZThn16_N3dmr12PlayerEngineD1Ev
libdmr.so.0.1:_ZThn16_N3dmr12PlayerWidgetD0Ev
libdmr.so.0.1:_ZThn16_N3dmr12PlayerWidgetD1Ev
libdmr.so.0.1:_ZThn16_N3dmr8MpvProxyD0Ev
libdmr.so.0.1:_ZThn16_N3dmr8MpvProxyD1Ev
