libdde-network-utils.so.1:_Z15parseDeviceTypeRK7QString
libdde-network-utils.so.1:_ZN3dde7network11WiredDevice11qt_metacallEN11QMetaObject4CallEiPPv
libdde-network-utils.so.1:_ZN3dde7network11WiredDevice11qt_metacastEPKc
libdde-network-utils.so.1:_ZN3dde7network11WiredDevice14setConnectionsERK5QListI11QJsonObjectE
libdde-network-utils.so.1:_ZN3dde7network11WiredDevice20setActiveConnectionsERK5QListI11QJsonObjectE
libdde-network-utils.so.1:_ZN3dde7network11WiredDevice24setActiveConnectionsInfoERK5QListI11QJsonObjectE
libdde-network-utils.so.1:_ZN3dde7network11WiredDeviceC1ERK11QJsonObjectP7QObject
libdde-network-utils.so.1:_ZN3dde7network11WiredDeviceC2ERK11QJsonObjectP7QObject
libdde-network-utils.so.1:_ZN3dde7network12NetworkModel11needSecretsERK7QString
libdde-network-utils.so.1:_ZN3dde7network12NetworkModel11qt_metacallEN11QMetaObject4CallEiPPv
libdde-network-utils.so.1:_ZN3dde7network12NetworkModel11qt_metacastEPKc
libdde-network-utils.so.1:_ZN3dde7network12NetworkModel13onNeedSecretsERK7QString
libdde-network-utils.so.1:_ZN3dde7network12NetworkModel16onDevicesChangedERK7QString
libdde-network-utils.so.1:_ZN3dde7network12NetworkModel16onProxiesChangedERK7QStringS4_j
libdde-network-utils.so.1:_ZN3dde7network12NetworkModel17onDeviceAPRemovedERK7QStringS4_
libdde-network-utils.so.1:_ZN3dde7network12NetworkModel18onAutoProxyChangedERK7QString
libdde-network-utils.so.1:_ZN3dde7network12NetworkModel19needSecretsFinishedERK7QStringS4_
libdde-network-utils.so.1:_ZN3dde7network12NetworkModel19onChainsAddrChangedERK7QString
libdde-network-utils.so.1:_ZN3dde7network12NetworkModel19onChainsPortChangedEj
libdde-network-utils.so.1:_ZN3dde7network12NetworkModel19onChainsTypeChangedERK7QString
libdde-network-utils.so.1:_ZN3dde7network12NetworkModel19onChainsUserChangedERK7QString
libdde-network-utils.so.1:_ZN3dde7network12NetworkModel19onVPNEnabledChangedEb
libdde-network-utils.so.1:_ZN3dde7network12NetworkModel20onProxyMethodChangedERK7QString
libdde-network-utils.so.1:_ZN3dde7network12NetworkModel21onChainsPasswdChangedERK7QString
libdde-network-utils.so.1:_ZN3dde7network12NetworkModel21onConnectivityChangedEi
libdde-network-utils.so.1:_ZN3dde7network12NetworkModel21onDeviceAPInfoChangedERK7QStringS4_
libdde-network-utils.so.1:_ZN3dde7network12NetworkModel21onDeviceAPListChangedERK7QStringS4_
libdde-network-utils.so.1:_ZN3dde7network12NetworkModel21onDeviceEnableChangedERK7QStringb
libdde-network-utils.so.1:_ZN3dde7network12NetworkModel21onNeedSecretsFinishedERK7QStringS4_
libdde-network-utils.so.1:_ZN3dde7network12NetworkModel22onAppProxyExistChangedEb
libdde-network-utils.so.1:_ZN3dde7network12NetworkModel23onActiveConnInfoChangedERK7QString
libdde-network-utils.so.1:_ZN3dde7network12NetworkModel23onConnectionListChangedERK7QString
libdde-network-utils.so.1:_ZN3dde7network12NetworkModel25onActivateAccessPointDoneERK7QStringS4_S4_15QDBusObjectPath
libdde-network-utils.so.1:_ZN3dde7network12NetworkModel25onProxyIgnoreHostsChangedERK7QString
libdde-network-utils.so.1:_ZN3dde7network12NetworkModel26onActiveConnectionsChangedERK7QString
libdde-network-utils.so.1:_ZN3dde7network12NetworkModel26onConnectionSessionCreatedERK7QStringS4_
libdde-network-utils.so.1:_ZN3dde7network12NetworkModel36onConnectivitySecondaryCheckFinishedEb
libdde-network-utils.so.1:_ZN3dde7network12NetworkModelC1EP7QObject
libdde-network-utils.so.1:_ZN3dde7network12NetworkModelC2EP7QObject
libdde-network-utils.so.1:_ZN3dde7network12NetworkModelD0Ev
libdde-network-utils.so.1:_ZN3dde7network12NetworkModelD1Ev
libdde-network-utils.so.1:_ZN3dde7network12NetworkModelD2Ev
libdde-network-utils.so.1:_ZN3dde7network13NetworkDevice10setEnabledEb
libdde-network-utils.so.1:_ZN3dde7network13NetworkDevice11qt_metacallEN11QMetaObject4CallEiPPv
libdde-network-utils.so.1:_ZN3dde7network13NetworkDevice11qt_metacastEPKc
libdde-network-utils.so.1:_ZN3dde7network13NetworkDevice13enqueueStatusENS1_12DeviceStatusE
libdde-network-utils.so.1:_ZN3dde7network13NetworkDevice15setDeviceStatusEi
libdde-network-utils.so.1:_ZN3dde7network13NetworkDevice16updateDeviceInfoERK11QJsonObject
libdde-network-utils.so.1:_ZN3dde7network13NetworkDeviceC1ENS1_10DeviceTypeERK11QJsonObjectP7QObject
libdde-network-utils.so.1:_ZN3dde7network13NetworkDeviceC2ENS1_10DeviceTypeERK11QJsonObjectP7QObject
libdde-network-utils.so.1:_ZN3dde7network13NetworkDeviceD0Ev
libdde-network-utils.so.1:_ZN3dde7network13NetworkDeviceD1Ev
libdde-network-utils.so.1:_ZN3dde7network13NetworkDeviceD2Ev
libdde-network-utils.so.1:_ZN3dde7network13NetworkWorker10feedSecretERK7QStringS4_S4_b
libdde-network-utils.so.1:_ZN3dde7network13NetworkWorker10queryProxyERK7QString
libdde-network-utils.so.1:_ZN3dde7network13NetworkWorker11qt_metacallEN11QMetaObject4CallEiPPv
libdde-network-utils.so.1:_ZN3dde7network13NetworkWorker11qt_metacastEPKc
libdde-network-utils.so.1:_ZN3dde7network13NetworkWorker11queryChainsEv
libdde-network-utils.so.1:_ZN3dde7network13NetworkWorker12cancelSecretERK7QStringS4_
libdde-network-utils.so.1:_ZN3dde7network13NetworkWorker12queryProxyCBEP23QDBusPendingCallWatcher
libdde-network-utils.so.1:_ZN3dde7network13NetworkWorker12setAutoProxyERK7QString
libdde-network-utils.so.1:_ZN3dde7network13NetworkWorker12setVpnEnableEb
libdde-network-utils.so.1:_ZN3dde7network13NetworkWorker14createApConfigERK7QStringS4_
libdde-network-utils.so.1:_ZN3dde7network13NetworkWorker14queryAutoProxyEv
libdde-network-utils.so.1:_ZN3dde7network13NetworkWorker14queryProxyDataEv
libdde-network-utils.so.1:_ZN3dde7network13NetworkWorker14remanageDeviceERK7QString
libdde-network-utils.so.1:_ZN3dde7network13NetworkWorker14setChainsProxyERKNS0_11ProxyConfigE
libdde-network-utils.so.1:_ZN3dde7network13NetworkWorker14setProxyMethodERK7QString
libdde-network-utils.so.1:_ZN3dde7network13NetworkWorker15setDeviceEnableERK7QStringb
libdde-network-utils.so.1:_ZN3dde7network13NetworkWorker16createConnectionERK7QStringS4_
libdde-network-utils.so.1:_ZN3dde7network13NetworkWorker16deleteConnectionERK7QString
libdde-network-utils.so.1:_ZN3dde7network13NetworkWorker16disconnectDeviceERK7QString
libdde-network-utils.so.1:_ZN3dde7network13NetworkWorker16queryAutoProxyCBEP23QDBusPendingCallWatcher
libdde-network-utils.so.1:_ZN3dde7network13NetworkWorker16queryProxyMethodEv
libdde-network-utils.so.1:_ZN3dde7network13NetworkWorker17queryAccessPointsERK7QString
libdde-network-utils.so.1:_ZN3dde7network13NetworkWorker17queryDeviceStatusERK7QString
libdde-network-utils.so.1:_ZN3dde7network13NetworkWorker18activateConnectionERK7QStringS4_
libdde-network-utils.so.1:_ZN3dde7network13NetworkWorker18deactiveConnectionERK7QString
libdde-network-utils.so.1:_ZN3dde7network13NetworkWorker18queryProxyMethodCBEP23QDBusPendingCallWatcher
libdde-network-utils.so.1:_ZN3dde7network13NetworkWorker19activateAccessPointERK7QStringS4_S4_
libdde-network-utils.so.1:_ZN3dde7network13NetworkWorker19initWirelessHotspotERK7QString
libdde-network-utils.so.1:_ZN3dde7network13NetworkWorker19onChainsTypeChangedERK7QString
libdde-network-utils.so.1:_ZN3dde7network13NetworkWorker19queryAccessPointsCBEP23QDBusPendingCallWatcher
libdde-network-utils.so.1:_ZN3dde7network13NetworkWorker19queryActiveConnInfoEv
libdde-network-utils.so.1:_ZN3dde7network13NetworkWorker19queryDeviceStatusCBEP23QDBusPendingCallWatcher
libdde-network-utils.so.1:_ZN3dde7network13NetworkWorker19requestWirelessScanEv
libdde-network-utils.so.1:_ZN3dde7network13NetworkWorker19setProxyIgnoreHostsERK7QString
libdde-network-utils.so.1:_ZN3dde7network13NetworkWorker21activateAccessPointCBEP23QDBusPendingCallWatcher
libdde-network-utils.so.1:_ZN3dde7network13NetworkWorker21queryActiveConnInfoCBEP23QDBusPendingCallWatcher
libdde-network-utils.so.1:_ZN3dde7network13NetworkWorker21queryProxyIgnoreHostsEv
libdde-network-utils.so.1:_ZN3dde7network13NetworkWorker22queryConnectionSessionERK7QStringS4_
libdde-network-utils.so.1:_ZN3dde7network13NetworkWorker23queryProxyIgnoreHostsCBEP23QDBusPendingCallWatcher
libdde-network-utils.so.1:_ZN3dde7network13NetworkWorker24queryConnectionSessionCBEP23QDBusPendingCallWatcher
libdde-network-utils.so.1:_ZN3dde7network13NetworkWorker6activeEv
libdde-network-utils.so.1:_ZN3dde7network13NetworkWorker8deactiveEv
libdde-network-utils.so.1:_ZN3dde7network13NetworkWorker8setProxyERK7QStringS4_S4_
libdde-network-utils.so.1:_ZN3dde7network13NetworkWorkerC1EPNS0_12NetworkModelEP7QObject
libdde-network-utils.so.1:_ZN3dde7network13NetworkWorkerC2EPNS0_12NetworkModelEP7QObject
libdde-network-utils.so.1:_ZN3dde7network14WirelessDevice11needSecretsERK7QString
libdde-network-utils.so.1:_ZN3dde7network14WirelessDevice11qt_metacallEN11QMetaObject4CallEiPPv
libdde-network-utils.so.1:_ZN3dde7network14WirelessDevice11qt_metacastEPKc
libdde-network-utils.so.1:_ZN3dde7network14WirelessDevice12updateAPInfoERK7QString
libdde-network-utils.so.1:_ZN3dde7network14WirelessDevice14setConnectionsERK5QListI11QJsonObjectE
libdde-network-utils.so.1:_ZN3dde7network14WirelessDevice17setActiveApBySsidERK7QString
libdde-network-utils.so.1:_ZN3dde7network14WirelessDevice19needSecretsFinishedERK7QStringS4_
libdde-network-utils.so.1:_ZN3dde7network14WirelessDevice20setActiveConnectionsERK5QListI11QJsonObjectE
libdde-network-utils.so.1:_ZN3dde7network14WirelessDevice20setActiveHotspotInfoERK11QJsonObject
libdde-network-utils.so.1:_ZN3dde7network14WirelessDevice21setHotspotConnectionsERK5QListI11QJsonObjectE
libdde-network-utils.so.1:_ZN3dde7network14WirelessDevice24setActiveConnectionsInfoERK5QListI11QJsonObjectE
libdde-network-utils.so.1:_ZN3dde7network14WirelessDevice25activateAccessPointFailedERK7QStringS4_
libdde-network-utils.so.1:_ZN3dde7network14WirelessDevice28activeApSsidByActiveConnUuidERK7QString
libdde-network-utils.so.1:_ZN3dde7network14WirelessDevice8deleteAPERK7QString
libdde-network-utils.so.1:_ZN3dde7network14WirelessDevice9setAPListERK7QString
libdde-network-utils.so.1:_ZN3dde7network14WirelessDeviceC1ERK11QJsonObjectP7QObject
libdde-network-utils.so.1:_ZN3dde7network14WirelessDeviceC2ERK11QJsonObjectP7QObject
libdde-network-utils.so.1:_ZN3dde7network19ConnectivityChecker10startCheckEv
libdde-network-utils.so.1:_ZN3dde7network19ConnectivityChecker11qt_metacallEN11QMetaObject4CallEiPPv
libdde-network-utils.so.1:_ZN3dde7network19ConnectivityChecker11qt_metacastEPKc
libdde-network-utils.so.1:_ZN3dde7network19ConnectivityCheckerC1EP7QObject
libdde-network-utils.so.1:_ZN3dde7network19ConnectivityCheckerC2EP7QObject
libdde-network-utils.so.1:_ZNK3dde7network11WiredDevice10metaObjectEv
libdde-network-utils.so.1:_ZNK3dde7network11WiredDevice11connectionsEv
libdde-network-utils.so.1:_ZNK3dde7network11WiredDevice17activeConnectionsEv
libdde-network-utils.so.1:_ZNK3dde7network11WiredDevice18connectionsChangedERK5QListI11QJsonObjectE
libdde-network-utils.so.1:_ZNK3dde7network11WiredDevice19activeWiredConnNameEv
libdde-network-utils.so.1:_ZNK3dde7network11WiredDevice19activeWiredConnUuidEv
libdde-network-utils.so.1:_ZNK3dde7network11WiredDevice21activeConnectionsInfoEv
libdde-network-utils.so.1:_ZNK3dde7network11WiredDevice24activeConnectionsChangedERK5QListI11QJsonObjectE
libdde-network-utils.so.1:_ZNK3dde7network11WiredDevice24activeVpnConnectionsInfoEv
libdde-network-utils.so.1:_ZNK3dde7network11WiredDevice25activeWiredConnectionInfoEv
libdde-network-utils.so.1:_ZNK3dde7network11WiredDevice26activeWiredConnSettingPathEv
libdde-network-utils.so.1:_ZNK3dde7network11WiredDevice28activeConnectionsInfoChangedERK5QListI11QJsonObjectE
libdde-network-utils.so.1:_ZNK3dde7network11WiredDevice32activeWiredConnectionInfoChangedERK11QJsonObject
libdde-network-utils.so.1:_ZNK3dde7network12NetworkModel10metaObjectEv
libdde-network-utils.so.1:_ZNK3dde7network12NetworkModel12proxyChangedERK7QStringRKNS0_11ProxyConfigE
libdde-network-utils.so.1:_ZNK3dde7network12NetworkModel14containsDeviceERK7QString
libdde-network-utils.so.1:_ZNK3dde7network12NetworkModel16autoProxyChangedERK7QString
libdde-network-utils.so.1:_ZNK3dde7network12NetworkModel16connectionByPathERK7QString
libdde-network-utils.so.1:_ZNK3dde7network12NetworkModel16connectionByUuidERK7QString
libdde-network-utils.so.1:_ZNK3dde7network12NetworkModel17chainsAddrChangedERK7QString
libdde-network-utils.so.1:_ZNK3dde7network12NetworkModel17chainsPortChangedEj
libdde-network-utils.so.1:_ZNK3dde7network12NetworkModel17chainsTypeChangedERK7QString
libdde-network-utils.so.1:_ZNK3dde7network12NetworkModel17deviceListChangedE5QListIPNS0_13NetworkDeviceEE
libdde-network-utils.so.1:_ZNK3dde7network12NetworkModel17vpnEnabledChangedEb
libdde-network-utils.so.1:_ZNK3dde7network12NetworkModel18proxyMethodChangedERK7QString
libdde-network-utils.so.1:_ZNK3dde7network12NetworkModel19chainsPasswdChangedERK7QString
libdde-network-utils.so.1:_ZNK3dde7network12NetworkModel19connectivityChangedENS0_12ConnectivityE
libdde-network-utils.so.1:_ZNK3dde7network12NetworkModel19deviceEnableChangedERK7QStringb
libdde-network-utils.so.1:_ZNK3dde7network12NetworkModel19requestDeviceStatusERK7QString
libdde-network-utils.so.1:_ZNK3dde7network12NetworkModel20activeConnUuidByInfoERK7QStringS4_
libdde-network-utils.so.1:_ZNK3dde7network12NetworkModel20appProxyExistChangedEb
libdde-network-utils.so.1:_ZNK3dde7network12NetworkModel20connectionNameByPathERK7QString
libdde-network-utils.so.1:_ZNK3dde7network12NetworkModel20connectionUuidByPathERK7QString
libdde-network-utils.so.1:_ZNK3dde7network12NetworkModel21activeConnInfoChangedERK5QListI11QJsonObjectE
libdde-network-utils.so.1:_ZNK3dde7network12NetworkModel21chainsUsernameChangedERK7QString
libdde-network-utils.so.1:_ZNK3dde7network12NetworkModel21connectionListChangedEv
libdde-network-utils.so.1:_ZNK3dde7network12NetworkModel22activeConnObjectByUuidERK7QString
libdde-network-utils.so.1:_ZNK3dde7network12NetworkModel22connectionUuidByApInfoERK11QJsonObject
libdde-network-utils.so.1:_ZNK3dde7network12NetworkModel23proxyIgnoreHostsChangedERK7QString
libdde-network-utils.so.1:_ZNK3dde7network12NetworkModel24activeConnectionsChangedERK5QListI11QJsonObjectE
libdde-network-utils.so.1:_ZNK3dde7network12NetworkModel30needCheckConnectivitySecondaryEv
libdde-network-utils.so.1:_ZNK3dde7network12NetworkModel33unhandledConnectionSessionCreatedERK7QStringS4_
libdde-network-utils.so.1:_ZNK3dde7network12NetworkModel6deviceERK7QString
libdde-network-utils.so.1:_ZNK3dde7network13NetworkDevice10metaObjectEv
libdde-network-utils.so.1:_ZNK3dde7network13NetworkDevice10usingHwAdrEv
libdde-network-utils.so.1:_ZNK3dde7network13NetworkDevice12statusStringEv
libdde-network-utils.so.1:_ZNK3dde7network13NetworkDevice13enableChangedEb
libdde-network-utils.so.1:_ZNK3dde7network13NetworkDevice13statusChangedENS1_12DeviceStatusE
libdde-network-utils.so.1:_ZNK3dde7network13NetworkDevice13statusChangedERK7QString
libdde-network-utils.so.1:_ZNK3dde7network13NetworkDevice14obtainIpFailedEv
libdde-network-utils.so.1:_ZNK3dde7network13NetworkDevice14sessionCreatedERK7QString
libdde-network-utils.so.1:_ZNK3dde7network13NetworkDevice18statusQueueChangedERK6QQueueINS1_12DeviceStatusEE
libdde-network-utils.so.1:_ZNK3dde7network13NetworkDevice18statusStringDetailEv
libdde-network-utils.so.1:_ZNK3dde7network13NetworkDevice4pathEv
libdde-network-utils.so.1:_ZNK3dde7network13NetworkDevice7removedEv
libdde-network-utils.so.1:_ZNK3dde7network13NetworkDevice9realHwAdrEv
libdde-network-utils.so.1:_ZNK3dde7network13NetworkWorker10metaObjectEv
libdde-network-utils.so.1:_ZNK3dde7network14WirelessDevice10metaObjectEv
libdde-network-utils.so.1:_ZNK3dde7network14WirelessDevice13apInfoChangedERK11QJsonObject
libdde-network-utils.so.1:_ZNK3dde7network14WirelessDevice14supportHotspotEv
libdde-network-utils.so.1:_ZNK3dde7network14WirelessDevice17activeConnectionsEv
libdde-network-utils.so.1:_ZNK3dde7network14WirelessDevice17activeHotspotUuidEv
libdde-network-utils.so.1:_ZNK3dde7network14WirelessDevice18connectionsChangedERK5QListI11QJsonObjectE
libdde-network-utils.so.1:_ZNK3dde7network14WirelessDevice19activeApInfoChangedERK11QJsonObject
libdde-network-utils.so.1:_ZNK3dde7network14WirelessDevice21activeConnectionsInfoEv
libdde-network-utils.so.1:_ZNK3dde7network14WirelessDevice21hotspotEnabledChangedEb
libdde-network-utils.so.1:_ZNK3dde7network14WirelessDevice22activeWirelessConnNameEv
libdde-network-utils.so.1:_ZNK3dde7network14WirelessDevice22activeWirelessConnUuidEv
libdde-network-utils.so.1:_ZNK3dde7network14WirelessDevice24activeConnectionsChangedERK5QListI11QJsonObjectE
libdde-network-utils.so.1:_ZNK3dde7network14WirelessDevice24activeVpnConnectionsInfoEv
libdde-network-utils.so.1:_ZNK3dde7network14WirelessDevice26hostspotConnectionsChangedERK5QListI11QJsonObjectE
libdde-network-utils.so.1:_ZNK3dde7network14WirelessDevice28activeConnectionsInfoChangedERK5QListI11QJsonObjectE
libdde-network-utils.so.1:_ZNK3dde7network14WirelessDevice28activeWirelessConnectionInfoEv
libdde-network-utils.so.1:_ZNK3dde7network14WirelessDevice29activeWirelessConnSettingPathEv
libdde-network-utils.so.1:_ZNK3dde7network14WirelessDevice35activeWirelessConnectionInfoChangedERK11QJsonObject
libdde-network-utils.so.1:_ZNK3dde7network14WirelessDevice6apListEv
libdde-network-utils.so.1:_ZNK3dde7network14WirelessDevice7apAddedERK11QJsonObject
libdde-network-utils.so.1:_ZNK3dde7network14WirelessDevice9apRemovedERK11QJsonObject
libdde-network-utils.so.1:_ZNK3dde7network19ConnectivityChecker10metaObjectEv
libdde-network-utils.so.1:_ZNK3dde7network19ConnectivityChecker13checkFinishedEb
