libanything.so.1.0.0:add_index
libanything.so.1.0.0:build_fstree
libanything.so.1.0.0:first_name
libanything.so.1.0.0:free_fs_buf
libanything.so.1.0.0:free_fs_index
libanything.so.1.0.0:free_index_keyword
libanything.so.1.0.0:get_capacity
libanything.so.1.0.0:get_index_keyword
libanything.so.1.0.0:get_load_policy
libanything.so.1.0.0:get_name
libanything.so.1.0.0:get_partitions
libanything.so.1.0.0:get_path_by_name_off
libanything.so.1.0.0:get_path_range
libanything.so.1.0.0:get_root_path
libanything.so.1.0.0:get_stats
libanything.so.1.0.0:get_tail
libanything.so.1.0.0:insert_path
libanything.so.1.0.0:is_file
libanything.so.1.0.0:load_fs_buf
libanything.so.1.0.0:load_fs_index
libanything.so.1.0.0:new_allmem_index
libanything.so.1.0.0:new_fs_buf
libanything.so.1.0.0:next_name
libanything.so.1.0.0:remove_path
libanything.so.1.0.0:rename_path
libanything.so.1.0.0:save_allmem_index
libanything.so.1.0.0:save_fs_buf
libanything.so.1.0.0:search_files
libanything.so.1.0.0:utf8_to_wchar_t
libanything.so.1.0.0:wchar_t_to_utf8
libdeepin-anything-server-lib.so.0:_ZN10LFTManager10removePathERK7QString
libdeepin-anything-server-lib.so.0:_ZN10LFTManager11cancelBuildERK7QString
libdeepin-anything-server-lib.so.0:_ZN10LFTManager11onFSRemovedERK7QString
libdeepin-anything-server-lib.so.0:_ZN10LFTManager11qt_metacallEN11QMetaObject4CallEiPPv
libdeepin-anything-server-lib.so.0:_ZN10LFTManager11qt_metacastEPKc
libdeepin-anything-server-lib.so.0:_ZN10LFTManager11setLogLevelEi
libdeepin-anything-server-lib.so.0:_ZN10LFTManager12onMountAddedERK7QStringRK10QByteArray
libdeepin-anything-server-lib.so.0:_ZN10LFTManager14_cleanAllIndexEv
libdeepin-anything-server-lib.so.0:_ZN10LFTManager14_indexAllDelayEi
libdeepin-anything-server-lib.so.0:_ZN10LFTManager14onMountRemovedERK7QStringRK10QByteArray
libdeepin-anything-server-lib.so.0:_ZN10LFTManager15addPathFinishedERK7QStringb
libdeepin-anything-server-lib.so.0:_ZN10LFTManager15logCategoryListEv
libdeepin-anything-server-lib.so.0:_ZN10LFTManager18insertFileToLFTBufERK10QByteArray
libdeepin-anything-server-lib.so.0:_ZN10LFTManager18renameFileOfLFTBufERK10QByteArrayS2_
libdeepin-anything-server-lib.so.0:_ZN10LFTManager19_addPathByPartitionEPK12DBlockDevice
libdeepin-anything-server-lib.so.0:_ZN10LFTManager20removeFileFromLFTBufERK10QByteArray
libdeepin-anything-server-lib.so.0:_ZN10LFTManager20setAutoIndexExternalEb
libdeepin-anything-server-lib.so.0:_ZN10LFTManager20setAutoIndexInternalEb
libdeepin-anything-server-lib.so.0:_ZN10LFTManager21setCodecNameForLocaleERK10QByteArray
libdeepin-anything-server-lib.so.0:_ZN10LFTManager24autoIndexExternalChangedEb
libdeepin-anything-server-lib.so.0:_ZN10LFTManager24autoIndexInternalChangedEb
libdeepin-anything-server-lib.so.0:_ZN10LFTManager4quitEv
libdeepin-anything-server-lib.so.0:_ZN10LFTManager4syncERK7QString
libdeepin-anything-server-lib.so.0:_ZN10LFTManager7addPathE7QStringb
libdeepin-anything-server-lib.so.0:_ZN10LFTManager7refreshERK10QByteArray
libdeepin-anything-server-lib.so.0:_ZN10LFTManager8_syncAllEv
libdeepin-anything-server-lib.so.0:_ZN10LFTManager8cacheDirEv
libdeepin-anything-server-lib.so.0:_ZN10LFTManager8instanceEv
libdeepin-anything-server-lib.so.0:_ZN10LFTManager9_indexAllEv
libdeepin-anything-server-lib.so.0:_ZN10LFTManager9onFSAddedERK7QString
libdeepin-anything-server-lib.so.0:_ZN10LFTManagerC1EP7QObject
libdeepin-anything-server-lib.so.0:_ZN10LFTManagerC2EP7QObject
libdeepin-anything-server-lib.so.0:_ZN10LFTManagerD0Ev
libdeepin-anything-server-lib.so.0:_ZN10LFTManagerD1Ev
libdeepin-anything-server-lib.so.0:_ZN10LFTManagerD2Ev
libdeepin-anything-server-lib.so.0:_ZN11LFTDiskTool11diskManagerEv
libdeepin-anything-server-lib.so.0:_ZN11LFTDiskTool13fromSerialUriERK10QByteArray
libdeepin-anything-server-lib.so.0:_ZN11LFTDiskTool15pathToSerialUriERK7QString
libdeepin-anything-server-lib.so.0:_ZN11LFTDiskTool19getMountPointsInfosERK5QListI10QByteArrayE
libdeepin-anything-server-lib.so.0:_ZN22deepin_anything_server10DASFactory4keysEv
libdeepin-anything-server-lib.so.0:_ZN22deepin_anything_server10DASFactory6createERK7QString
libdeepin-anything-server-lib.so.0:_ZN22deepin_anything_server10DASFactory6loaderEv
libdeepin-anything-server-lib.so.0:_ZN22deepin_anything_server12DASInterface11qt_metacallEN11QMetaObject4CallEiPPv
libdeepin-anything-server-lib.so.0:_ZN22deepin_anything_server12DASInterface11qt_metacastEPKc
libdeepin-anything-server-lib.so.0:_ZN22deepin_anything_server12DASInterfaceC1EP7QObject
libdeepin-anything-server-lib.so.0:_ZN22deepin_anything_server12DASInterfaceC2EP7QObject
libdeepin-anything-server-lib.so.0:_ZN22deepin_anything_server15DASPluginLoader10refreshAllEv
libdeepin-anything-server-lib.so.0:_ZN22deepin_anything_server15DASPluginLoader11pluginAddedERK7QString
libdeepin-anything-server-lib.so.0:_ZN22deepin_anything_server15DASPluginLoader11qt_metacallEN11QMetaObject4CallEiPPv
libdeepin-anything-server-lib.so.0:_ZN22deepin_anything_server15DASPluginLoader11qt_metacastEPKc
libdeepin-anything-server-lib.so.0:_ZN22deepin_anything_server15DASPluginLoader12reloadLoaderEP13QPluginLoader
libdeepin-anything-server-lib.so.0:_ZN22deepin_anything_server15DASPluginLoader12removeLoaderEP13QPluginLoader
libdeepin-anything-server-lib.so.0:_ZN22deepin_anything_server15DASPluginLoader13pluginRemovedEP13QPluginLoaderRK11QStringList
libdeepin-anything-server-lib.so.0:_ZN22deepin_anything_server15DASPluginLoader14pluginModifiedEP13QPluginLoaderRK11QStringList
libdeepin-anything-server-lib.so.0:_ZN22deepin_anything_server15DASPluginLoader6updateEv
libdeepin-anything-server-lib.so.0:_ZN22deepin_anything_server15DASPluginLoaderC1EPKcRK7QStringN2Qt15CaseSensitivityEb
libdeepin-anything-server-lib.so.0:_ZN22deepin_anything_server15DASPluginLoaderC2EPKcRK7QStringN2Qt15CaseSensitivityEb
libdeepin-anything-server-lib.so.0:_ZN22deepin_anything_server15DASPluginLoaderD0Ev
libdeepin-anything-server-lib.so.0:_ZN22deepin_anything_server15DASPluginLoaderD1Ev
libdeepin-anything-server-lib.so.0:_ZN22deepin_anything_server15DASPluginLoaderD2Ev
libdeepin-anything-server-lib.so.0:_ZN22deepin_anything_server22DASPluginLoaderPrivate10loadPluginERK7QString
libdeepin-anything-server-lib.so.0:_ZN22deepin_anything_server22DASPluginLoaderPrivate21_q_onDirectoryChangedERK7QString
libdeepin-anything-server-lib.so.0:_ZN22deepin_anything_server22DASPluginLoaderPrivateC1EPNS_15DASPluginLoaderE
libdeepin-anything-server-lib.so.0:_ZN22deepin_anything_server22DASPluginLoaderPrivateC2EPNS_15DASPluginLoaderE
libdeepin-anything-server-lib.so.0:_ZN22deepin_anything_server22DASPluginLoaderPrivateD1Ev
libdeepin-anything-server-lib.so.0:_ZN22deepin_anything_server22DASPluginLoaderPrivateD2Ev
libdeepin-anything-server-lib.so.0:_ZN22deepin_anything_server9DASPlugin11qt_metacallEN11QMetaObject4CallEiPPv
libdeepin-anything-server-lib.so.0:_ZN22deepin_anything_server9DASPlugin11qt_metacastEPKc
libdeepin-anything-server-lib.so.0:_ZN22deepin_anything_server9DASPluginC1EP7QObject
libdeepin-anything-server-lib.so.0:_ZN22deepin_anything_server9DASPluginC2EP7QObject
libdeepin-anything-server-lib.so.0:_ZNK10LFTManager10metaObjectEv
libdeepin-anything-server-lib.so.0:_ZNK10LFTManager11lftBuindingERK7QString
libdeepin-anything-server-lib.so.0:_ZNK10LFTManager14sendErrorReplyEN10QDBusError9ErrorTypeERK7QString
libdeepin-anything-server-lib.so.0:_ZNK10LFTManager17autoIndexExternalEv
libdeepin-anything-server-lib.so.0:_ZNK10LFTManager17autoIndexInternalEv
libdeepin-anything-server-lib.so.0:_ZNK10LFTManager20hasLFTSubdirectoriesE7QString
libdeepin-anything-server-lib.so.0:_ZNK10LFTManager21_isAutoIndexPartitionEv
libdeepin-anything-server-lib.so.0:_ZNK10LFTManager6hasLFTERK7QString
libdeepin-anything-server-lib.so.0:_ZNK10LFTManager6searchERK7QStringS2_b
libdeepin-anything-server-lib.so.0:_ZNK10LFTManager6searchEixjjRK7QStringS2_bRjS3_
libdeepin-anything-server-lib.so.0:_ZNK10LFTManager7allPathEv
libdeepin-anything-server-lib.so.0:_ZNK10LFTManager8logLevelEv
libdeepin-anything-server-lib.so.0:_ZNK22deepin_anything_server12DASInterface10metaObjectEv
libdeepin-anything-server-lib.so.0:_ZNK22deepin_anything_server15DASPluginLoader10metaObjectEv
libdeepin-anything-server-lib.so.0:_ZNK22deepin_anything_server15DASPluginLoader12pluginLoaderERK7QString
libdeepin-anything-server-lib.so.0:_ZNK22deepin_anything_server15DASPluginLoader15getKeysByLoaderEPK13QPluginLoaderPb
libdeepin-anything-server-lib.so.0:_ZNK22deepin_anything_server15DASPluginLoader16getAllIndexByKeyERK7QString
libdeepin-anything-server-lib.so.0:_ZNK22deepin_anything_server15DASPluginLoader16pluginLoaderListERK7QString
libdeepin-anything-server-lib.so.0:_ZNK22deepin_anything_server15DASPluginLoader6keyMapEv
libdeepin-anything-server-lib.so.0:_ZNK22deepin_anything_server15DASPluginLoader7indexOfERK7QString
libdeepin-anything-server-lib.so.0:_ZNK22deepin_anything_server15DASPluginLoader8instanceEi
libdeepin-anything-server-lib.so.0:_ZNK22deepin_anything_server15DASPluginLoader8metaDataEv
libdeepin-anything-server-lib.so.0:_ZNK22deepin_anything_server22DASPluginLoaderPrivate7getKeysEPK13QPluginLoaderPb
libdeepin-anything-server-lib.so.0:_ZNK22deepin_anything_server9DASPlugin10metaObjectEv
libdeepin-anything-server-lib.so.0:_ZlsR6QDebugRKN11LFTDiskTool14MountPointInfoE
