libudisks2-qt5.so.0:_ZN11DDiskDevice11qt_metacallEN11QMetaObject4CallEiPPv
libudisks2-qt5.so.0:_ZN11DDiskDevice11qt_metacastEPKc
libudisks2-qt5.so.0:_ZN11DDiskDevice16setConfigurationERK4QMapI7QString8QVariantES5_
libudisks2-qt5.so.0:_ZN11DDiskDevice5ejectERK4QMapI7QString8QVariantE
libudisks2-qt5.so.0:_ZN11DDiskDevice8powerOffERK4QMapI7QString8QVariantE
libudisks2-qt5.so.0:_ZN11DDiskDeviceC1ERK7QStringP7QObject
libudisks2-qt5.so.0:_ZN11DDiskDeviceC2ERK7QStringP7QObject
libudisks2-qt5.so.0:_ZN11DDiskDeviceD0Ev
libudisks2-qt5.so.0:_ZN11DDiskDeviceD1Ev
libudisks2-qt5.so.0:_ZN11DDiskDeviceD2Ev
libudisks2-qt5.so.0:_ZN12DBlockDevice10openDeviceERK7QStringRK4QMapIS0_8QVariantE
libudisks2-qt5.so.0:_ZN12DBlockDevice11isEncryptedERK7QString
libudisks2-qt5.so.0:_ZN12DBlockDevice11qt_metacallEN11QMetaObject4CallEiPPv
libudisks2-qt5.so.0:_ZN12DBlockDevice11qt_metacastEPKc
libudisks2-qt5.so.0:_ZN12DBlockDevice11sizeChangedEy
libudisks2-qt5.so.0:_ZN12DBlockDevice12hasPartitionERK7QString
libudisks2-qt5.so.0:_ZN12DBlockDevice13fsTypeChangedEv
libudisks2-qt5.so.0:_ZN12DBlockDevice13hasFileSystemERK7QString
libudisks2-qt5.so.0:_ZN12DBlockDevice13idTypeChangedE7QString
libudisks2-qt5.so.0:_ZN12DBlockDevice13idUUIDChangedE7QString
libudisks2-qt5.so.0:_ZN12DBlockDevice13mDRaidChangedE7QString
libudisks2-qt5.so.0:_ZN12DBlockDevice13openForBackupERK4QMapI7QString8QVariantE
libudisks2-qt5.so.0:_ZN12DBlockDevice13ptTypeChangedEv
libudisks2-qt5.so.0:_ZN12DBlockDevice14idLabelChangedE7QString
libudisks2-qt5.so.0:_ZN12DBlockDevice14idUsageChangedE7QString
libudisks2-qt5.so.0:_ZN12DBlockDevice14openForRestoreERK4QMapI7QString8QVariantE
libudisks2-qt5.so.0:_ZN12DBlockDevice15hintAutoChangedEb
libudisks2-qt5.so.0:_ZN12DBlockDevice15hintNameChangedE7QString
libudisks2-qt5.so.0:_ZN12DBlockDevice15readOnlyChangedEb
libudisks2-qt5.so.0:_ZN12DBlockDevice15setWatchChangesEb
libudisks2-qt5.so.0:_ZN12DBlockDevice15symlinksChangedE5QListI10QByteArrayE
libudisks2-qt5.so.0:_ZN12DBlockDevice16changePassphraseERK7QStringS2_RK4QMapIS0_8QVariantE
libudisks2-qt5.so.0:_ZN12DBlockDevice16idVersionChangedE7QString
libudisks2-qt5.so.0:_ZN12DBlockDevice16openForBenchmarkERK4QMapI7QString8QVariantE
libudisks2-qt5.so.0:_ZN12DBlockDevice17hintIgnoreChangedEb
libudisks2-qt5.so.0:_ZN12DBlockDevice17onInterfacesAddedERK15QDBusObjectPathRK4QMapI7QStringS3_IS4_8QVariantEE
libudisks2-qt5.so.0:_ZN12DBlockDevice18isEncryptedChangedEb
libudisks2-qt5.so.0:_ZN12DBlockDevice18mountPointsChangedERK5QListI10QByteArrayE
libudisks2-qt5.so.0:_ZN12DBlockDevice19hasPartitionChangedEb
libudisks2-qt5.so.0:_ZN12DBlockDevice19hintIconNameChangedE7QString
libudisks2-qt5.so.0:_ZN12DBlockDevice19mDRaidMemberChangedE7QString
libudisks2-qt5.so.0:_ZN12DBlockDevice19onInterfacesRemovedERK15QDBusObjectPathRK11QStringList
libudisks2-qt5.so.0:_ZN12DBlockDevice19onPropertiesChangedERK7QStringRK4QMapIS0_8QVariantE
libudisks2-qt5.so.0:_ZN12DBlockDevice20addConfigurationItemERK5QPairI7QString4QMapIS1_8QVariantEERKS4_
libudisks2-qt5.so.0:_ZN12DBlockDevice20configurationChangedE5QListI5QPairI7QString4QMapIS2_8QVariantEEE
libudisks2-qt5.so.0:_ZN12DBlockDevice20hasFileSystemChangedEb
libudisks2-qt5.so.0:_ZN12DBlockDevice22getSecretConfigurationERK4QMapI7QString8QVariantE
libudisks2-qt5.so.0:_ZN12DBlockDevice22preferredDeviceChangedE10QByteArray
libudisks2-qt5.so.0:_ZN12DBlockDevice23removeConfigurationItemERK5QPairI7QString4QMapIS1_8QVariantEERKS4_
libudisks2-qt5.so.0:_ZN12DBlockDevice23updateConfigurationItemERK5QPairI7QString4QMapIS1_8QVariantEES7_RKS4_
libudisks2-qt5.so.0:_ZN12DBlockDevice24hintPartitionableChangedEb
libudisks2-qt5.so.0:_ZN12DBlockDevice25childConfigurationChangedE5QListI5QPairI7QString4QMapIS2_8QVariantEEE
libudisks2-qt5.so.0:_ZN12DBlockDevice26cryptoBackingDeviceChangedE7QString
libudisks2-qt5.so.0:_ZN12DBlockDevice27hintSymbolicIconNameChangedE7QString
libudisks2-qt5.so.0:_ZN12DBlockDevice28userspaceMountOptionsChangedE11QStringList
libudisks2-qt5.so.0:_ZN12DBlockDevice4lockERK4QMapI7QString8QVariantE
libudisks2-qt5.so.0:_ZN12DBlockDevice5mountERK4QMapI7QString8QVariantE
libudisks2-qt5.so.0:_ZN12DBlockDevice6formatERK7QStringRK4QMapIS0_8QVariantE
libudisks2-qt5.so.0:_ZN12DBlockDevice6formatERKNS_6FSTypeERK4QMapI7QString8QVariantE
libudisks2-qt5.so.0:_ZN12DBlockDevice6rescanERK4QMapI7QString8QVariantE
libudisks2-qt5.so.0:_ZN12DBlockDevice6unlockERK7QStringRK4QMapIS0_8QVariantE
libudisks2-qt5.so.0:_ZN12DBlockDevice7unmountERK4QMapI7QString8QVariantE
libudisks2-qt5.so.0:_ZN12DBlockDevice8setLabelERK7QStringRK4QMapIS0_8QVariantE
libudisks2-qt5.so.0:_ZN12DBlockDeviceC1ER19DBlockDevicePrivateRK7QStringP7QObject
libudisks2-qt5.so.0:_ZN12DBlockDeviceC1ERK7QStringP7QObject
libudisks2-qt5.so.0:_ZN12DBlockDeviceC2ER19DBlockDevicePrivateRK7QStringP7QObject
libudisks2-qt5.so.0:_ZN12DBlockDeviceC2ERK7QStringP7QObject
libudisks2-qt5.so.0:_ZN12DBlockDeviceD0Ev
libudisks2-qt5.so.0:_ZN12DBlockDeviceD1Ev
libudisks2-qt5.so.0:_ZN12DBlockDeviceD2Ev
libudisks2-qt5.so.0:_ZN12DDiskManager10mountAddedERK7QStringRK10QByteArray
libudisks2-qt5.so.0:_ZN12DDiskManager11qt_metacallEN11QMetaObject4CallEiPPv
libudisks2-qt5.so.0:_ZN12DDiskManager11qt_metacastEPKc
libudisks2-qt5.so.0:_ZN12DDiskManager12mountRemovedERK7QStringRK10QByteArray
libudisks2-qt5.so.0:_ZN12DDiskManager15diskDeviceAddedERK7QString
libudisks2-qt5.so.0:_ZN12DDiskManager15fileSystemAddedERK7QString
libudisks2-qt5.so.0:_ZN12DDiskManager15objectPrintableEPK7QObject
libudisks2-qt5.so.0:_ZN12DDiskManager15setWatchChangesEb
libudisks2-qt5.so.0:_ZN12DDiskManager16blockDeviceAddedERK7QString
libudisks2-qt5.so.0:_ZN12DDiskManager16createDiskDeviceERK7QStringP7QObject
libudisks2-qt5.so.0:_ZN12DDiskManager17createBlockDeviceERK7QStringP7QObject
libudisks2-qt5.so.0:_ZN12DDiskManager17diskDeviceRemovedERK7QString
libudisks2-qt5.so.0:_ZN12DDiskManager17fileSystemRemovedERK7QString
libudisks2-qt5.so.0:_ZN12DDiskManager17onInterfacesAddedERK15QDBusObjectPathRK4QMapI7QStringS3_IS4_8QVariantEE
libudisks2-qt5.so.0:_ZN12DDiskManager18blockDeviceRemovedERK7QString
libudisks2-qt5.so.0:_ZN12DDiskManager18mountPointsChangedERK7QStringRK5QListI10QByteArrayES7_
libudisks2-qt5.so.0:_ZN12DDiskManager19onInterfacesRemovedERK15QDBusObjectPathRK11QStringList
libudisks2-qt5.so.0:_ZN12DDiskManager19onPropertiesChangedERK7QStringRK4QMapIS0_8QVariantERK12QDBusMessage
libudisks2-qt5.so.0:_ZN12DDiskManager20createBlockPartitionERK7QStringP7QObject
libudisks2-qt5.so.0:_ZN12DDiskManager9lastErrorEv
libudisks2-qt5.so.0:_ZN12DDiskManagerC1EP7QObject
libudisks2-qt5.so.0:_ZN12DDiskManagerC2EP7QObject
libudisks2-qt5.so.0:_ZN12DDiskManagerD0Ev
libudisks2-qt5.so.0:_ZN12DDiskManagerD1Ev
libudisks2-qt5.so.0:_ZN12DDiskManagerD2Ev
libudisks2-qt5.so.0:_ZN15DBlockPartition11UUIDChangedERK7QString
libudisks2-qt5.so.0:_ZN15DBlockPartition11nameChangedERK7QString
libudisks2-qt5.so.0:_ZN15DBlockPartition11qt_metacallEN11QMetaObject4CallEiPPv
libudisks2-qt5.so.0:_ZN15DBlockPartition11qt_metacastEPKc
libudisks2-qt5.so.0:_ZN15DBlockPartition11sizeChangedEy
libudisks2-qt5.so.0:_ZN15DBlockPartition11typeChangedERK7QString
libudisks2-qt5.so.0:_ZN15DBlockPartition12eTypeChangedEv
libudisks2-qt5.so.0:_ZN15DBlockPartition12flagsChangedEy
libudisks2-qt5.so.0:_ZN15DBlockPartition13numberChangedEj
libudisks2-qt5.so.0:_ZN15DBlockPartition13offsetChangedEy
libudisks2-qt5.so.0:_ZN15DBlockPartition15deletePartitionERK4QMapI7QString8QVariantE
libudisks2-qt5.so.0:_ZN15DBlockPartition15guidTypeChangedEv
libudisks2-qt5.so.0:_ZN15DBlockPartition15typeDescriptionENS_4TypeE
libudisks2-qt5.so.0:_ZN15DBlockPartition18isContainedChangedEb
libudisks2-qt5.so.0:_ZN15DBlockPartition18isContainerChangedEb
libudisks2-qt5.so.0:_ZN15DBlockPartition19guidTypeDescriptionENS_8GUIDTypeE
libudisks2-qt5.so.0:_ZN15DBlockPartition6resizeEyRK4QMapI7QString8QVariantE
libudisks2-qt5.so.0:_ZN15DBlockPartition7setNameERK7QStringRK4QMapIS0_8QVariantE
libudisks2-qt5.so.0:_ZN15DBlockPartition7setTypeENS_4TypeERK4QMapI7QString8QVariantE
libudisks2-qt5.so.0:_ZN15DBlockPartition7setTypeERK7QStringRK4QMapIS0_8QVariantE
libudisks2-qt5.so.0:_ZN15DBlockPartition8setFlagsEyRK4QMapI7QString8QVariantE
libudisks2-qt5.so.0:_ZN15DBlockPartitionC1ERK7QStringP7QObject
libudisks2-qt5.so.0:_ZN15DBlockPartitionC2ERK7QStringP7QObject
libudisks2-qt5.so.0:_ZN19DBlockDevicePrivateC1EP12DBlockDevice
libudisks2-qt5.so.0:_ZN19DBlockDevicePrivateC2EP12DBlockDevice
libudisks2-qt5.so.0:_ZN19DDiskManagerPrivate31updateBlockDeviceMountPointsMapEv
libudisks2-qt5.so.0:_ZN19DDiskManagerPrivateC1EP12DDiskManager
libudisks2-qt5.so.0:_ZN19DDiskManagerPrivateC2EP12DDiskManager
libudisks2-qt5.so.0:_ZN22DBlockPartitionPrivateC1EP15DBlockPartition
libudisks2-qt5.so.0:_ZN22DBlockPartitionPrivateC2EP15DBlockPartition
libudisks2-qt5.so.0:_ZN33OrgFreedesktopUDisks2JobInterface11qt_metacallEN11QMetaObject4CallEiPPv
libudisks2-qt5.so.0:_ZN33OrgFreedesktopUDisks2JobInterface11qt_metacastEPKc
libudisks2-qt5.so.0:_ZN33OrgFreedesktopUDisks2JobInterface9CompletedEbRK7QString
libudisks2-qt5.so.0:_ZN33OrgFreedesktopUDisks2JobInterfaceC1ERK7QStringS2_RK15QDBusConnectionP7QObject
libudisks2-qt5.so.0:_ZN33OrgFreedesktopUDisks2JobInterfaceC2ERK7QStringS2_RK15QDBusConnectionP7QObject
libudisks2-qt5.so.0:_ZN33OrgFreedesktopUDisks2JobInterfaceD0Ev
libudisks2-qt5.so.0:_ZN33OrgFreedesktopUDisks2JobInterfaceD1Ev
libudisks2-qt5.so.0:_ZN33OrgFreedesktopUDisks2JobInterfaceD2Ev
libudisks2-qt5.so.0:_ZN34OrgFreedesktopUDisks2LoopInterface11qt_metacallEN11QMetaObject4CallEiPPv
libudisks2-qt5.so.0:_ZN34OrgFreedesktopUDisks2LoopInterface11qt_metacastEPKc
libudisks2-qt5.so.0:_ZN34OrgFreedesktopUDisks2LoopInterfaceC1ERK7QStringS2_RK15QDBusConnectionP7QObject
libudisks2-qt5.so.0:_ZN34OrgFreedesktopUDisks2LoopInterfaceC2ERK7QStringS2_RK15QDBusConnectionP7QObject
libudisks2-qt5.so.0:_ZN34OrgFreedesktopUDisks2LoopInterfaceD0Ev
libudisks2-qt5.so.0:_ZN34OrgFreedesktopUDisks2LoopInterfaceD1Ev
libudisks2-qt5.so.0:_ZN34OrgFreedesktopUDisks2LoopInterfaceD2Ev
libudisks2-qt5.so.0:_ZN35OrgFreedesktopUDisks2BlockInterface11qt_metacallEN11QMetaObject4CallEiPPv
libudisks2-qt5.so.0:_ZN35OrgFreedesktopUDisks2BlockInterface11qt_metacastEPKc
libudisks2-qt5.so.0:_ZN35OrgFreedesktopUDisks2BlockInterfaceC1ERK7QStringS2_RK15QDBusConnectionP7QObject
libudisks2-qt5.so.0:_ZN35OrgFreedesktopUDisks2BlockInterfaceC2ERK7QStringS2_RK15QDBusConnectionP7QObject
libudisks2-qt5.so.0:_ZN35OrgFreedesktopUDisks2BlockInterfaceD0Ev
libudisks2-qt5.so.0:_ZN35OrgFreedesktopUDisks2BlockInterfaceD1Ev
libudisks2-qt5.so.0:_ZN35OrgFreedesktopUDisks2BlockInterfaceD2Ev
libudisks2-qt5.so.0:_ZN35OrgFreedesktopUDisks2DriveInterface11qt_metacallEN11QMetaObject4CallEiPPv
libudisks2-qt5.so.0:_ZN35OrgFreedesktopUDisks2DriveInterface11qt_metacastEPKc
libudisks2-qt5.so.0:_ZN35OrgFreedesktopUDisks2DriveInterfaceC1ERK7QStringS2_RK15QDBusConnectionP7QObject
libudisks2-qt5.so.0:_ZN35OrgFreedesktopUDisks2DriveInterfaceC2ERK7QStringS2_RK15QDBusConnectionP7QObject
libudisks2-qt5.so.0:_ZN35OrgFreedesktopUDisks2DriveInterfaceD0Ev
libudisks2-qt5.so.0:_ZN35OrgFreedesktopUDisks2DriveInterfaceD1Ev
libudisks2-qt5.so.0:_ZN35OrgFreedesktopUDisks2DriveInterfaceD2Ev
libudisks2-qt5.so.0:_ZN36OrgFreedesktopUDisks2MDRaidInterface11qt_metacallEN11QMetaObject4CallEiPPv
libudisks2-qt5.so.0:_ZN36OrgFreedesktopUDisks2MDRaidInterface11qt_metacastEPKc
libudisks2-qt5.so.0:_ZN36OrgFreedesktopUDisks2MDRaidInterfaceC1ERK7QStringS2_RK15QDBusConnectionP7QObject
libudisks2-qt5.so.0:_ZN36OrgFreedesktopUDisks2MDRaidInterfaceC2ERK7QStringS2_RK15QDBusConnectionP7QObject
libudisks2-qt5.so.0:_ZN36OrgFreedesktopUDisks2MDRaidInterfaceD0Ev
libudisks2-qt5.so.0:_ZN36OrgFreedesktopUDisks2MDRaidInterfaceD1Ev
libudisks2-qt5.so.0:_ZN36OrgFreedesktopUDisks2MDRaidInterfaceD2Ev
libudisks2-qt5.so.0:_ZN37OrgFreedesktopUDisks2ManagerInterface11qt_metacallEN11QMetaObject4CallEiPPv
libudisks2-qt5.so.0:_ZN37OrgFreedesktopUDisks2ManagerInterface11qt_metacastEPKc
libudisks2-qt5.so.0:_ZN37OrgFreedesktopUDisks2ManagerInterfaceC1ERK7QStringS2_RK15QDBusConnectionP7QObject
libudisks2-qt5.so.0:_ZN37OrgFreedesktopUDisks2ManagerInterfaceC2ERK7QStringS2_RK15QDBusConnectionP7QObject
libudisks2-qt5.so.0:_ZN37OrgFreedesktopUDisks2ManagerInterfaceD0Ev
libudisks2-qt5.so.0:_ZN37OrgFreedesktopUDisks2ManagerInterfaceD1Ev
libudisks2-qt5.so.0:_ZN37OrgFreedesktopUDisks2ManagerInterfaceD2Ev
libudisks2-qt5.so.0:_ZN38OrgFreedesktopUDisks2DriveAtaInterface11qt_metacallEN11QMetaObject4CallEiPPv
libudisks2-qt5.so.0:_ZN38OrgFreedesktopUDisks2DriveAtaInterface11qt_metacastEPKc
libudisks2-qt5.so.0:_ZN38OrgFreedesktopUDisks2DriveAtaInterfaceC1ERK7QStringS2_RK15QDBusConnectionP7QObject
libudisks2-qt5.so.0:_ZN38OrgFreedesktopUDisks2DriveAtaInterfaceC2ERK7QStringS2_RK15QDBusConnectionP7QObject
libudisks2-qt5.so.0:_ZN38OrgFreedesktopUDisks2DriveAtaInterfaceD0Ev
libudisks2-qt5.so.0:_ZN38OrgFreedesktopUDisks2DriveAtaInterfaceD1Ev
libudisks2-qt5.so.0:_ZN38OrgFreedesktopUDisks2DriveAtaInterfaceD2Ev
libudisks2-qt5.so.0:_ZN39OrgFreedesktopUDisks2EncryptedInterface11qt_metacallEN11QMetaObject4CallEiPPv
libudisks2-qt5.so.0:_ZN39OrgFreedesktopUDisks2EncryptedInterface11qt_metacastEPKc
libudisks2-qt5.so.0:_ZN39OrgFreedesktopUDisks2EncryptedInterfaceC1ERK7QStringS2_RK15QDBusConnectionP7QObject
libudisks2-qt5.so.0:_ZN39OrgFreedesktopUDisks2EncryptedInterfaceC2ERK7QStringS2_RK15QDBusConnectionP7QObject
libudisks2-qt5.so.0:_ZN39OrgFreedesktopUDisks2EncryptedInterfaceD0Ev
libudisks2-qt5.so.0:_ZN39OrgFreedesktopUDisks2EncryptedInterfaceD1Ev
libudisks2-qt5.so.0:_ZN39OrgFreedesktopUDisks2EncryptedInterfaceD2Ev
libudisks2-qt5.so.0:_ZN39OrgFreedesktopUDisks2PartitionInterface11qt_metacallEN11QMetaObject4CallEiPPv
libudisks2-qt5.so.0:_ZN39OrgFreedesktopUDisks2PartitionInterface11qt_metacastEPKc
libudisks2-qt5.so.0:_ZN39OrgFreedesktopUDisks2PartitionInterfaceC1ERK7QStringS2_RK15QDBusConnectionP7QObject
libudisks2-qt5.so.0:_ZN39OrgFreedesktopUDisks2PartitionInterfaceC2ERK7QStringS2_RK15QDBusConnectionP7QObject
libudisks2-qt5.so.0:_ZN39OrgFreedesktopUDisks2PartitionInterfaceD0Ev
libudisks2-qt5.so.0:_ZN39OrgFreedesktopUDisks2PartitionInterfaceD1Ev
libudisks2-qt5.so.0:_ZN39OrgFreedesktopUDisks2PartitionInterfaceD2Ev
libudisks2-qt5.so.0:_ZN39OrgFreedesktopUDisks2SwapspaceInterface11qt_metacallEN11QMetaObject4CallEiPPv
libudisks2-qt5.so.0:_ZN39OrgFreedesktopUDisks2SwapspaceInterface11qt_metacastEPKc
libudisks2-qt5.so.0:_ZN39OrgFreedesktopUDisks2SwapspaceInterfaceC1ERK7QStringS2_RK15QDBusConnectionP7QObject
libudisks2-qt5.so.0:_ZN39OrgFreedesktopUDisks2SwapspaceInterfaceC2ERK7QStringS2_RK15QDBusConnectionP7QObject
libudisks2-qt5.so.0:_ZN39OrgFreedesktopUDisks2SwapspaceInterfaceD0Ev
libudisks2-qt5.so.0:_ZN39OrgFreedesktopUDisks2SwapspaceInterfaceD1Ev
libudisks2-qt5.so.0:_ZN39OrgFreedesktopUDisks2SwapspaceInterfaceD2Ev
libudisks2-qt5.so.0:_ZN40OrgFreedesktopDBusObjectManagerInterface11qt_metacallEN11QMetaObject4CallEiPPv
libudisks2-qt5.so.0:_ZN40OrgFreedesktopDBusObjectManagerInterface11qt_metacastEPKc
libudisks2-qt5.so.0:_ZN40OrgFreedesktopDBusObjectManagerInterface15InterfacesAddedERK15QDBusObjectPathRK4QMapI7QStringS3_IS4_8QVariantEE
libudisks2-qt5.so.0:_ZN40OrgFreedesktopDBusObjectManagerInterface17InterfacesRemovedERK15QDBusObjectPathRK11QStringList
libudisks2-qt5.so.0:_ZN40OrgFreedesktopDBusObjectManagerInterfaceC1ERK7QStringS2_RK15QDBusConnectionP7QObject
libudisks2-qt5.so.0:_ZN40OrgFreedesktopDBusObjectManagerInterfaceC2ERK7QStringS2_RK15QDBusConnectionP7QObject
libudisks2-qt5.so.0:_ZN40OrgFreedesktopDBusObjectManagerInterfaceD0Ev
libudisks2-qt5.so.0:_ZN40OrgFreedesktopDBusObjectManagerInterfaceD1Ev
libudisks2-qt5.so.0:_ZN40OrgFreedesktopDBusObjectManagerInterfaceD2Ev
libudisks2-qt5.so.0:_ZN40OrgFreedesktopUDisks2FilesystemInterface11qt_metacallEN11QMetaObject4CallEiPPv
libudisks2-qt5.so.0:_ZN40OrgFreedesktopUDisks2FilesystemInterface11qt_metacastEPKc
libudisks2-qt5.so.0:_ZN40OrgFreedesktopUDisks2FilesystemInterfaceC1ERK7QStringS2_RK15QDBusConnectionP7QObject
libudisks2-qt5.so.0:_ZN40OrgFreedesktopUDisks2FilesystemInterfaceC2ERK7QStringS2_RK15QDBusConnectionP7QObject
libudisks2-qt5.so.0:_ZN40OrgFreedesktopUDisks2FilesystemInterfaceD0Ev
libudisks2-qt5.so.0:_ZN40OrgFreedesktopUDisks2FilesystemInterfaceD1Ev
libudisks2-qt5.so.0:_ZN40OrgFreedesktopUDisks2FilesystemInterfaceD2Ev
libudisks2-qt5.so.0:_ZN44OrgFreedesktopUDisks2PartitionTableInterface11qt_metacallEN11QMetaObject4CallEiPPv
libudisks2-qt5.so.0:_ZN44OrgFreedesktopUDisks2PartitionTableInterface11qt_metacastEPKc
libudisks2-qt5.so.0:_ZN44OrgFreedesktopUDisks2PartitionTableInterfaceC1ERK7QStringS2_RK15QDBusConnectionP7QObject
libudisks2-qt5.so.0:_ZN44OrgFreedesktopUDisks2PartitionTableInterfaceC2ERK7QStringS2_RK15QDBusConnectionP7QObject
libudisks2-qt5.so.0:_ZN44OrgFreedesktopUDisks2PartitionTableInterfaceD0Ev
libudisks2-qt5.so.0:_ZN44OrgFreedesktopUDisks2PartitionTableInterfaceD1Ev
libudisks2-qt5.so.0:_ZN44OrgFreedesktopUDisks2PartitionTableInterfaceD2Ev
libudisks2-qt5.so.0:_ZN7UDisks213objectManagerEv
libudisks2-qt5.so.0:_ZN7UDisks218interfaceIsExistesERK7QStringS2_
libudisks2-qt5.so.0:_ZN7UDisks220supportedFilesystemsEv
libudisks2-qt5.so.0:_ZN7UDisks27versionEv
libudisks2-qt5.so.0:_ZNK11DDiskDevice10metaObjectEv
libudisks2-qt5.so.0:_ZNK11DDiskDevice11canPowerOffEv
libudisks2-qt5.so.0:_ZNK11DDiskDevice12opticalBlankEv
libudisks2-qt5.so.0:_ZNK11DDiskDevice12rotationRateEv
libudisks2-qt5.so.0:_ZNK11DDiskDevice12timeDetectedEv
libudisks2-qt5.so.0:_ZNK11DDiskDevice13configurationEv
libudisks2-qt5.so.0:_ZNK11DDiskDevice13connectionBusEv
libudisks2-qt5.so.0:_ZNK11DDiskDevice14mediaAvailableEv
libudisks2-qt5.so.0:_ZNK11DDiskDevice14mediaRemovableEv
libudisks2-qt5.so.0:_ZNK11DDiskDevice16opticalNumTracksEv
libudisks2-qt5.so.0:_ZNK11DDiskDevice17timeMediaDetectedEv
libudisks2-qt5.so.0:_ZNK11DDiskDevice18mediaCompatibilityEv
libudisks2-qt5.so.0:_ZNK11DDiskDevice18opticalNumSessionsEv
libudisks2-qt5.so.0:_ZNK11DDiskDevice19mediaChangeDetectedEv
libudisks2-qt5.so.0:_ZNK11DDiskDevice20opticalNumDataTracksEv
libudisks2-qt5.so.0:_ZNK11DDiskDevice21opticalNumAudioTracksEv
libudisks2-qt5.so.0:_ZNK11DDiskDevice2idEv
libudisks2-qt5.so.0:_ZNK11DDiskDevice3WWNEv
libudisks2-qt5.so.0:_ZNK11DDiskDevice4pathEv
libudisks2-qt5.so.0:_ZNK11DDiskDevice4seatEv
libudisks2-qt5.so.0:_ZNK11DDiskDevice4sizeEv
libudisks2-qt5.so.0:_ZNK11DDiskDevice5mediaEv
libudisks2-qt5.so.0:_ZNK11DDiskDevice5modelEv
libudisks2-qt5.so.0:_ZNK11DDiskDevice6serialEv
libudisks2-qt5.so.0:_ZNK11DDiskDevice6vendorEv
libudisks2-qt5.so.0:_ZNK11DDiskDevice7opticalEv
libudisks2-qt5.so.0:_ZNK11DDiskDevice7sortKeyEv
libudisks2-qt5.so.0:_ZNK11DDiskDevice8revisionEv
libudisks2-qt5.so.0:_ZNK11DDiskDevice9ejectableEv
libudisks2-qt5.so.0:_ZNK11DDiskDevice9removableEv
libudisks2-qt5.so.0:_ZNK11DDiskDevice9siblingIdEv
libudisks2-qt5.so.0:_ZNK12DBlockDevice10hintIgnoreEv
libudisks2-qt5.so.0:_ZNK12DBlockDevice10hintSystemEv
libudisks2-qt5.so.0:_ZNK12DBlockDevice10metaObjectEv
libudisks2-qt5.so.0:_ZNK12DBlockDevice11canSetLabelEv
libudisks2-qt5.so.0:_ZNK12DBlockDevice11isEncryptedEv
libudisks2-qt5.so.0:_ZNK12DBlockDevice11mountPointsEv
libudisks2-qt5.so.0:_ZNK12DBlockDevice12deviceNumberEv
libudisks2-qt5.so.0:_ZNK12DBlockDevice12hasPartitionEv
libudisks2-qt5.so.0:_ZNK12DBlockDevice12hintIconNameEv
libudisks2-qt5.so.0:_ZNK12DBlockDevice12isLoopDeviceEv
libudisks2-qt5.so.0:_ZNK12DBlockDevice12mDRaidMemberEv
libudisks2-qt5.so.0:_ZNK12DBlockDevice12watchChangesEv
libudisks2-qt5.so.0:_ZNK12DBlockDevice13configurationEv
libudisks2-qt5.so.0:_ZNK12DBlockDevice13hasFileSystemEv
libudisks2-qt5.so.0:_ZNK12DBlockDevice15preferredDeviceEv
libudisks2-qt5.so.0:_ZNK12DBlockDevice17hintPartitionableEv
libudisks2-qt5.so.0:_ZNK12DBlockDevice18childConfigurationEv
libudisks2-qt5.so.0:_ZNK12DBlockDevice19cryptoBackingDeviceEv
libudisks2-qt5.so.0:_ZNK12DBlockDevice20hintSymbolicIconNameEv
libudisks2-qt5.so.0:_ZNK12DBlockDevice21userspaceMountOptionsEv
libudisks2-qt5.so.0:_ZNK12DBlockDevice2idEv
libudisks2-qt5.so.0:_ZNK12DBlockDevice4pathEv
libudisks2-qt5.so.0:_ZNK12DBlockDevice4sizeEv
libudisks2-qt5.so.0:_ZNK12DBlockDevice5driveEv
libudisks2-qt5.so.0:_ZNK12DBlockDevice6deviceEv
libudisks2-qt5.so.0:_ZNK12DBlockDevice6fsTypeEv
libudisks2-qt5.so.0:_ZNK12DBlockDevice6idTypeEv
libudisks2-qt5.so.0:_ZNK12DBlockDevice6idUUIDEv
libudisks2-qt5.so.0:_ZNK12DBlockDevice6mDRaidEv
libudisks2-qt5.so.0:_ZNK12DBlockDevice6ptTypeEv
libudisks2-qt5.so.0:_ZNK12DBlockDevice7idLabelEv
libudisks2-qt5.so.0:_ZNK12DBlockDevice7idUsageEv
libudisks2-qt5.so.0:_ZNK12DBlockDevice7isValidEv
libudisks2-qt5.so.0:_ZNK12DBlockDevice8hintAutoEv
libudisks2-qt5.so.0:_ZNK12DBlockDevice8hintNameEv
libudisks2-qt5.so.0:_ZNK12DBlockDevice8readOnlyEv
libudisks2-qt5.so.0:_ZNK12DBlockDevice8symlinksEv
libudisks2-qt5.so.0:_ZNK12DBlockDevice9idVersionEv
libudisks2-qt5.so.0:_ZNK12DDiskManager10metaObjectEv
libudisks2-qt5.so.0:_ZNK12DDiskManager11diskDevicesEv
libudisks2-qt5.so.0:_ZNK12DDiskManager12blockDevicesEv
libudisks2-qt5.so.0:_ZNK12DDiskManager12watchChangesEv
libudisks2-qt5.so.0:_ZNK12DDiskManager20createBlockPartitionERK12QStorageInfoP7QObject
libudisks2-qt5.so.0:_ZNK12DDiskManager29createBlockDeviceByDevicePathERK10QByteArrayP7QObject
libudisks2-qt5.so.0:_ZNK12DDiskManager32createBlockPartitionByMountPointERK10QByteArrayP7QObject
libudisks2-qt5.so.0:_ZNK15DBlockPartition10metaObjectEv
libudisks2-qt5.so.0:_ZNK15DBlockPartition11isContainedEv
libudisks2-qt5.so.0:_ZNK15DBlockPartition11isContainerEv
libudisks2-qt5.so.0:_ZNK15DBlockPartition4UUIDEv
libudisks2-qt5.so.0:_ZNK15DBlockPartition4nameEv
libudisks2-qt5.so.0:_ZNK15DBlockPartition4sizeEv
libudisks2-qt5.so.0:_ZNK15DBlockPartition4typeEv
libudisks2-qt5.so.0:_ZNK15DBlockPartition5eTypeEv
libudisks2-qt5.so.0:_ZNK15DBlockPartition5flagsEv
libudisks2-qt5.so.0:_ZNK15DBlockPartition5tableEv
libudisks2-qt5.so.0:_ZNK15DBlockPartition6numberEv
libudisks2-qt5.so.0:_ZNK15DBlockPartition6offsetEv
libudisks2-qt5.so.0:_ZNK15DBlockPartition8guidTypeEv
libudisks2-qt5.so.0:_ZNK33OrgFreedesktopUDisks2JobInterface10metaObjectEv
libudisks2-qt5.so.0:_ZNK34OrgFreedesktopUDisks2LoopInterface10metaObjectEv
libudisks2-qt5.so.0:_ZNK35OrgFreedesktopUDisks2BlockInterface10metaObjectEv
libudisks2-qt5.so.0:_ZNK35OrgFreedesktopUDisks2DriveInterface10metaObjectEv
libudisks2-qt5.so.0:_ZNK36OrgFreedesktopUDisks2MDRaidInterface10metaObjectEv
libudisks2-qt5.so.0:_ZNK37OrgFreedesktopUDisks2ManagerInterface10metaObjectEv
libudisks2-qt5.so.0:_ZNK38OrgFreedesktopUDisks2DriveAtaInterface10metaObjectEv
libudisks2-qt5.so.0:_ZNK39OrgFreedesktopUDisks2EncryptedInterface10metaObjectEv
libudisks2-qt5.so.0:_ZNK39OrgFreedesktopUDisks2PartitionInterface10metaObjectEv
libudisks2-qt5.so.0:_ZNK39OrgFreedesktopUDisks2SwapspaceInterface10metaObjectEv
libudisks2-qt5.so.0:_ZNK40OrgFreedesktopDBusObjectManagerInterface10metaObjectEv
libudisks2-qt5.so.0:_ZNK40OrgFreedesktopUDisks2FilesystemInterface10metaObjectEv
libudisks2-qt5.so.0:_ZNK44OrgFreedesktopUDisks2PartitionTableInterface10metaObjectEv
libudisks2-qt5.so.0:_ZlsR13QDBusArgumentRKN7UDisks214SmartAttributeE
libudisks2-qt5.so.0:_ZlsR13QDBusArgumentRKN7UDisks216ActiveDeviceInfoE
libudisks2-qt5.so.0:_ZrsRK13QDBusArgumentRN7UDisks214SmartAttributeE
libudisks2-qt5.so.0:_ZrsRK13QDBusArgumentRN7UDisks216ActiveDeviceInfoE
